ARM GAS  C:\Users\hirot\AppData\Local\Temp\ccYdW9Qg.s 			page 1


   1              		.cpu cortex-m4
   2              		.eabi_attribute 27, 1
   3              		.eabi_attribute 28, 1
   4              		.eabi_attribute 20, 1
   5              		.eabi_attribute 21, 1
   6              		.eabi_attribute 23, 3
   7              		.eabi_attribute 24, 1
   8              		.eabi_attribute 25, 1
   9              		.eabi_attribute 26, 1
  10              		.eabi_attribute 30, 1
  11              		.eabi_attribute 34, 1
  12              		.eabi_attribute 18, 4
  13              		.file	"gpio.c"
  14              		.text
  15              	.Ltext0:
  16              		.cfi_sections	.debug_frame
  17              		.section	.text.MX_GPIO_Init,"ax",%progbits
  18              		.align	1
  19              		.global	MX_GPIO_Init
  20              		.syntax unified
  21              		.thumb
  22              		.thumb_func
  23              		.fpu fpv4-sp-d16
  25              	MX_GPIO_Init:
  26              	.LFB130:
  27              		.file 1 "Src/gpio.c"
   1:Src/gpio.c    **** /**
   2:Src/gpio.c    ****   ******************************************************************************
   3:Src/gpio.c    ****   * File Name          : gpio.c
   4:Src/gpio.c    ****   * Description        : This file provides code for the configuration
   5:Src/gpio.c    ****   *                      of all used GPIO pins.
   6:Src/gpio.c    ****   ******************************************************************************
   7:Src/gpio.c    ****   * @attention
   8:Src/gpio.c    ****   *
   9:Src/gpio.c    ****   * <h2><center>&copy; Copyright (c) 2019 STMicroelectronics.
  10:Src/gpio.c    ****   * All rights reserved.</center></h2>
  11:Src/gpio.c    ****   *
  12:Src/gpio.c    ****   * This software component is licensed by ST under BSD 3-Clause license,
  13:Src/gpio.c    ****   * the "License"; You may not use this file except in compliance with the
  14:Src/gpio.c    ****   * License. You may obtain a copy of the License at:
  15:Src/gpio.c    ****   *                        opensource.org/licenses/BSD-3-Clause
  16:Src/gpio.c    ****   *
  17:Src/gpio.c    ****   ******************************************************************************
  18:Src/gpio.c    ****   */
  19:Src/gpio.c    **** 
  20:Src/gpio.c    **** /* Includes ------------------------------------------------------------------*/
  21:Src/gpio.c    **** #include "gpio.h"
  22:Src/gpio.c    **** /* USER CODE BEGIN 0 */
  23:Src/gpio.c    **** 
  24:Src/gpio.c    **** /* USER CODE END 0 */
  25:Src/gpio.c    **** 
  26:Src/gpio.c    **** /*----------------------------------------------------------------------------*/
  27:Src/gpio.c    **** /* Configure GPIO                                                             */
  28:Src/gpio.c    **** /*----------------------------------------------------------------------------*/
  29:Src/gpio.c    **** /* USER CODE BEGIN 1 */
  30:Src/gpio.c    **** 
  31:Src/gpio.c    **** /* USER CODE END 1 */
ARM GAS  C:\Users\hirot\AppData\Local\Temp\ccYdW9Qg.s 			page 2


  32:Src/gpio.c    **** 
  33:Src/gpio.c    **** /** Configure pins as 
  34:Src/gpio.c    ****         * Analog 
  35:Src/gpio.c    ****         * Input 
  36:Src/gpio.c    ****         * Output
  37:Src/gpio.c    ****         * EVENT_OUT
  38:Src/gpio.c    ****         * EXTI
  39:Src/gpio.c    **** */
  40:Src/gpio.c    **** void MX_GPIO_Init(void)
  41:Src/gpio.c    **** {
  28              		.loc 1 41 0
  29              		.cfi_startproc
  30              		@ args = 0, pretend = 0, frame = 40
  31              		@ frame_needed = 0, uses_anonymous_args = 0
  32 0000 10B5     		push	{r4, lr}
  33              	.LCFI0:
  34              		.cfi_def_cfa_offset 8
  35              		.cfi_offset 4, -8
  36              		.cfi_offset 14, -4
  37 0002 8AB0     		sub	sp, sp, #40
  38              	.LCFI1:
  39              		.cfi_def_cfa_offset 48
  42:Src/gpio.c    **** 
  43:Src/gpio.c    ****   GPIO_InitTypeDef GPIO_InitStruct = {0};
  40              		.loc 1 43 0
  41 0004 0024     		movs	r4, #0
  42 0006 0594     		str	r4, [sp, #20]
  43 0008 0694     		str	r4, [sp, #24]
  44 000a 0794     		str	r4, [sp, #28]
  45 000c 0894     		str	r4, [sp, #32]
  46 000e 0994     		str	r4, [sp, #36]
  47              	.LBB2:
  44:Src/gpio.c    **** 
  45:Src/gpio.c    ****   /* GPIO Ports Clock Enable */
  46:Src/gpio.c    ****   __HAL_RCC_GPIOC_CLK_ENABLE();
  48              		.loc 1 46 0
  49 0010 204B     		ldr	r3, .L3
  50 0012 DA6C     		ldr	r2, [r3, #76]
  51 0014 42F00402 		orr	r2, r2, #4
  52 0018 DA64     		str	r2, [r3, #76]
  53 001a DA6C     		ldr	r2, [r3, #76]
  54 001c 02F00402 		and	r2, r2, #4
  55 0020 0192     		str	r2, [sp, #4]
  56 0022 019A     		ldr	r2, [sp, #4]
  57              	.LBE2:
  58              	.LBB3:
  47:Src/gpio.c    ****   __HAL_RCC_GPIOH_CLK_ENABLE();
  59              		.loc 1 47 0
  60 0024 DA6C     		ldr	r2, [r3, #76]
  61 0026 42F08002 		orr	r2, r2, #128
  62 002a DA64     		str	r2, [r3, #76]
  63 002c DA6C     		ldr	r2, [r3, #76]
  64 002e 02F08002 		and	r2, r2, #128
  65 0032 0292     		str	r2, [sp, #8]
  66 0034 029A     		ldr	r2, [sp, #8]
  67              	.LBE3:
  68              	.LBB4:
ARM GAS  C:\Users\hirot\AppData\Local\Temp\ccYdW9Qg.s 			page 3


  48:Src/gpio.c    ****   __HAL_RCC_GPIOA_CLK_ENABLE();
  69              		.loc 1 48 0
  70 0036 DA6C     		ldr	r2, [r3, #76]
  71 0038 42F00102 		orr	r2, r2, #1
  72 003c DA64     		str	r2, [r3, #76]
  73 003e DA6C     		ldr	r2, [r3, #76]
  74 0040 02F00102 		and	r2, r2, #1
  75 0044 0392     		str	r2, [sp, #12]
  76 0046 039A     		ldr	r2, [sp, #12]
  77              	.LBE4:
  78              	.LBB5:
  49:Src/gpio.c    ****   __HAL_RCC_GPIOB_CLK_ENABLE();
  79              		.loc 1 49 0
  80 0048 DA6C     		ldr	r2, [r3, #76]
  81 004a 42F00202 		orr	r2, r2, #2
  82 004e DA64     		str	r2, [r3, #76]
  83 0050 DB6C     		ldr	r3, [r3, #76]
  84 0052 03F00203 		and	r3, r3, #2
  85 0056 0493     		str	r3, [sp, #16]
  86 0058 049B     		ldr	r3, [sp, #16]
  87              	.LBE5:
  50:Src/gpio.c    **** 
  51:Src/gpio.c    ****   /*Configure GPIO pin Output Level */
  52:Src/gpio.c    ****   HAL_GPIO_WritePin(LD2_GPIO_Port, LD2_Pin, GPIO_PIN_RESET);
  88              		.loc 1 52 0
  89 005a 2246     		mov	r2, r4
  90 005c 2021     		movs	r1, #32
  91 005e 4FF09040 		mov	r0, #1207959552
  92 0062 FFF7FEFF 		bl	HAL_GPIO_WritePin
  93              	.LVL0:
  53:Src/gpio.c    **** 
  54:Src/gpio.c    ****   /*Configure GPIO pin : PtPin */
  55:Src/gpio.c    ****   GPIO_InitStruct.Pin = B1_Pin;
  94              		.loc 1 55 0
  95 0066 4FF40053 		mov	r3, #8192
  96 006a 0593     		str	r3, [sp, #20]
  56:Src/gpio.c    ****   GPIO_InitStruct.Mode = GPIO_MODE_IT_FALLING;
  97              		.loc 1 56 0
  98 006c 0A4B     		ldr	r3, .L3+4
  99 006e 0693     		str	r3, [sp, #24]
  57:Src/gpio.c    ****   GPIO_InitStruct.Pull = GPIO_NOPULL;
 100              		.loc 1 57 0
 101 0070 0794     		str	r4, [sp, #28]
  58:Src/gpio.c    ****   HAL_GPIO_Init(B1_GPIO_Port, &GPIO_InitStruct);
 102              		.loc 1 58 0
 103 0072 05A9     		add	r1, sp, #20
 104 0074 0948     		ldr	r0, .L3+8
 105 0076 FFF7FEFF 		bl	HAL_GPIO_Init
 106              	.LVL1:
  59:Src/gpio.c    **** 
  60:Src/gpio.c    ****   /*Configure GPIO pin : PtPin */
  61:Src/gpio.c    ****   GPIO_InitStruct.Pin = LD2_Pin;
 107              		.loc 1 61 0
 108 007a 2023     		movs	r3, #32
 109 007c 0593     		str	r3, [sp, #20]
  62:Src/gpio.c    ****   GPIO_InitStruct.Mode = GPIO_MODE_OUTPUT_PP;
 110              		.loc 1 62 0
ARM GAS  C:\Users\hirot\AppData\Local\Temp\ccYdW9Qg.s 			page 4


 111 007e 0123     		movs	r3, #1
 112 0080 0693     		str	r3, [sp, #24]
  63:Src/gpio.c    ****   GPIO_InitStruct.Pull = GPIO_NOPULL;
 113              		.loc 1 63 0
 114 0082 0794     		str	r4, [sp, #28]
  64:Src/gpio.c    ****   GPIO_InitStruct.Speed = GPIO_SPEED_FREQ_LOW;
 115              		.loc 1 64 0
 116 0084 0894     		str	r4, [sp, #32]
  65:Src/gpio.c    ****   HAL_GPIO_Init(LD2_GPIO_Port, &GPIO_InitStruct);
 117              		.loc 1 65 0
 118 0086 05A9     		add	r1, sp, #20
 119 0088 4FF09040 		mov	r0, #1207959552
 120 008c FFF7FEFF 		bl	HAL_GPIO_Init
 121              	.LVL2:
  66:Src/gpio.c    **** 
  67:Src/gpio.c    **** }
 122              		.loc 1 67 0
 123 0090 0AB0     		add	sp, sp, #40
 124              	.LCFI2:
 125              		.cfi_def_cfa_offset 8
 126              		@ sp needed
 127 0092 10BD     		pop	{r4, pc}
 128              	.L4:
 129              		.align	2
 130              	.L3:
 131 0094 00100240 		.word	1073876992
 132 0098 00002110 		.word	270598144
 133 009c 00080048 		.word	1207961600
 134              		.cfi_endproc
 135              	.LFE130:
 137              		.text
 138              	.Letext0:
 139              		.file 2 "c:\\program files (x86)\\gnu tools arm embedded\\6.2 2016q4\\arm-none-eabi\\include\\mach
 140              		.file 3 "c:\\program files (x86)\\gnu tools arm embedded\\6.2 2016q4\\arm-none-eabi\\include\\sys\
 141              		.file 4 "Drivers/CMSIS/Include/core_cm4.h"
 142              		.file 5 "Drivers/CMSIS/Device/ST/STM32L4xx/Include/system_stm32l4xx.h"
 143              		.file 6 "Drivers/CMSIS/Device/ST/STM32L4xx/Include/stm32l476xx.h"
 144              		.file 7 "Drivers/STM32L4xx_HAL_Driver/Inc/stm32l4xx_hal_def.h"
 145              		.file 8 "Drivers/STM32L4xx_HAL_Driver/Inc/stm32l4xx_hal_gpio.h"
 146              		.file 9 "Drivers/STM32L4xx_HAL_Driver/Inc/stm32l4xx_hal_flash.h"
 147              		.file 10 "Drivers/STM32L4xx_HAL_Driver/Inc/stm32l4xx_hal.h"
ARM GAS  C:\Users\hirot\AppData\Local\Temp\ccYdW9Qg.s 			page 5

