ARM GAS  C:\Users\hirot\AppData\Local\Temp\ccfASOde.s 			page 1


   1              		.cpu cortex-m4
   2              		.eabi_attribute 27, 1
   3              		.eabi_attribute 28, 1
   4              		.eabi_attribute 20, 1
   5              		.eabi_attribute 21, 1
   6              		.eabi_attribute 23, 3
   7              		.eabi_attribute 24, 1
   8              		.eabi_attribute 25, 1
   9              		.eabi_attribute 26, 1
  10              		.eabi_attribute 30, 1
  11              		.eabi_attribute 34, 1
  12              		.eabi_attribute 18, 4
  13              		.file	"i2c.c"
  14              		.text
  15              	.Ltext0:
  16              		.cfi_sections	.debug_frame
  17              		.section	.text.MX_I2C1_Init,"ax",%progbits
  18              		.align	1
  19              		.global	MX_I2C1_Init
  20              		.syntax unified
  21              		.thumb
  22              		.thumb_func
  23              		.fpu fpv4-sp-d16
  25              	MX_I2C1_Init:
  26              	.LFB130:
  27              		.file 1 "Src/i2c.c"
   1:Src/i2c.c     **** /**
   2:Src/i2c.c     ****   ******************************************************************************
   3:Src/i2c.c     ****   * File Name          : I2C.c
   4:Src/i2c.c     ****   * Description        : This file provides code for the configuration
   5:Src/i2c.c     ****   *                      of the I2C instances.
   6:Src/i2c.c     ****   ******************************************************************************
   7:Src/i2c.c     ****   * @attention
   8:Src/i2c.c     ****   *
   9:Src/i2c.c     ****   * <h2><center>&copy; Copyright (c) 2019 STMicroelectronics.
  10:Src/i2c.c     ****   * All rights reserved.</center></h2>
  11:Src/i2c.c     ****   *
  12:Src/i2c.c     ****   * This software component is licensed by ST under BSD 3-Clause license,
  13:Src/i2c.c     ****   * the "License"; You may not use this file except in compliance with the
  14:Src/i2c.c     ****   * License. You may obtain a copy of the License at:
  15:Src/i2c.c     ****   *                        opensource.org/licenses/BSD-3-Clause
  16:Src/i2c.c     ****   *
  17:Src/i2c.c     ****   ******************************************************************************
  18:Src/i2c.c     ****   */
  19:Src/i2c.c     **** 
  20:Src/i2c.c     **** /* Includes ------------------------------------------------------------------*/
  21:Src/i2c.c     **** #include "i2c.h"
  22:Src/i2c.c     **** 
  23:Src/i2c.c     **** /* USER CODE BEGIN 0 */
  24:Src/i2c.c     **** 
  25:Src/i2c.c     **** /* USER CODE END 0 */
  26:Src/i2c.c     **** 
  27:Src/i2c.c     **** I2C_HandleTypeDef hi2c1;
  28:Src/i2c.c     **** DMA_HandleTypeDef hdma_i2c1_rx;
  29:Src/i2c.c     **** DMA_HandleTypeDef hdma_i2c1_tx;
  30:Src/i2c.c     **** 
  31:Src/i2c.c     **** /* I2C1 init function */
ARM GAS  C:\Users\hirot\AppData\Local\Temp\ccfASOde.s 			page 2


  32:Src/i2c.c     **** void MX_I2C1_Init(void)
  33:Src/i2c.c     **** {
  28              		.loc 1 33 0
  29              		.cfi_startproc
  30              		@ args = 0, pretend = 0, frame = 0
  31              		@ frame_needed = 0, uses_anonymous_args = 0
  32 0000 08B5     		push	{r3, lr}
  33              	.LCFI0:
  34              		.cfi_def_cfa_offset 8
  35              		.cfi_offset 3, -8
  36              		.cfi_offset 14, -4
  34:Src/i2c.c     **** 
  35:Src/i2c.c     ****   hi2c1.Instance = I2C1;
  37              		.loc 1 35 0
  38 0002 1248     		ldr	r0, .L9
  39 0004 124B     		ldr	r3, .L9+4
  40 0006 0360     		str	r3, [r0]
  36:Src/i2c.c     ****   hi2c1.Init.Timing = 0x10909CEC;
  41              		.loc 1 36 0
  42 0008 124B     		ldr	r3, .L9+8
  43 000a 4360     		str	r3, [r0, #4]
  37:Src/i2c.c     ****   hi2c1.Init.OwnAddress1 = 0;
  44              		.loc 1 37 0
  45 000c 0023     		movs	r3, #0
  46 000e 8360     		str	r3, [r0, #8]
  38:Src/i2c.c     ****   hi2c1.Init.AddressingMode = I2C_ADDRESSINGMODE_7BIT;
  47              		.loc 1 38 0
  48 0010 0122     		movs	r2, #1
  49 0012 C260     		str	r2, [r0, #12]
  39:Src/i2c.c     ****   hi2c1.Init.DualAddressMode = I2C_DUALADDRESS_DISABLE;
  50              		.loc 1 39 0
  51 0014 0361     		str	r3, [r0, #16]
  40:Src/i2c.c     ****   hi2c1.Init.OwnAddress2 = 0;
  52              		.loc 1 40 0
  53 0016 4361     		str	r3, [r0, #20]
  41:Src/i2c.c     ****   hi2c1.Init.OwnAddress2Masks = I2C_OA2_NOMASK;
  54              		.loc 1 41 0
  55 0018 8361     		str	r3, [r0, #24]
  42:Src/i2c.c     ****   hi2c1.Init.GeneralCallMode = I2C_GENERALCALL_DISABLE;
  56              		.loc 1 42 0
  57 001a C361     		str	r3, [r0, #28]
  43:Src/i2c.c     ****   hi2c1.Init.NoStretchMode = I2C_NOSTRETCH_DISABLE;
  58              		.loc 1 43 0
  59 001c 0362     		str	r3, [r0, #32]
  44:Src/i2c.c     ****   if (HAL_I2C_Init(&hi2c1) != HAL_OK)
  60              		.loc 1 44 0
  61 001e FFF7FEFF 		bl	HAL_I2C_Init
  62              	.LVL0:
  63 0022 50B9     		cbnz	r0, .L6
  64              	.L2:
  45:Src/i2c.c     ****   {
  46:Src/i2c.c     ****     Error_Handler();
  47:Src/i2c.c     ****   }
  48:Src/i2c.c     ****   /** Configure Analogue filter 
  49:Src/i2c.c     ****   */
  50:Src/i2c.c     ****   if (HAL_I2CEx_ConfigAnalogFilter(&hi2c1, I2C_ANALOGFILTER_ENABLE) != HAL_OK)
  65              		.loc 1 50 0
ARM GAS  C:\Users\hirot\AppData\Local\Temp\ccfASOde.s 			page 3


  66 0024 0021     		movs	r1, #0
  67 0026 0948     		ldr	r0, .L9
  68 0028 FFF7FEFF 		bl	HAL_I2CEx_ConfigAnalogFilter
  69              	.LVL1:
  70 002c 40B9     		cbnz	r0, .L7
  71              	.L3:
  51:Src/i2c.c     ****   {
  52:Src/i2c.c     ****     Error_Handler();
  53:Src/i2c.c     ****   }
  54:Src/i2c.c     ****   /** Configure Digital filter 
  55:Src/i2c.c     ****   */
  56:Src/i2c.c     ****   if (HAL_I2CEx_ConfigDigitalFilter(&hi2c1, 0) != HAL_OK)
  72              		.loc 1 56 0
  73 002e 0021     		movs	r1, #0
  74 0030 0648     		ldr	r0, .L9
  75 0032 FFF7FEFF 		bl	HAL_I2CEx_ConfigDigitalFilter
  76              	.LVL2:
  77 0036 30B9     		cbnz	r0, .L8
  78              	.L1:
  79 0038 08BD     		pop	{r3, pc}
  80              	.L6:
  46:Src/i2c.c     ****   }
  81              		.loc 1 46 0
  82 003a FFF7FEFF 		bl	Error_Handler
  83              	.LVL3:
  84 003e F1E7     		b	.L2
  85              	.L7:
  52:Src/i2c.c     ****   }
  86              		.loc 1 52 0
  87 0040 FFF7FEFF 		bl	Error_Handler
  88              	.LVL4:
  89 0044 F3E7     		b	.L3
  90              	.L8:
  57:Src/i2c.c     ****   {
  58:Src/i2c.c     ****     Error_Handler();
  91              		.loc 1 58 0
  92 0046 FFF7FEFF 		bl	Error_Handler
  93              	.LVL5:
  59:Src/i2c.c     ****   }
  60:Src/i2c.c     **** 
  61:Src/i2c.c     **** }
  94              		.loc 1 61 0
  95 004a F5E7     		b	.L1
  96              	.L10:
  97              		.align	2
  98              	.L9:
  99 004c 00000000 		.word	hi2c1
 100 0050 00540040 		.word	1073763328
 101 0054 EC9C9010 		.word	277912812
 102              		.cfi_endproc
 103              	.LFE130:
 105              		.section	.text.HAL_I2C_MspInit,"ax",%progbits
 106              		.align	1
 107              		.global	HAL_I2C_MspInit
 108              		.syntax unified
 109              		.thumb
 110              		.thumb_func
ARM GAS  C:\Users\hirot\AppData\Local\Temp\ccfASOde.s 			page 4


 111              		.fpu fpv4-sp-d16
 113              	HAL_I2C_MspInit:
 114              	.LFB131:
  62:Src/i2c.c     **** 
  63:Src/i2c.c     **** void HAL_I2C_MspInit(I2C_HandleTypeDef* i2cHandle)
  64:Src/i2c.c     **** {
 115              		.loc 1 64 0
 116              		.cfi_startproc
 117              		@ args = 0, pretend = 0, frame = 32
 118              		@ frame_needed = 0, uses_anonymous_args = 0
 119              	.LVL6:
 120 0000 70B5     		push	{r4, r5, r6, lr}
 121              	.LCFI1:
 122              		.cfi_def_cfa_offset 16
 123              		.cfi_offset 4, -16
 124              		.cfi_offset 5, -12
 125              		.cfi_offset 6, -8
 126              		.cfi_offset 14, -4
 127 0002 88B0     		sub	sp, sp, #32
 128              	.LCFI2:
 129              		.cfi_def_cfa_offset 48
  65:Src/i2c.c     **** 
  66:Src/i2c.c     ****   GPIO_InitTypeDef GPIO_InitStruct = {0};
 130              		.loc 1 66 0
 131 0004 0023     		movs	r3, #0
 132 0006 0393     		str	r3, [sp, #12]
 133 0008 0493     		str	r3, [sp, #16]
 134 000a 0593     		str	r3, [sp, #20]
 135 000c 0693     		str	r3, [sp, #24]
 136 000e 0793     		str	r3, [sp, #28]
  67:Src/i2c.c     ****   if(i2cHandle->Instance==I2C1)
 137              		.loc 1 67 0
 138 0010 0268     		ldr	r2, [r0]
 139 0012 2F4B     		ldr	r3, .L19
 140 0014 9A42     		cmp	r2, r3
 141 0016 01D0     		beq	.L16
 142              	.LVL7:
 143              	.L11:
  68:Src/i2c.c     ****   {
  69:Src/i2c.c     ****   /* USER CODE BEGIN I2C1_MspInit 0 */
  70:Src/i2c.c     **** 
  71:Src/i2c.c     ****   /* USER CODE END I2C1_MspInit 0 */
  72:Src/i2c.c     ****   
  73:Src/i2c.c     ****     __HAL_RCC_GPIOB_CLK_ENABLE();
  74:Src/i2c.c     ****     /**I2C1 GPIO Configuration    
  75:Src/i2c.c     ****     PB6     ------> I2C1_SCL
  76:Src/i2c.c     ****     PB7     ------> I2C1_SDA 
  77:Src/i2c.c     ****     */
  78:Src/i2c.c     ****     GPIO_InitStruct.Pin = GPIO_PIN_6|GPIO_PIN_7;
  79:Src/i2c.c     ****     GPIO_InitStruct.Mode = GPIO_MODE_AF_OD;
  80:Src/i2c.c     ****     GPIO_InitStruct.Pull = GPIO_PULLUP;
  81:Src/i2c.c     ****     GPIO_InitStruct.Speed = GPIO_SPEED_FREQ_VERY_HIGH;
  82:Src/i2c.c     ****     GPIO_InitStruct.Alternate = GPIO_AF4_I2C1;
  83:Src/i2c.c     ****     HAL_GPIO_Init(GPIOB, &GPIO_InitStruct);
  84:Src/i2c.c     **** 
  85:Src/i2c.c     ****     /* I2C1 clock enable */
  86:Src/i2c.c     ****     __HAL_RCC_I2C1_CLK_ENABLE();
ARM GAS  C:\Users\hirot\AppData\Local\Temp\ccfASOde.s 			page 5


  87:Src/i2c.c     ****   
  88:Src/i2c.c     ****     /* I2C1 DMA Init */
  89:Src/i2c.c     ****     /* I2C1_RX Init */
  90:Src/i2c.c     ****     hdma_i2c1_rx.Instance = DMA1_Channel7;
  91:Src/i2c.c     ****     hdma_i2c1_rx.Init.Request = DMA_REQUEST_3;
  92:Src/i2c.c     ****     hdma_i2c1_rx.Init.Direction = DMA_PERIPH_TO_MEMORY;
  93:Src/i2c.c     ****     hdma_i2c1_rx.Init.PeriphInc = DMA_PINC_DISABLE;
  94:Src/i2c.c     ****     hdma_i2c1_rx.Init.MemInc = DMA_MINC_ENABLE;
  95:Src/i2c.c     ****     hdma_i2c1_rx.Init.PeriphDataAlignment = DMA_PDATAALIGN_BYTE;
  96:Src/i2c.c     ****     hdma_i2c1_rx.Init.MemDataAlignment = DMA_MDATAALIGN_BYTE;
  97:Src/i2c.c     ****     hdma_i2c1_rx.Init.Mode = DMA_NORMAL;
  98:Src/i2c.c     ****     hdma_i2c1_rx.Init.Priority = DMA_PRIORITY_LOW;
  99:Src/i2c.c     ****     if (HAL_DMA_Init(&hdma_i2c1_rx) != HAL_OK)
 100:Src/i2c.c     ****     {
 101:Src/i2c.c     ****       Error_Handler();
 102:Src/i2c.c     ****     }
 103:Src/i2c.c     **** 
 104:Src/i2c.c     ****     __HAL_LINKDMA(i2cHandle,hdmarx,hdma_i2c1_rx);
 105:Src/i2c.c     **** 
 106:Src/i2c.c     ****     /* I2C1_TX Init */
 107:Src/i2c.c     ****     hdma_i2c1_tx.Instance = DMA1_Channel6;
 108:Src/i2c.c     ****     hdma_i2c1_tx.Init.Request = DMA_REQUEST_3;
 109:Src/i2c.c     ****     hdma_i2c1_tx.Init.Direction = DMA_MEMORY_TO_PERIPH;
 110:Src/i2c.c     ****     hdma_i2c1_tx.Init.PeriphInc = DMA_PINC_DISABLE;
 111:Src/i2c.c     ****     hdma_i2c1_tx.Init.MemInc = DMA_MINC_ENABLE;
 112:Src/i2c.c     ****     hdma_i2c1_tx.Init.PeriphDataAlignment = DMA_PDATAALIGN_BYTE;
 113:Src/i2c.c     ****     hdma_i2c1_tx.Init.MemDataAlignment = DMA_MDATAALIGN_BYTE;
 114:Src/i2c.c     ****     hdma_i2c1_tx.Init.Mode = DMA_NORMAL;
 115:Src/i2c.c     ****     hdma_i2c1_tx.Init.Priority = DMA_PRIORITY_LOW;
 116:Src/i2c.c     ****     if (HAL_DMA_Init(&hdma_i2c1_tx) != HAL_OK)
 117:Src/i2c.c     ****     {
 118:Src/i2c.c     ****       Error_Handler();
 119:Src/i2c.c     ****     }
 120:Src/i2c.c     **** 
 121:Src/i2c.c     ****     __HAL_LINKDMA(i2cHandle,hdmatx,hdma_i2c1_tx);
 122:Src/i2c.c     **** 
 123:Src/i2c.c     ****     /* I2C1 interrupt Init */
 124:Src/i2c.c     ****     HAL_NVIC_SetPriority(I2C1_EV_IRQn, 0, 0);
 125:Src/i2c.c     ****     HAL_NVIC_EnableIRQ(I2C1_EV_IRQn);
 126:Src/i2c.c     ****   /* USER CODE BEGIN I2C1_MspInit 1 */
 127:Src/i2c.c     **** 
 128:Src/i2c.c     ****   /* USER CODE END I2C1_MspInit 1 */
 129:Src/i2c.c     ****   }
 130:Src/i2c.c     **** }
 144              		.loc 1 130 0
 145 0018 08B0     		add	sp, sp, #32
 146              	.LCFI3:
 147              		.cfi_remember_state
 148              		.cfi_def_cfa_offset 16
 149              		@ sp needed
 150 001a 70BD     		pop	{r4, r5, r6, pc}
 151              	.LVL8:
 152              	.L16:
 153              	.LCFI4:
 154              		.cfi_restore_state
 155 001c 0446     		mov	r4, r0
 156              	.LBB2:
ARM GAS  C:\Users\hirot\AppData\Local\Temp\ccfASOde.s 			page 6


  73:Src/i2c.c     ****     /**I2C1 GPIO Configuration    
 157              		.loc 1 73 0
 158 001e 2D4D     		ldr	r5, .L19+4
 159 0020 EB6C     		ldr	r3, [r5, #76]
 160 0022 43F00203 		orr	r3, r3, #2
 161 0026 EB64     		str	r3, [r5, #76]
 162 0028 EB6C     		ldr	r3, [r5, #76]
 163 002a 03F00203 		and	r3, r3, #2
 164 002e 0193     		str	r3, [sp, #4]
 165 0030 019B     		ldr	r3, [sp, #4]
 166              	.LBE2:
  78:Src/i2c.c     ****     GPIO_InitStruct.Mode = GPIO_MODE_AF_OD;
 167              		.loc 1 78 0
 168 0032 C023     		movs	r3, #192
 169 0034 0393     		str	r3, [sp, #12]
  79:Src/i2c.c     ****     GPIO_InitStruct.Pull = GPIO_PULLUP;
 170              		.loc 1 79 0
 171 0036 1223     		movs	r3, #18
 172 0038 0493     		str	r3, [sp, #16]
  80:Src/i2c.c     ****     GPIO_InitStruct.Speed = GPIO_SPEED_FREQ_VERY_HIGH;
 173              		.loc 1 80 0
 174 003a 0123     		movs	r3, #1
 175 003c 0593     		str	r3, [sp, #20]
  81:Src/i2c.c     ****     GPIO_InitStruct.Alternate = GPIO_AF4_I2C1;
 176              		.loc 1 81 0
 177 003e 0326     		movs	r6, #3
 178 0040 0696     		str	r6, [sp, #24]
  82:Src/i2c.c     ****     HAL_GPIO_Init(GPIOB, &GPIO_InitStruct);
 179              		.loc 1 82 0
 180 0042 0423     		movs	r3, #4
 181 0044 0793     		str	r3, [sp, #28]
  83:Src/i2c.c     **** 
 182              		.loc 1 83 0
 183 0046 03A9     		add	r1, sp, #12
 184 0048 2348     		ldr	r0, .L19+8
 185              	.LVL9:
 186 004a FFF7FEFF 		bl	HAL_GPIO_Init
 187              	.LVL10:
 188              	.LBB3:
  86:Src/i2c.c     ****   
 189              		.loc 1 86 0
 190 004e AB6D     		ldr	r3, [r5, #88]
 191 0050 43F40013 		orr	r3, r3, #2097152
 192 0054 AB65     		str	r3, [r5, #88]
 193 0056 AB6D     		ldr	r3, [r5, #88]
 194 0058 03F40013 		and	r3, r3, #2097152
 195 005c 0293     		str	r3, [sp, #8]
 196 005e 029B     		ldr	r3, [sp, #8]
 197              	.LBE3:
  90:Src/i2c.c     ****     hdma_i2c1_rx.Init.Request = DMA_REQUEST_3;
 198              		.loc 1 90 0
 199 0060 1E48     		ldr	r0, .L19+12
 200 0062 1F4B     		ldr	r3, .L19+16
 201 0064 0360     		str	r3, [r0]
  91:Src/i2c.c     ****     hdma_i2c1_rx.Init.Direction = DMA_PERIPH_TO_MEMORY;
 202              		.loc 1 91 0
 203 0066 4660     		str	r6, [r0, #4]
ARM GAS  C:\Users\hirot\AppData\Local\Temp\ccfASOde.s 			page 7


  92:Src/i2c.c     ****     hdma_i2c1_rx.Init.PeriphInc = DMA_PINC_DISABLE;
 204              		.loc 1 92 0
 205 0068 0023     		movs	r3, #0
 206 006a 8360     		str	r3, [r0, #8]
  93:Src/i2c.c     ****     hdma_i2c1_rx.Init.MemInc = DMA_MINC_ENABLE;
 207              		.loc 1 93 0
 208 006c C360     		str	r3, [r0, #12]
  94:Src/i2c.c     ****     hdma_i2c1_rx.Init.PeriphDataAlignment = DMA_PDATAALIGN_BYTE;
 209              		.loc 1 94 0
 210 006e 8022     		movs	r2, #128
 211 0070 0261     		str	r2, [r0, #16]
  95:Src/i2c.c     ****     hdma_i2c1_rx.Init.MemDataAlignment = DMA_MDATAALIGN_BYTE;
 212              		.loc 1 95 0
 213 0072 4361     		str	r3, [r0, #20]
  96:Src/i2c.c     ****     hdma_i2c1_rx.Init.Mode = DMA_NORMAL;
 214              		.loc 1 96 0
 215 0074 8361     		str	r3, [r0, #24]
  97:Src/i2c.c     ****     hdma_i2c1_rx.Init.Priority = DMA_PRIORITY_LOW;
 216              		.loc 1 97 0
 217 0076 C361     		str	r3, [r0, #28]
  98:Src/i2c.c     ****     if (HAL_DMA_Init(&hdma_i2c1_rx) != HAL_OK)
 218              		.loc 1 98 0
 219 0078 0362     		str	r3, [r0, #32]
  99:Src/i2c.c     ****     {
 220              		.loc 1 99 0
 221 007a FFF7FEFF 		bl	HAL_DMA_Init
 222              	.LVL11:
 223 007e 00BB     		cbnz	r0, .L17
 224              	.L13:
 104:Src/i2c.c     **** 
 225              		.loc 1 104 0
 226 0080 164B     		ldr	r3, .L19+12
 227 0082 E363     		str	r3, [r4, #60]
 228 0084 9C62     		str	r4, [r3, #40]
 107:Src/i2c.c     ****     hdma_i2c1_tx.Init.Request = DMA_REQUEST_3;
 229              		.loc 1 107 0
 230 0086 1748     		ldr	r0, .L19+20
 231 0088 174B     		ldr	r3, .L19+24
 232 008a 0360     		str	r3, [r0]
 108:Src/i2c.c     ****     hdma_i2c1_tx.Init.Direction = DMA_MEMORY_TO_PERIPH;
 233              		.loc 1 108 0
 234 008c 0323     		movs	r3, #3
 235 008e 4360     		str	r3, [r0, #4]
 109:Src/i2c.c     ****     hdma_i2c1_tx.Init.PeriphInc = DMA_PINC_DISABLE;
 236              		.loc 1 109 0
 237 0090 1023     		movs	r3, #16
 238 0092 8360     		str	r3, [r0, #8]
 110:Src/i2c.c     ****     hdma_i2c1_tx.Init.MemInc = DMA_MINC_ENABLE;
 239              		.loc 1 110 0
 240 0094 0023     		movs	r3, #0
 241 0096 C360     		str	r3, [r0, #12]
 111:Src/i2c.c     ****     hdma_i2c1_tx.Init.PeriphDataAlignment = DMA_PDATAALIGN_BYTE;
 242              		.loc 1 111 0
 243 0098 8022     		movs	r2, #128
 244 009a 0261     		str	r2, [r0, #16]
 112:Src/i2c.c     ****     hdma_i2c1_tx.Init.MemDataAlignment = DMA_MDATAALIGN_BYTE;
 245              		.loc 1 112 0
ARM GAS  C:\Users\hirot\AppData\Local\Temp\ccfASOde.s 			page 8


 246 009c 4361     		str	r3, [r0, #20]
 113:Src/i2c.c     ****     hdma_i2c1_tx.Init.Mode = DMA_NORMAL;
 247              		.loc 1 113 0
 248 009e 8361     		str	r3, [r0, #24]
 114:Src/i2c.c     ****     hdma_i2c1_tx.Init.Priority = DMA_PRIORITY_LOW;
 249              		.loc 1 114 0
 250 00a0 C361     		str	r3, [r0, #28]
 115:Src/i2c.c     ****     if (HAL_DMA_Init(&hdma_i2c1_tx) != HAL_OK)
 251              		.loc 1 115 0
 252 00a2 0362     		str	r3, [r0, #32]
 116:Src/i2c.c     ****     {
 253              		.loc 1 116 0
 254 00a4 FFF7FEFF 		bl	HAL_DMA_Init
 255              	.LVL12:
 256 00a8 70B9     		cbnz	r0, .L18
 257              	.L14:
 121:Src/i2c.c     **** 
 258              		.loc 1 121 0
 259 00aa 0E4B     		ldr	r3, .L19+20
 260 00ac A363     		str	r3, [r4, #56]
 261 00ae 9C62     		str	r4, [r3, #40]
 124:Src/i2c.c     ****     HAL_NVIC_EnableIRQ(I2C1_EV_IRQn);
 262              		.loc 1 124 0
 263 00b0 0022     		movs	r2, #0
 264 00b2 1146     		mov	r1, r2
 265 00b4 1F20     		movs	r0, #31
 266 00b6 FFF7FEFF 		bl	HAL_NVIC_SetPriority
 267              	.LVL13:
 125:Src/i2c.c     ****   /* USER CODE BEGIN I2C1_MspInit 1 */
 268              		.loc 1 125 0
 269 00ba 1F20     		movs	r0, #31
 270 00bc FFF7FEFF 		bl	HAL_NVIC_EnableIRQ
 271              	.LVL14:
 272              		.loc 1 130 0
 273 00c0 AAE7     		b	.L11
 274              	.L17:
 101:Src/i2c.c     ****     }
 275              		.loc 1 101 0
 276 00c2 FFF7FEFF 		bl	Error_Handler
 277              	.LVL15:
 278 00c6 DBE7     		b	.L13
 279              	.L18:
 118:Src/i2c.c     ****     }
 280              		.loc 1 118 0
 281 00c8 FFF7FEFF 		bl	Error_Handler
 282              	.LVL16:
 283 00cc EDE7     		b	.L14
 284              	.L20:
 285 00ce 00BF     		.align	2
 286              	.L19:
 287 00d0 00540040 		.word	1073763328
 288 00d4 00100240 		.word	1073876992
 289 00d8 00040048 		.word	1207960576
 290 00dc 00000000 		.word	hdma_i2c1_rx
 291 00e0 80000240 		.word	1073873024
 292 00e4 00000000 		.word	hdma_i2c1_tx
 293 00e8 6C000240 		.word	1073873004
ARM GAS  C:\Users\hirot\AppData\Local\Temp\ccfASOde.s 			page 9


 294              		.cfi_endproc
 295              	.LFE131:
 297              		.section	.text.HAL_I2C_MspDeInit,"ax",%progbits
 298              		.align	1
 299              		.global	HAL_I2C_MspDeInit
 300              		.syntax unified
 301              		.thumb
 302              		.thumb_func
 303              		.fpu fpv4-sp-d16
 305              	HAL_I2C_MspDeInit:
 306              	.LFB132:
 131:Src/i2c.c     **** 
 132:Src/i2c.c     **** void HAL_I2C_MspDeInit(I2C_HandleTypeDef* i2cHandle)
 133:Src/i2c.c     **** {
 307              		.loc 1 133 0
 308              		.cfi_startproc
 309              		@ args = 0, pretend = 0, frame = 0
 310              		@ frame_needed = 0, uses_anonymous_args = 0
 311              	.LVL17:
 134:Src/i2c.c     **** 
 135:Src/i2c.c     ****   if(i2cHandle->Instance==I2C1)
 312              		.loc 1 135 0
 313 0000 0268     		ldr	r2, [r0]
 314 0002 0C4B     		ldr	r3, .L28
 315 0004 9A42     		cmp	r2, r3
 316 0006 00D0     		beq	.L27
 317 0008 7047     		bx	lr
 318              	.L27:
 133:Src/i2c.c     **** 
 319              		.loc 1 133 0
 320 000a 10B5     		push	{r4, lr}
 321              	.LCFI5:
 322              		.cfi_def_cfa_offset 8
 323              		.cfi_offset 4, -8
 324              		.cfi_offset 14, -4
 325 000c 0446     		mov	r4, r0
 136:Src/i2c.c     ****   {
 137:Src/i2c.c     ****   /* USER CODE BEGIN I2C1_MspDeInit 0 */
 138:Src/i2c.c     **** 
 139:Src/i2c.c     ****   /* USER CODE END I2C1_MspDeInit 0 */
 140:Src/i2c.c     ****     /* Peripheral clock disable */
 141:Src/i2c.c     ****     __HAL_RCC_I2C1_CLK_DISABLE();
 326              		.loc 1 141 0
 327 000e 0A4A     		ldr	r2, .L28+4
 328 0010 936D     		ldr	r3, [r2, #88]
 329 0012 23F40013 		bic	r3, r3, #2097152
 330 0016 9365     		str	r3, [r2, #88]
 142:Src/i2c.c     ****   
 143:Src/i2c.c     ****     /**I2C1 GPIO Configuration    
 144:Src/i2c.c     ****     PB6     ------> I2C1_SCL
 145:Src/i2c.c     ****     PB7     ------> I2C1_SDA 
 146:Src/i2c.c     ****     */
 147:Src/i2c.c     ****     HAL_GPIO_DeInit(GPIOB, GPIO_PIN_6|GPIO_PIN_7);
 331              		.loc 1 147 0
 332 0018 C021     		movs	r1, #192
 333 001a 0848     		ldr	r0, .L28+8
 334              	.LVL18:
ARM GAS  C:\Users\hirot\AppData\Local\Temp\ccfASOde.s 			page 10


 335 001c FFF7FEFF 		bl	HAL_GPIO_DeInit
 336              	.LVL19:
 148:Src/i2c.c     **** 
 149:Src/i2c.c     ****     /* I2C1 DMA DeInit */
 150:Src/i2c.c     ****     HAL_DMA_DeInit(i2cHandle->hdmarx);
 337              		.loc 1 150 0
 338 0020 E06B     		ldr	r0, [r4, #60]
 339 0022 FFF7FEFF 		bl	HAL_DMA_DeInit
 340              	.LVL20:
 151:Src/i2c.c     ****     HAL_DMA_DeInit(i2cHandle->hdmatx);
 341              		.loc 1 151 0
 342 0026 A06B     		ldr	r0, [r4, #56]
 343 0028 FFF7FEFF 		bl	HAL_DMA_DeInit
 344              	.LVL21:
 152:Src/i2c.c     **** 
 153:Src/i2c.c     ****     /* I2C1 interrupt Deinit */
 154:Src/i2c.c     ****     HAL_NVIC_DisableIRQ(I2C1_EV_IRQn);
 345              		.loc 1 154 0
 346 002c 1F20     		movs	r0, #31
 347 002e FFF7FEFF 		bl	HAL_NVIC_DisableIRQ
 348              	.LVL22:
 349 0032 10BD     		pop	{r4, pc}
 350              	.LVL23:
 351              	.L29:
 352              		.align	2
 353              	.L28:
 354 0034 00540040 		.word	1073763328
 355 0038 00100240 		.word	1073876992
 356 003c 00040048 		.word	1207960576
 357              		.cfi_endproc
 358              	.LFE132:
 360              		.comm	hdma_i2c1_tx,72,4
 361              		.comm	hdma_i2c1_rx,72,4
 362              		.comm	hi2c1,76,4
 363              		.text
 364              	.Letext0:
 365              		.file 2 "c:\\program files (x86)\\gnu tools arm embedded\\6.2 2016q4\\arm-none-eabi\\include\\mach
 366              		.file 3 "c:\\program files (x86)\\gnu tools arm embedded\\6.2 2016q4\\arm-none-eabi\\include\\sys\
 367              		.file 4 "Drivers/CMSIS/Include/core_cm4.h"
 368              		.file 5 "Drivers/CMSIS/Device/ST/STM32L4xx/Include/system_stm32l4xx.h"
 369              		.file 6 "Drivers/CMSIS/Device/ST/STM32L4xx/Include/stm32l476xx.h"
 370              		.file 7 "Drivers/STM32L4xx_HAL_Driver/Inc/stm32l4xx_hal_def.h"
 371              		.file 8 "Drivers/STM32L4xx_HAL_Driver/Inc/stm32l4xx_hal_gpio.h"
 372              		.file 9 "Drivers/STM32L4xx_HAL_Driver/Inc/stm32l4xx_hal_dma.h"
 373              		.file 10 "Drivers/STM32L4xx_HAL_Driver/Inc/stm32l4xx_hal_flash.h"
 374              		.file 11 "Drivers/STM32L4xx_HAL_Driver/Inc/stm32l4xx_hal_i2c.h"
 375              		.file 12 "Drivers/STM32L4xx_HAL_Driver/Inc/stm32l4xx_hal.h"
 376              		.file 13 "Inc/i2c.h"
 377              		.file 14 "Drivers/STM32L4xx_HAL_Driver/Inc/stm32l4xx_hal_cortex.h"
 378              		.file 15 "Inc/main.h"
 379              		.file 16 "Drivers/STM32L4xx_HAL_Driver/Inc/stm32l4xx_hal_i2c_ex.h"
ARM GAS  C:\Users\hirot\AppData\Local\Temp\ccfASOde.s 			page 11


DEFINED SYMBOLS
                            *ABS*:00000000 i2c.c
C:\Users\hirot\AppData\Local\Temp\ccfASOde.s:18     .text.MX_I2C1_Init:00000000 $t
C:\Users\hirot\AppData\Local\Temp\ccfASOde.s:25     .text.MX_I2C1_Init:00000000 MX_I2C1_Init
C:\Users\hirot\AppData\Local\Temp\ccfASOde.s:99     .text.MX_I2C1_Init:0000004c $d
                            *COM*:0000004c hi2c1
C:\Users\hirot\AppData\Local\Temp\ccfASOde.s:106    .text.HAL_I2C_MspInit:00000000 $t
C:\Users\hirot\AppData\Local\Temp\ccfASOde.s:113    .text.HAL_I2C_MspInit:00000000 HAL_I2C_MspInit
C:\Users\hirot\AppData\Local\Temp\ccfASOde.s:287    .text.HAL_I2C_MspInit:000000d0 $d
                            *COM*:00000048 hdma_i2c1_rx
                            *COM*:00000048 hdma_i2c1_tx
C:\Users\hirot\AppData\Local\Temp\ccfASOde.s:298    .text.HAL_I2C_MspDeInit:00000000 $t
C:\Users\hirot\AppData\Local\Temp\ccfASOde.s:305    .text.HAL_I2C_MspDeInit:00000000 HAL_I2C_MspDeInit
C:\Users\hirot\AppData\Local\Temp\ccfASOde.s:354    .text.HAL_I2C_MspDeInit:00000034 $d
                     .debug_frame:00000010 $d

UNDEFINED SYMBOLS
HAL_I2C_Init
HAL_I2CEx_ConfigAnalogFilter
HAL_I2CEx_ConfigDigitalFilter
Error_Handler
HAL_GPIO_Init
HAL_DMA_Init
HAL_NVIC_SetPriority
HAL_NVIC_EnableIRQ
HAL_GPIO_DeInit
HAL_DMA_DeInit
HAL_NVIC_DisableIRQ
