ARM GAS  C:\Users\hirot\AppData\Local\Temp\ccqjrqzk.s 			page 1


   1              		.cpu cortex-m4
   2              		.eabi_attribute 27, 1
   3              		.eabi_attribute 28, 1
   4              		.eabi_attribute 20, 1
   5              		.eabi_attribute 21, 1
   6              		.eabi_attribute 23, 3
   7              		.eabi_attribute 24, 1
   8              		.eabi_attribute 25, 1
   9              		.eabi_attribute 26, 1
  10              		.eabi_attribute 30, 1
  11              		.eabi_attribute 34, 1
  12              		.eabi_attribute 18, 4
  13              		.file	"stm32l4xx_hal_flash.c"
  14              		.text
  15              	.Ltext0:
  16              		.cfi_sections	.debug_frame
  17              		.section	.text.FLASH_Program_DoubleWord,"ax",%progbits
  18              		.align	1
  19              		.syntax unified
  20              		.thumb
  21              		.thumb_func
  22              		.fpu fpv4-sp-d16
  24              	FLASH_Program_DoubleWord:
  25              	.LFB142:
  26              		.file 1 "Drivers/STM32L4xx_HAL_Driver/Src/stm32l4xx_hal_flash.c"
   1:Drivers/STM32L4xx_HAL_Driver/Src/stm32l4xx_hal_flash.c **** /**
   2:Drivers/STM32L4xx_HAL_Driver/Src/stm32l4xx_hal_flash.c ****   ******************************************************************************
   3:Drivers/STM32L4xx_HAL_Driver/Src/stm32l4xx_hal_flash.c ****   * @file    stm32l4xx_hal_flash.c
   4:Drivers/STM32L4xx_HAL_Driver/Src/stm32l4xx_hal_flash.c ****   * @author  MCD Application Team
   5:Drivers/STM32L4xx_HAL_Driver/Src/stm32l4xx_hal_flash.c ****   * @brief   FLASH HAL module driver.
   6:Drivers/STM32L4xx_HAL_Driver/Src/stm32l4xx_hal_flash.c ****   *          This file provides firmware functions to manage the following
   7:Drivers/STM32L4xx_HAL_Driver/Src/stm32l4xx_hal_flash.c ****   *          functionalities of the internal FLASH memory:
   8:Drivers/STM32L4xx_HAL_Driver/Src/stm32l4xx_hal_flash.c ****   *           + Program operations functions
   9:Drivers/STM32L4xx_HAL_Driver/Src/stm32l4xx_hal_flash.c ****   *           + Memory Control functions
  10:Drivers/STM32L4xx_HAL_Driver/Src/stm32l4xx_hal_flash.c ****   *           + Peripheral Errors functions
  11:Drivers/STM32L4xx_HAL_Driver/Src/stm32l4xx_hal_flash.c ****   *
  12:Drivers/STM32L4xx_HAL_Driver/Src/stm32l4xx_hal_flash.c ****  @verbatim
  13:Drivers/STM32L4xx_HAL_Driver/Src/stm32l4xx_hal_flash.c ****   ==============================================================================
  14:Drivers/STM32L4xx_HAL_Driver/Src/stm32l4xx_hal_flash.c ****                         ##### FLASH peripheral features #####
  15:Drivers/STM32L4xx_HAL_Driver/Src/stm32l4xx_hal_flash.c ****   ==============================================================================
  16:Drivers/STM32L4xx_HAL_Driver/Src/stm32l4xx_hal_flash.c **** 
  17:Drivers/STM32L4xx_HAL_Driver/Src/stm32l4xx_hal_flash.c ****   [..] The Flash memory interface manages CPU AHB I-Code and D-Code accesses
  18:Drivers/STM32L4xx_HAL_Driver/Src/stm32l4xx_hal_flash.c ****        to the Flash memory. It implements the erase and program Flash memory operations
  19:Drivers/STM32L4xx_HAL_Driver/Src/stm32l4xx_hal_flash.c ****        and the read and write protection mechanisms.
  20:Drivers/STM32L4xx_HAL_Driver/Src/stm32l4xx_hal_flash.c **** 
  21:Drivers/STM32L4xx_HAL_Driver/Src/stm32l4xx_hal_flash.c ****   [..] The Flash memory interface accelerates code execution with a system of instruction
  22:Drivers/STM32L4xx_HAL_Driver/Src/stm32l4xx_hal_flash.c ****        prefetch and cache lines.
  23:Drivers/STM32L4xx_HAL_Driver/Src/stm32l4xx_hal_flash.c **** 
  24:Drivers/STM32L4xx_HAL_Driver/Src/stm32l4xx_hal_flash.c ****   [..] The FLASH main features are:
  25:Drivers/STM32L4xx_HAL_Driver/Src/stm32l4xx_hal_flash.c ****       (+) Flash memory read operations
  26:Drivers/STM32L4xx_HAL_Driver/Src/stm32l4xx_hal_flash.c ****       (+) Flash memory program/erase operations
  27:Drivers/STM32L4xx_HAL_Driver/Src/stm32l4xx_hal_flash.c ****       (+) Read / write protections
  28:Drivers/STM32L4xx_HAL_Driver/Src/stm32l4xx_hal_flash.c ****       (+) Option bytes programming
  29:Drivers/STM32L4xx_HAL_Driver/Src/stm32l4xx_hal_flash.c ****       (+) Prefetch on I-Code
  30:Drivers/STM32L4xx_HAL_Driver/Src/stm32l4xx_hal_flash.c ****       (+) 32 cache lines of 4*64 bits on I-Code
  31:Drivers/STM32L4xx_HAL_Driver/Src/stm32l4xx_hal_flash.c ****       (+) 8 cache lines of 4*64 bits on D-Code
  32:Drivers/STM32L4xx_HAL_Driver/Src/stm32l4xx_hal_flash.c ****       (+) Error code correction (ECC) : Data in flash are 72-bits word
ARM GAS  C:\Users\hirot\AppData\Local\Temp\ccqjrqzk.s 			page 2


  33:Drivers/STM32L4xx_HAL_Driver/Src/stm32l4xx_hal_flash.c ****           (8 bits added per double word)
  34:Drivers/STM32L4xx_HAL_Driver/Src/stm32l4xx_hal_flash.c **** 
  35:Drivers/STM32L4xx_HAL_Driver/Src/stm32l4xx_hal_flash.c **** 
  36:Drivers/STM32L4xx_HAL_Driver/Src/stm32l4xx_hal_flash.c ****                         ##### How to use this driver #####
  37:Drivers/STM32L4xx_HAL_Driver/Src/stm32l4xx_hal_flash.c ****  ==============================================================================
  38:Drivers/STM32L4xx_HAL_Driver/Src/stm32l4xx_hal_flash.c ****     [..]
  39:Drivers/STM32L4xx_HAL_Driver/Src/stm32l4xx_hal_flash.c ****       This driver provides functions and macros to configure and program the FLASH
  40:Drivers/STM32L4xx_HAL_Driver/Src/stm32l4xx_hal_flash.c ****       memory of all STM32L4xx devices.
  41:Drivers/STM32L4xx_HAL_Driver/Src/stm32l4xx_hal_flash.c **** 
  42:Drivers/STM32L4xx_HAL_Driver/Src/stm32l4xx_hal_flash.c ****       (#) Flash Memory IO Programming functions:
  43:Drivers/STM32L4xx_HAL_Driver/Src/stm32l4xx_hal_flash.c ****            (++) Lock and Unlock the FLASH interface using HAL_FLASH_Unlock() and
  44:Drivers/STM32L4xx_HAL_Driver/Src/stm32l4xx_hal_flash.c ****                 HAL_FLASH_Lock() functions
  45:Drivers/STM32L4xx_HAL_Driver/Src/stm32l4xx_hal_flash.c ****            (++) Program functions: double word and fast program (full row programming)
  46:Drivers/STM32L4xx_HAL_Driver/Src/stm32l4xx_hal_flash.c ****            (++) There Two modes of programming :
  47:Drivers/STM32L4xx_HAL_Driver/Src/stm32l4xx_hal_flash.c ****             (+++) Polling mode using HAL_FLASH_Program() function
  48:Drivers/STM32L4xx_HAL_Driver/Src/stm32l4xx_hal_flash.c ****             (+++) Interrupt mode using HAL_FLASH_Program_IT() function
  49:Drivers/STM32L4xx_HAL_Driver/Src/stm32l4xx_hal_flash.c **** 
  50:Drivers/STM32L4xx_HAL_Driver/Src/stm32l4xx_hal_flash.c ****       (#) Interrupts and flags management functions :
  51:Drivers/STM32L4xx_HAL_Driver/Src/stm32l4xx_hal_flash.c ****            (++) Handle FLASH interrupts by calling HAL_FLASH_IRQHandler()
  52:Drivers/STM32L4xx_HAL_Driver/Src/stm32l4xx_hal_flash.c ****            (++) Callback functions are called when the flash operations are finished :
  53:Drivers/STM32L4xx_HAL_Driver/Src/stm32l4xx_hal_flash.c ****                 HAL_FLASH_EndOfOperationCallback() when everything is ok, otherwise
  54:Drivers/STM32L4xx_HAL_Driver/Src/stm32l4xx_hal_flash.c ****                 HAL_FLASH_OperationErrorCallback()
  55:Drivers/STM32L4xx_HAL_Driver/Src/stm32l4xx_hal_flash.c ****            (++) Get error flag status by calling HAL_GetError()
  56:Drivers/STM32L4xx_HAL_Driver/Src/stm32l4xx_hal_flash.c **** 
  57:Drivers/STM32L4xx_HAL_Driver/Src/stm32l4xx_hal_flash.c ****       (#) Option bytes management functions :
  58:Drivers/STM32L4xx_HAL_Driver/Src/stm32l4xx_hal_flash.c ****            (++) Lock and Unlock the option bytes using HAL_FLASH_OB_Unlock() and
  59:Drivers/STM32L4xx_HAL_Driver/Src/stm32l4xx_hal_flash.c ****                 HAL_FLASH_OB_Lock() functions
  60:Drivers/STM32L4xx_HAL_Driver/Src/stm32l4xx_hal_flash.c ****            (++) Launch the reload of the option bytes using HAL_FLASH_Launch() function.
  61:Drivers/STM32L4xx_HAL_Driver/Src/stm32l4xx_hal_flash.c ****                 In this case, a reset is generated
  62:Drivers/STM32L4xx_HAL_Driver/Src/stm32l4xx_hal_flash.c **** 
  63:Drivers/STM32L4xx_HAL_Driver/Src/stm32l4xx_hal_flash.c ****     [..]
  64:Drivers/STM32L4xx_HAL_Driver/Src/stm32l4xx_hal_flash.c ****       In addition to these functions, this driver includes a set of macros allowing
  65:Drivers/STM32L4xx_HAL_Driver/Src/stm32l4xx_hal_flash.c ****       to handle the following operations:
  66:Drivers/STM32L4xx_HAL_Driver/Src/stm32l4xx_hal_flash.c ****        (+) Set the latency
  67:Drivers/STM32L4xx_HAL_Driver/Src/stm32l4xx_hal_flash.c ****        (+) Enable/Disable the prefetch buffer
  68:Drivers/STM32L4xx_HAL_Driver/Src/stm32l4xx_hal_flash.c ****        (+) Enable/Disable the Instruction cache and the Data cache
  69:Drivers/STM32L4xx_HAL_Driver/Src/stm32l4xx_hal_flash.c ****        (+) Reset the Instruction cache and the Data cache
  70:Drivers/STM32L4xx_HAL_Driver/Src/stm32l4xx_hal_flash.c ****        (+) Enable/Disable the Flash power-down during low-power run and sleep modes
  71:Drivers/STM32L4xx_HAL_Driver/Src/stm32l4xx_hal_flash.c ****        (+) Enable/Disable the Flash interrupts
  72:Drivers/STM32L4xx_HAL_Driver/Src/stm32l4xx_hal_flash.c ****        (+) Monitor the Flash flags status
  73:Drivers/STM32L4xx_HAL_Driver/Src/stm32l4xx_hal_flash.c **** 
  74:Drivers/STM32L4xx_HAL_Driver/Src/stm32l4xx_hal_flash.c ****  @endverbatim
  75:Drivers/STM32L4xx_HAL_Driver/Src/stm32l4xx_hal_flash.c ****   ******************************************************************************
  76:Drivers/STM32L4xx_HAL_Driver/Src/stm32l4xx_hal_flash.c ****   * @attention
  77:Drivers/STM32L4xx_HAL_Driver/Src/stm32l4xx_hal_flash.c ****   *
  78:Drivers/STM32L4xx_HAL_Driver/Src/stm32l4xx_hal_flash.c ****   * <h2><center>&copy; Copyright (c) 2017 STMicroelectronics.
  79:Drivers/STM32L4xx_HAL_Driver/Src/stm32l4xx_hal_flash.c ****   * All rights reserved.</center></h2>
  80:Drivers/STM32L4xx_HAL_Driver/Src/stm32l4xx_hal_flash.c ****   *
  81:Drivers/STM32L4xx_HAL_Driver/Src/stm32l4xx_hal_flash.c ****   * This software component is licensed by ST under BSD 3-Clause license,
  82:Drivers/STM32L4xx_HAL_Driver/Src/stm32l4xx_hal_flash.c ****   * the "License"; You may not use this file except in compliance with the
  83:Drivers/STM32L4xx_HAL_Driver/Src/stm32l4xx_hal_flash.c ****   * License. You may obtain a copy of the License at:
  84:Drivers/STM32L4xx_HAL_Driver/Src/stm32l4xx_hal_flash.c ****   *                       opensource.org/licenses/BSD-3-Clause
  85:Drivers/STM32L4xx_HAL_Driver/Src/stm32l4xx_hal_flash.c ****   *
  86:Drivers/STM32L4xx_HAL_Driver/Src/stm32l4xx_hal_flash.c ****   ******************************************************************************
  87:Drivers/STM32L4xx_HAL_Driver/Src/stm32l4xx_hal_flash.c ****   */
  88:Drivers/STM32L4xx_HAL_Driver/Src/stm32l4xx_hal_flash.c **** 
  89:Drivers/STM32L4xx_HAL_Driver/Src/stm32l4xx_hal_flash.c **** /* Includes ------------------------------------------------------------------*/
ARM GAS  C:\Users\hirot\AppData\Local\Temp\ccqjrqzk.s 			page 3


  90:Drivers/STM32L4xx_HAL_Driver/Src/stm32l4xx_hal_flash.c **** #include "stm32l4xx_hal.h"
  91:Drivers/STM32L4xx_HAL_Driver/Src/stm32l4xx_hal_flash.c **** 
  92:Drivers/STM32L4xx_HAL_Driver/Src/stm32l4xx_hal_flash.c **** /** @addtogroup STM32L4xx_HAL_Driver
  93:Drivers/STM32L4xx_HAL_Driver/Src/stm32l4xx_hal_flash.c ****   * @{
  94:Drivers/STM32L4xx_HAL_Driver/Src/stm32l4xx_hal_flash.c ****   */
  95:Drivers/STM32L4xx_HAL_Driver/Src/stm32l4xx_hal_flash.c **** 
  96:Drivers/STM32L4xx_HAL_Driver/Src/stm32l4xx_hal_flash.c **** /** @defgroup FLASH FLASH
  97:Drivers/STM32L4xx_HAL_Driver/Src/stm32l4xx_hal_flash.c ****   * @brief FLASH HAL module driver
  98:Drivers/STM32L4xx_HAL_Driver/Src/stm32l4xx_hal_flash.c ****   * @{
  99:Drivers/STM32L4xx_HAL_Driver/Src/stm32l4xx_hal_flash.c ****   */
 100:Drivers/STM32L4xx_HAL_Driver/Src/stm32l4xx_hal_flash.c **** 
 101:Drivers/STM32L4xx_HAL_Driver/Src/stm32l4xx_hal_flash.c **** #ifdef HAL_FLASH_MODULE_ENABLED
 102:Drivers/STM32L4xx_HAL_Driver/Src/stm32l4xx_hal_flash.c **** 
 103:Drivers/STM32L4xx_HAL_Driver/Src/stm32l4xx_hal_flash.c **** /* Private typedef -----------------------------------------------------------*/
 104:Drivers/STM32L4xx_HAL_Driver/Src/stm32l4xx_hal_flash.c **** /* Private defines -----------------------------------------------------------*/
 105:Drivers/STM32L4xx_HAL_Driver/Src/stm32l4xx_hal_flash.c **** #if defined (STM32L4R5xx) || defined (STM32L4R7xx) || defined (STM32L4R9xx) || defined (STM32L4S5xx
 106:Drivers/STM32L4xx_HAL_Driver/Src/stm32l4xx_hal_flash.c **** #define FLASH_NB_DOUBLE_WORDS_IN_ROW  64
 107:Drivers/STM32L4xx_HAL_Driver/Src/stm32l4xx_hal_flash.c **** #else
 108:Drivers/STM32L4xx_HAL_Driver/Src/stm32l4xx_hal_flash.c **** #define FLASH_NB_DOUBLE_WORDS_IN_ROW  32
 109:Drivers/STM32L4xx_HAL_Driver/Src/stm32l4xx_hal_flash.c **** #endif
 110:Drivers/STM32L4xx_HAL_Driver/Src/stm32l4xx_hal_flash.c **** /* Private macros ------------------------------------------------------------*/
 111:Drivers/STM32L4xx_HAL_Driver/Src/stm32l4xx_hal_flash.c **** /* Private variables ---------------------------------------------------------*/
 112:Drivers/STM32L4xx_HAL_Driver/Src/stm32l4xx_hal_flash.c **** /** @defgroup FLASH_Private_Variables FLASH Private Variables
 113:Drivers/STM32L4xx_HAL_Driver/Src/stm32l4xx_hal_flash.c ****  * @{
 114:Drivers/STM32L4xx_HAL_Driver/Src/stm32l4xx_hal_flash.c ****  */
 115:Drivers/STM32L4xx_HAL_Driver/Src/stm32l4xx_hal_flash.c **** /**
 116:Drivers/STM32L4xx_HAL_Driver/Src/stm32l4xx_hal_flash.c ****   * @brief  Variable used for Program/Erase sectors under interruption
 117:Drivers/STM32L4xx_HAL_Driver/Src/stm32l4xx_hal_flash.c ****   */
 118:Drivers/STM32L4xx_HAL_Driver/Src/stm32l4xx_hal_flash.c **** FLASH_ProcessTypeDef pFlash = {.Lock = HAL_UNLOCKED, \
 119:Drivers/STM32L4xx_HAL_Driver/Src/stm32l4xx_hal_flash.c ****                                .ErrorCode = HAL_FLASH_ERROR_NONE, \
 120:Drivers/STM32L4xx_HAL_Driver/Src/stm32l4xx_hal_flash.c ****                                .ProcedureOnGoing = FLASH_PROC_NONE, \
 121:Drivers/STM32L4xx_HAL_Driver/Src/stm32l4xx_hal_flash.c ****                                .Address = 0U, \
 122:Drivers/STM32L4xx_HAL_Driver/Src/stm32l4xx_hal_flash.c ****                                .Bank = FLASH_BANK_1, \
 123:Drivers/STM32L4xx_HAL_Driver/Src/stm32l4xx_hal_flash.c ****                                .Page = 0U, \
 124:Drivers/STM32L4xx_HAL_Driver/Src/stm32l4xx_hal_flash.c ****                                .NbPagesToErase = 0U, \
 125:Drivers/STM32L4xx_HAL_Driver/Src/stm32l4xx_hal_flash.c ****                                .CacheToReactivate = FLASH_CACHE_DISABLED};
 126:Drivers/STM32L4xx_HAL_Driver/Src/stm32l4xx_hal_flash.c **** /**
 127:Drivers/STM32L4xx_HAL_Driver/Src/stm32l4xx_hal_flash.c ****   * @}
 128:Drivers/STM32L4xx_HAL_Driver/Src/stm32l4xx_hal_flash.c ****   */
 129:Drivers/STM32L4xx_HAL_Driver/Src/stm32l4xx_hal_flash.c **** 
 130:Drivers/STM32L4xx_HAL_Driver/Src/stm32l4xx_hal_flash.c **** /* Private function prototypes -----------------------------------------------*/
 131:Drivers/STM32L4xx_HAL_Driver/Src/stm32l4xx_hal_flash.c **** /** @defgroup FLASH_Private_Functions FLASH Private Functions
 132:Drivers/STM32L4xx_HAL_Driver/Src/stm32l4xx_hal_flash.c ****  * @{
 133:Drivers/STM32L4xx_HAL_Driver/Src/stm32l4xx_hal_flash.c ****  */
 134:Drivers/STM32L4xx_HAL_Driver/Src/stm32l4xx_hal_flash.c **** static void          FLASH_Program_DoubleWord(uint32_t Address, uint64_t Data);
 135:Drivers/STM32L4xx_HAL_Driver/Src/stm32l4xx_hal_flash.c **** static void          FLASH_Program_Fast(uint32_t Address, uint32_t DataAddress);
 136:Drivers/STM32L4xx_HAL_Driver/Src/stm32l4xx_hal_flash.c **** /**
 137:Drivers/STM32L4xx_HAL_Driver/Src/stm32l4xx_hal_flash.c ****   * @}
 138:Drivers/STM32L4xx_HAL_Driver/Src/stm32l4xx_hal_flash.c ****   */
 139:Drivers/STM32L4xx_HAL_Driver/Src/stm32l4xx_hal_flash.c **** 
 140:Drivers/STM32L4xx_HAL_Driver/Src/stm32l4xx_hal_flash.c **** /* Exported functions --------------------------------------------------------*/
 141:Drivers/STM32L4xx_HAL_Driver/Src/stm32l4xx_hal_flash.c **** /** @defgroup FLASH_Exported_Functions FLASH Exported Functions
 142:Drivers/STM32L4xx_HAL_Driver/Src/stm32l4xx_hal_flash.c ****   * @{
 143:Drivers/STM32L4xx_HAL_Driver/Src/stm32l4xx_hal_flash.c ****   */
 144:Drivers/STM32L4xx_HAL_Driver/Src/stm32l4xx_hal_flash.c **** 
 145:Drivers/STM32L4xx_HAL_Driver/Src/stm32l4xx_hal_flash.c **** /** @defgroup FLASH_Exported_Functions_Group1 Programming operation functions
 146:Drivers/STM32L4xx_HAL_Driver/Src/stm32l4xx_hal_flash.c ****  *  @brief   Programming operation functions
ARM GAS  C:\Users\hirot\AppData\Local\Temp\ccqjrqzk.s 			page 4


 147:Drivers/STM32L4xx_HAL_Driver/Src/stm32l4xx_hal_flash.c ****  *
 148:Drivers/STM32L4xx_HAL_Driver/Src/stm32l4xx_hal_flash.c **** @verbatim
 149:Drivers/STM32L4xx_HAL_Driver/Src/stm32l4xx_hal_flash.c ****  ===============================================================================
 150:Drivers/STM32L4xx_HAL_Driver/Src/stm32l4xx_hal_flash.c ****                   ##### Programming operation functions #####
 151:Drivers/STM32L4xx_HAL_Driver/Src/stm32l4xx_hal_flash.c ****  ===============================================================================
 152:Drivers/STM32L4xx_HAL_Driver/Src/stm32l4xx_hal_flash.c ****     [..]
 153:Drivers/STM32L4xx_HAL_Driver/Src/stm32l4xx_hal_flash.c ****     This subsection provides a set of functions allowing to manage the FLASH
 154:Drivers/STM32L4xx_HAL_Driver/Src/stm32l4xx_hal_flash.c ****     program operations.
 155:Drivers/STM32L4xx_HAL_Driver/Src/stm32l4xx_hal_flash.c **** 
 156:Drivers/STM32L4xx_HAL_Driver/Src/stm32l4xx_hal_flash.c **** @endverbatim
 157:Drivers/STM32L4xx_HAL_Driver/Src/stm32l4xx_hal_flash.c ****   * @{
 158:Drivers/STM32L4xx_HAL_Driver/Src/stm32l4xx_hal_flash.c ****   */
 159:Drivers/STM32L4xx_HAL_Driver/Src/stm32l4xx_hal_flash.c **** 
 160:Drivers/STM32L4xx_HAL_Driver/Src/stm32l4xx_hal_flash.c **** /**
 161:Drivers/STM32L4xx_HAL_Driver/Src/stm32l4xx_hal_flash.c ****   * @brief  Program double word or fast program of a row at a specified address.
 162:Drivers/STM32L4xx_HAL_Driver/Src/stm32l4xx_hal_flash.c ****   * @param  TypeProgram:  Indicate the way to program at a specified address.
 163:Drivers/STM32L4xx_HAL_Driver/Src/stm32l4xx_hal_flash.c ****   *                           This parameter can be a value of @ref FLASH_Type_Program
 164:Drivers/STM32L4xx_HAL_Driver/Src/stm32l4xx_hal_flash.c ****   * @param  Address:  specifies the address to be programmed.
 165:Drivers/STM32L4xx_HAL_Driver/Src/stm32l4xx_hal_flash.c ****   * @param  Data: specifies the data to be programmed
 166:Drivers/STM32L4xx_HAL_Driver/Src/stm32l4xx_hal_flash.c ****   *                This parameter is the data for the double word program and the address where
 167:Drivers/STM32L4xx_HAL_Driver/Src/stm32l4xx_hal_flash.c ****   *                are stored the data for the row fast program
 168:Drivers/STM32L4xx_HAL_Driver/Src/stm32l4xx_hal_flash.c ****   *
 169:Drivers/STM32L4xx_HAL_Driver/Src/stm32l4xx_hal_flash.c ****   * @retval HAL_StatusTypeDef HAL Status
 170:Drivers/STM32L4xx_HAL_Driver/Src/stm32l4xx_hal_flash.c ****   */
 171:Drivers/STM32L4xx_HAL_Driver/Src/stm32l4xx_hal_flash.c **** HAL_StatusTypeDef HAL_FLASH_Program(uint32_t TypeProgram, uint32_t Address, uint64_t Data)
 172:Drivers/STM32L4xx_HAL_Driver/Src/stm32l4xx_hal_flash.c **** {
 173:Drivers/STM32L4xx_HAL_Driver/Src/stm32l4xx_hal_flash.c ****   HAL_StatusTypeDef status;
 174:Drivers/STM32L4xx_HAL_Driver/Src/stm32l4xx_hal_flash.c ****   uint32_t prog_bit = 0;
 175:Drivers/STM32L4xx_HAL_Driver/Src/stm32l4xx_hal_flash.c **** 
 176:Drivers/STM32L4xx_HAL_Driver/Src/stm32l4xx_hal_flash.c ****   /* Process Locked */
 177:Drivers/STM32L4xx_HAL_Driver/Src/stm32l4xx_hal_flash.c ****   __HAL_LOCK(&pFlash);
 178:Drivers/STM32L4xx_HAL_Driver/Src/stm32l4xx_hal_flash.c **** 
 179:Drivers/STM32L4xx_HAL_Driver/Src/stm32l4xx_hal_flash.c ****   /* Check the parameters */
 180:Drivers/STM32L4xx_HAL_Driver/Src/stm32l4xx_hal_flash.c ****   assert_param(IS_FLASH_TYPEPROGRAM(TypeProgram));
 181:Drivers/STM32L4xx_HAL_Driver/Src/stm32l4xx_hal_flash.c **** 
 182:Drivers/STM32L4xx_HAL_Driver/Src/stm32l4xx_hal_flash.c ****   /* Wait for last operation to be completed */
 183:Drivers/STM32L4xx_HAL_Driver/Src/stm32l4xx_hal_flash.c ****   status = FLASH_WaitForLastOperation((uint32_t)FLASH_TIMEOUT_VALUE);
 184:Drivers/STM32L4xx_HAL_Driver/Src/stm32l4xx_hal_flash.c **** 
 185:Drivers/STM32L4xx_HAL_Driver/Src/stm32l4xx_hal_flash.c ****   if(status == HAL_OK)
 186:Drivers/STM32L4xx_HAL_Driver/Src/stm32l4xx_hal_flash.c ****   {
 187:Drivers/STM32L4xx_HAL_Driver/Src/stm32l4xx_hal_flash.c ****     pFlash.ErrorCode = HAL_FLASH_ERROR_NONE;
 188:Drivers/STM32L4xx_HAL_Driver/Src/stm32l4xx_hal_flash.c **** 
 189:Drivers/STM32L4xx_HAL_Driver/Src/stm32l4xx_hal_flash.c ****     /* Deactivate the data cache if they are activated to avoid data misbehavior */
 190:Drivers/STM32L4xx_HAL_Driver/Src/stm32l4xx_hal_flash.c ****     if(READ_BIT(FLASH->ACR, FLASH_ACR_DCEN) != 0U)
 191:Drivers/STM32L4xx_HAL_Driver/Src/stm32l4xx_hal_flash.c ****     {
 192:Drivers/STM32L4xx_HAL_Driver/Src/stm32l4xx_hal_flash.c ****       /* Disable data cache  */
 193:Drivers/STM32L4xx_HAL_Driver/Src/stm32l4xx_hal_flash.c ****       __HAL_FLASH_DATA_CACHE_DISABLE();
 194:Drivers/STM32L4xx_HAL_Driver/Src/stm32l4xx_hal_flash.c ****       pFlash.CacheToReactivate = FLASH_CACHE_DCACHE_ENABLED;
 195:Drivers/STM32L4xx_HAL_Driver/Src/stm32l4xx_hal_flash.c ****     }
 196:Drivers/STM32L4xx_HAL_Driver/Src/stm32l4xx_hal_flash.c ****     else
 197:Drivers/STM32L4xx_HAL_Driver/Src/stm32l4xx_hal_flash.c ****     {
 198:Drivers/STM32L4xx_HAL_Driver/Src/stm32l4xx_hal_flash.c ****       pFlash.CacheToReactivate = FLASH_CACHE_DISABLED;
 199:Drivers/STM32L4xx_HAL_Driver/Src/stm32l4xx_hal_flash.c ****     }
 200:Drivers/STM32L4xx_HAL_Driver/Src/stm32l4xx_hal_flash.c **** 
 201:Drivers/STM32L4xx_HAL_Driver/Src/stm32l4xx_hal_flash.c ****     if(TypeProgram == FLASH_TYPEPROGRAM_DOUBLEWORD)
 202:Drivers/STM32L4xx_HAL_Driver/Src/stm32l4xx_hal_flash.c ****     {
 203:Drivers/STM32L4xx_HAL_Driver/Src/stm32l4xx_hal_flash.c ****       /* Program double-word (64-bit) at a specified address */
ARM GAS  C:\Users\hirot\AppData\Local\Temp\ccqjrqzk.s 			page 5


 204:Drivers/STM32L4xx_HAL_Driver/Src/stm32l4xx_hal_flash.c ****       FLASH_Program_DoubleWord(Address, Data);
 205:Drivers/STM32L4xx_HAL_Driver/Src/stm32l4xx_hal_flash.c ****       prog_bit = FLASH_CR_PG;
 206:Drivers/STM32L4xx_HAL_Driver/Src/stm32l4xx_hal_flash.c ****     }
 207:Drivers/STM32L4xx_HAL_Driver/Src/stm32l4xx_hal_flash.c ****     else if((TypeProgram == FLASH_TYPEPROGRAM_FAST) || (TypeProgram == FLASH_TYPEPROGRAM_FAST_AND_L
 208:Drivers/STM32L4xx_HAL_Driver/Src/stm32l4xx_hal_flash.c ****     {
 209:Drivers/STM32L4xx_HAL_Driver/Src/stm32l4xx_hal_flash.c ****       /* Fast program a 32 row double-word (64-bit) at a specified address */
 210:Drivers/STM32L4xx_HAL_Driver/Src/stm32l4xx_hal_flash.c ****       FLASH_Program_Fast(Address, (uint32_t)Data);
 211:Drivers/STM32L4xx_HAL_Driver/Src/stm32l4xx_hal_flash.c **** 
 212:Drivers/STM32L4xx_HAL_Driver/Src/stm32l4xx_hal_flash.c ****       /* If it is the last row, the bit will be cleared at the end of the operation */
 213:Drivers/STM32L4xx_HAL_Driver/Src/stm32l4xx_hal_flash.c ****       if(TypeProgram == FLASH_TYPEPROGRAM_FAST_AND_LAST)
 214:Drivers/STM32L4xx_HAL_Driver/Src/stm32l4xx_hal_flash.c ****       {
 215:Drivers/STM32L4xx_HAL_Driver/Src/stm32l4xx_hal_flash.c ****         prog_bit = FLASH_CR_FSTPG;
 216:Drivers/STM32L4xx_HAL_Driver/Src/stm32l4xx_hal_flash.c ****       }
 217:Drivers/STM32L4xx_HAL_Driver/Src/stm32l4xx_hal_flash.c ****     }
 218:Drivers/STM32L4xx_HAL_Driver/Src/stm32l4xx_hal_flash.c ****     else
 219:Drivers/STM32L4xx_HAL_Driver/Src/stm32l4xx_hal_flash.c ****     {
 220:Drivers/STM32L4xx_HAL_Driver/Src/stm32l4xx_hal_flash.c ****       /* Nothing to do */
 221:Drivers/STM32L4xx_HAL_Driver/Src/stm32l4xx_hal_flash.c ****     }
 222:Drivers/STM32L4xx_HAL_Driver/Src/stm32l4xx_hal_flash.c **** 
 223:Drivers/STM32L4xx_HAL_Driver/Src/stm32l4xx_hal_flash.c ****     /* Wait for last operation to be completed */
 224:Drivers/STM32L4xx_HAL_Driver/Src/stm32l4xx_hal_flash.c ****     status = FLASH_WaitForLastOperation((uint32_t)FLASH_TIMEOUT_VALUE);
 225:Drivers/STM32L4xx_HAL_Driver/Src/stm32l4xx_hal_flash.c **** 
 226:Drivers/STM32L4xx_HAL_Driver/Src/stm32l4xx_hal_flash.c ****     /* If the program operation is completed, disable the PG or FSTPG Bit */
 227:Drivers/STM32L4xx_HAL_Driver/Src/stm32l4xx_hal_flash.c ****     if (prog_bit != 0U)
 228:Drivers/STM32L4xx_HAL_Driver/Src/stm32l4xx_hal_flash.c ****     {
 229:Drivers/STM32L4xx_HAL_Driver/Src/stm32l4xx_hal_flash.c ****       CLEAR_BIT(FLASH->CR, prog_bit);
 230:Drivers/STM32L4xx_HAL_Driver/Src/stm32l4xx_hal_flash.c ****     }
 231:Drivers/STM32L4xx_HAL_Driver/Src/stm32l4xx_hal_flash.c **** 
 232:Drivers/STM32L4xx_HAL_Driver/Src/stm32l4xx_hal_flash.c ****     /* Flush the caches to be sure of the data consistency */
 233:Drivers/STM32L4xx_HAL_Driver/Src/stm32l4xx_hal_flash.c ****     FLASH_FlushCaches();
 234:Drivers/STM32L4xx_HAL_Driver/Src/stm32l4xx_hal_flash.c ****   }
 235:Drivers/STM32L4xx_HAL_Driver/Src/stm32l4xx_hal_flash.c **** 
 236:Drivers/STM32L4xx_HAL_Driver/Src/stm32l4xx_hal_flash.c ****   /* Process Unlocked */
 237:Drivers/STM32L4xx_HAL_Driver/Src/stm32l4xx_hal_flash.c ****   __HAL_UNLOCK(&pFlash);
 238:Drivers/STM32L4xx_HAL_Driver/Src/stm32l4xx_hal_flash.c **** 
 239:Drivers/STM32L4xx_HAL_Driver/Src/stm32l4xx_hal_flash.c ****   return status;
 240:Drivers/STM32L4xx_HAL_Driver/Src/stm32l4xx_hal_flash.c **** }
 241:Drivers/STM32L4xx_HAL_Driver/Src/stm32l4xx_hal_flash.c **** 
 242:Drivers/STM32L4xx_HAL_Driver/Src/stm32l4xx_hal_flash.c **** /**
 243:Drivers/STM32L4xx_HAL_Driver/Src/stm32l4xx_hal_flash.c ****   * @brief  Program double word or fast program of a row at a specified address with interrupt enab
 244:Drivers/STM32L4xx_HAL_Driver/Src/stm32l4xx_hal_flash.c ****   * @param  TypeProgram:  Indicate the way to program at a specified address.
 245:Drivers/STM32L4xx_HAL_Driver/Src/stm32l4xx_hal_flash.c ****   *                           This parameter can be a value of @ref FLASH_Type_Program
 246:Drivers/STM32L4xx_HAL_Driver/Src/stm32l4xx_hal_flash.c ****   * @param  Address:  specifies the address to be programmed.
 247:Drivers/STM32L4xx_HAL_Driver/Src/stm32l4xx_hal_flash.c ****   * @param  Data: specifies the data to be programmed
 248:Drivers/STM32L4xx_HAL_Driver/Src/stm32l4xx_hal_flash.c ****   *                This parameter is the data for the double word program and the address where
 249:Drivers/STM32L4xx_HAL_Driver/Src/stm32l4xx_hal_flash.c ****   *                are stored the data for the row fast program
 250:Drivers/STM32L4xx_HAL_Driver/Src/stm32l4xx_hal_flash.c ****   *
 251:Drivers/STM32L4xx_HAL_Driver/Src/stm32l4xx_hal_flash.c ****   * @retval HAL Status
 252:Drivers/STM32L4xx_HAL_Driver/Src/stm32l4xx_hal_flash.c ****   */
 253:Drivers/STM32L4xx_HAL_Driver/Src/stm32l4xx_hal_flash.c **** HAL_StatusTypeDef HAL_FLASH_Program_IT(uint32_t TypeProgram, uint32_t Address, uint64_t Data)
 254:Drivers/STM32L4xx_HAL_Driver/Src/stm32l4xx_hal_flash.c **** {
 255:Drivers/STM32L4xx_HAL_Driver/Src/stm32l4xx_hal_flash.c ****   HAL_StatusTypeDef status = HAL_OK;
 256:Drivers/STM32L4xx_HAL_Driver/Src/stm32l4xx_hal_flash.c **** 
 257:Drivers/STM32L4xx_HAL_Driver/Src/stm32l4xx_hal_flash.c ****   /* Check the parameters */
 258:Drivers/STM32L4xx_HAL_Driver/Src/stm32l4xx_hal_flash.c ****   assert_param(IS_FLASH_TYPEPROGRAM(TypeProgram));
 259:Drivers/STM32L4xx_HAL_Driver/Src/stm32l4xx_hal_flash.c **** 
 260:Drivers/STM32L4xx_HAL_Driver/Src/stm32l4xx_hal_flash.c ****   /* Process Locked */
ARM GAS  C:\Users\hirot\AppData\Local\Temp\ccqjrqzk.s 			page 6


 261:Drivers/STM32L4xx_HAL_Driver/Src/stm32l4xx_hal_flash.c ****   __HAL_LOCK(&pFlash);
 262:Drivers/STM32L4xx_HAL_Driver/Src/stm32l4xx_hal_flash.c **** 
 263:Drivers/STM32L4xx_HAL_Driver/Src/stm32l4xx_hal_flash.c ****   pFlash.ErrorCode = HAL_FLASH_ERROR_NONE;
 264:Drivers/STM32L4xx_HAL_Driver/Src/stm32l4xx_hal_flash.c **** 
 265:Drivers/STM32L4xx_HAL_Driver/Src/stm32l4xx_hal_flash.c ****   /* Deactivate the data cache if they are activated to avoid data misbehavior */
 266:Drivers/STM32L4xx_HAL_Driver/Src/stm32l4xx_hal_flash.c ****   if(READ_BIT(FLASH->ACR, FLASH_ACR_DCEN) != 0U)
 267:Drivers/STM32L4xx_HAL_Driver/Src/stm32l4xx_hal_flash.c ****   {
 268:Drivers/STM32L4xx_HAL_Driver/Src/stm32l4xx_hal_flash.c ****     /* Disable data cache  */
 269:Drivers/STM32L4xx_HAL_Driver/Src/stm32l4xx_hal_flash.c ****     __HAL_FLASH_DATA_CACHE_DISABLE();
 270:Drivers/STM32L4xx_HAL_Driver/Src/stm32l4xx_hal_flash.c ****     pFlash.CacheToReactivate = FLASH_CACHE_DCACHE_ENABLED;
 271:Drivers/STM32L4xx_HAL_Driver/Src/stm32l4xx_hal_flash.c ****   }
 272:Drivers/STM32L4xx_HAL_Driver/Src/stm32l4xx_hal_flash.c ****   else
 273:Drivers/STM32L4xx_HAL_Driver/Src/stm32l4xx_hal_flash.c ****   {
 274:Drivers/STM32L4xx_HAL_Driver/Src/stm32l4xx_hal_flash.c ****     pFlash.CacheToReactivate = FLASH_CACHE_DISABLED;
 275:Drivers/STM32L4xx_HAL_Driver/Src/stm32l4xx_hal_flash.c ****   }
 276:Drivers/STM32L4xx_HAL_Driver/Src/stm32l4xx_hal_flash.c **** 
 277:Drivers/STM32L4xx_HAL_Driver/Src/stm32l4xx_hal_flash.c ****   /* Set internal variables used by the IRQ handler */
 278:Drivers/STM32L4xx_HAL_Driver/Src/stm32l4xx_hal_flash.c ****   if(TypeProgram == FLASH_TYPEPROGRAM_FAST_AND_LAST)
 279:Drivers/STM32L4xx_HAL_Driver/Src/stm32l4xx_hal_flash.c ****   {
 280:Drivers/STM32L4xx_HAL_Driver/Src/stm32l4xx_hal_flash.c ****     pFlash.ProcedureOnGoing = FLASH_PROC_PROGRAM_LAST;
 281:Drivers/STM32L4xx_HAL_Driver/Src/stm32l4xx_hal_flash.c ****   }
 282:Drivers/STM32L4xx_HAL_Driver/Src/stm32l4xx_hal_flash.c ****   else
 283:Drivers/STM32L4xx_HAL_Driver/Src/stm32l4xx_hal_flash.c ****   {
 284:Drivers/STM32L4xx_HAL_Driver/Src/stm32l4xx_hal_flash.c ****     pFlash.ProcedureOnGoing = FLASH_PROC_PROGRAM;
 285:Drivers/STM32L4xx_HAL_Driver/Src/stm32l4xx_hal_flash.c ****   }
 286:Drivers/STM32L4xx_HAL_Driver/Src/stm32l4xx_hal_flash.c ****   pFlash.Address = Address;
 287:Drivers/STM32L4xx_HAL_Driver/Src/stm32l4xx_hal_flash.c **** 
 288:Drivers/STM32L4xx_HAL_Driver/Src/stm32l4xx_hal_flash.c ****   /* Enable End of Operation and Error interrupts */
 289:Drivers/STM32L4xx_HAL_Driver/Src/stm32l4xx_hal_flash.c ****   __HAL_FLASH_ENABLE_IT(FLASH_IT_EOP | FLASH_IT_OPERR);
 290:Drivers/STM32L4xx_HAL_Driver/Src/stm32l4xx_hal_flash.c **** 
 291:Drivers/STM32L4xx_HAL_Driver/Src/stm32l4xx_hal_flash.c ****   if(TypeProgram == FLASH_TYPEPROGRAM_DOUBLEWORD)
 292:Drivers/STM32L4xx_HAL_Driver/Src/stm32l4xx_hal_flash.c ****   {
 293:Drivers/STM32L4xx_HAL_Driver/Src/stm32l4xx_hal_flash.c ****     /* Program double-word (64-bit) at a specified address */
 294:Drivers/STM32L4xx_HAL_Driver/Src/stm32l4xx_hal_flash.c ****     FLASH_Program_DoubleWord(Address, Data);
 295:Drivers/STM32L4xx_HAL_Driver/Src/stm32l4xx_hal_flash.c ****   }
 296:Drivers/STM32L4xx_HAL_Driver/Src/stm32l4xx_hal_flash.c ****   else if((TypeProgram == FLASH_TYPEPROGRAM_FAST) || (TypeProgram == FLASH_TYPEPROGRAM_FAST_AND_LAS
 297:Drivers/STM32L4xx_HAL_Driver/Src/stm32l4xx_hal_flash.c ****   {
 298:Drivers/STM32L4xx_HAL_Driver/Src/stm32l4xx_hal_flash.c ****     /* Fast program a 32 row double-word (64-bit) at a specified address */
 299:Drivers/STM32L4xx_HAL_Driver/Src/stm32l4xx_hal_flash.c ****     FLASH_Program_Fast(Address, (uint32_t)Data);
 300:Drivers/STM32L4xx_HAL_Driver/Src/stm32l4xx_hal_flash.c ****   }
 301:Drivers/STM32L4xx_HAL_Driver/Src/stm32l4xx_hal_flash.c ****   else
 302:Drivers/STM32L4xx_HAL_Driver/Src/stm32l4xx_hal_flash.c ****   {
 303:Drivers/STM32L4xx_HAL_Driver/Src/stm32l4xx_hal_flash.c ****     /* Nothing to do */
 304:Drivers/STM32L4xx_HAL_Driver/Src/stm32l4xx_hal_flash.c ****   }
 305:Drivers/STM32L4xx_HAL_Driver/Src/stm32l4xx_hal_flash.c **** 
 306:Drivers/STM32L4xx_HAL_Driver/Src/stm32l4xx_hal_flash.c ****   return status;
 307:Drivers/STM32L4xx_HAL_Driver/Src/stm32l4xx_hal_flash.c **** }
 308:Drivers/STM32L4xx_HAL_Driver/Src/stm32l4xx_hal_flash.c **** 
 309:Drivers/STM32L4xx_HAL_Driver/Src/stm32l4xx_hal_flash.c **** /**
 310:Drivers/STM32L4xx_HAL_Driver/Src/stm32l4xx_hal_flash.c ****   * @brief Handle FLASH interrupt request.
 311:Drivers/STM32L4xx_HAL_Driver/Src/stm32l4xx_hal_flash.c ****   * @retval None
 312:Drivers/STM32L4xx_HAL_Driver/Src/stm32l4xx_hal_flash.c ****   */
 313:Drivers/STM32L4xx_HAL_Driver/Src/stm32l4xx_hal_flash.c **** void HAL_FLASH_IRQHandler(void)
 314:Drivers/STM32L4xx_HAL_Driver/Src/stm32l4xx_hal_flash.c **** {
 315:Drivers/STM32L4xx_HAL_Driver/Src/stm32l4xx_hal_flash.c ****   uint32_t tmp_page;
 316:Drivers/STM32L4xx_HAL_Driver/Src/stm32l4xx_hal_flash.c ****   uint32_t error;
 317:Drivers/STM32L4xx_HAL_Driver/Src/stm32l4xx_hal_flash.c ****   FLASH_ProcedureTypeDef procedure;
ARM GAS  C:\Users\hirot\AppData\Local\Temp\ccqjrqzk.s 			page 7


 318:Drivers/STM32L4xx_HAL_Driver/Src/stm32l4xx_hal_flash.c **** 
 319:Drivers/STM32L4xx_HAL_Driver/Src/stm32l4xx_hal_flash.c ****   /* If the operation is completed, disable the PG, PNB, MER1, MER2 and PER Bit */
 320:Drivers/STM32L4xx_HAL_Driver/Src/stm32l4xx_hal_flash.c ****   CLEAR_BIT(FLASH->CR, (FLASH_CR_PG | FLASH_CR_MER1 | FLASH_CR_PER | FLASH_CR_PNB));
 321:Drivers/STM32L4xx_HAL_Driver/Src/stm32l4xx_hal_flash.c **** #if defined (STM32L471xx) || defined (STM32L475xx) || defined (STM32L476xx) || defined (STM32L485xx
 322:Drivers/STM32L4xx_HAL_Driver/Src/stm32l4xx_hal_flash.c ****     defined (STM32L496xx) || defined (STM32L4A6xx) || \
 323:Drivers/STM32L4xx_HAL_Driver/Src/stm32l4xx_hal_flash.c ****     defined (STM32L4R5xx) || defined (STM32L4R7xx) || defined (STM32L4R9xx) || defined (STM32L4S5xx
 324:Drivers/STM32L4xx_HAL_Driver/Src/stm32l4xx_hal_flash.c ****   CLEAR_BIT(FLASH->CR, FLASH_CR_MER2);
 325:Drivers/STM32L4xx_HAL_Driver/Src/stm32l4xx_hal_flash.c **** #endif
 326:Drivers/STM32L4xx_HAL_Driver/Src/stm32l4xx_hal_flash.c **** 
 327:Drivers/STM32L4xx_HAL_Driver/Src/stm32l4xx_hal_flash.c ****   /* Disable the FSTPG Bit only if it is the last row programmed */
 328:Drivers/STM32L4xx_HAL_Driver/Src/stm32l4xx_hal_flash.c ****   if(pFlash.ProcedureOnGoing == FLASH_PROC_PROGRAM_LAST)
 329:Drivers/STM32L4xx_HAL_Driver/Src/stm32l4xx_hal_flash.c ****   {
 330:Drivers/STM32L4xx_HAL_Driver/Src/stm32l4xx_hal_flash.c ****     CLEAR_BIT(FLASH->CR, FLASH_CR_FSTPG);
 331:Drivers/STM32L4xx_HAL_Driver/Src/stm32l4xx_hal_flash.c ****   }
 332:Drivers/STM32L4xx_HAL_Driver/Src/stm32l4xx_hal_flash.c **** 
 333:Drivers/STM32L4xx_HAL_Driver/Src/stm32l4xx_hal_flash.c ****   /* Check FLASH operation error flags */
 334:Drivers/STM32L4xx_HAL_Driver/Src/stm32l4xx_hal_flash.c ****   error = (FLASH->SR & FLASH_FLAG_SR_ERRORS);
 335:Drivers/STM32L4xx_HAL_Driver/Src/stm32l4xx_hal_flash.c ****   error |= (FLASH->ECCR & FLASH_FLAG_ECCC);
 336:Drivers/STM32L4xx_HAL_Driver/Src/stm32l4xx_hal_flash.c **** 
 337:Drivers/STM32L4xx_HAL_Driver/Src/stm32l4xx_hal_flash.c ****   if (error !=0U)
 338:Drivers/STM32L4xx_HAL_Driver/Src/stm32l4xx_hal_flash.c ****   {
 339:Drivers/STM32L4xx_HAL_Driver/Src/stm32l4xx_hal_flash.c ****     /*Save the error code*/
 340:Drivers/STM32L4xx_HAL_Driver/Src/stm32l4xx_hal_flash.c ****     pFlash.ErrorCode |= error;
 341:Drivers/STM32L4xx_HAL_Driver/Src/stm32l4xx_hal_flash.c **** 
 342:Drivers/STM32L4xx_HAL_Driver/Src/stm32l4xx_hal_flash.c ****     /* Clear error programming flags */
 343:Drivers/STM32L4xx_HAL_Driver/Src/stm32l4xx_hal_flash.c ****     __HAL_FLASH_CLEAR_FLAG(error);
 344:Drivers/STM32L4xx_HAL_Driver/Src/stm32l4xx_hal_flash.c **** 
 345:Drivers/STM32L4xx_HAL_Driver/Src/stm32l4xx_hal_flash.c ****     /* Flush the caches to be sure of the data consistency */
 346:Drivers/STM32L4xx_HAL_Driver/Src/stm32l4xx_hal_flash.c ****     FLASH_FlushCaches() ;
 347:Drivers/STM32L4xx_HAL_Driver/Src/stm32l4xx_hal_flash.c **** 
 348:Drivers/STM32L4xx_HAL_Driver/Src/stm32l4xx_hal_flash.c ****     /* FLASH error interrupt user callback */
 349:Drivers/STM32L4xx_HAL_Driver/Src/stm32l4xx_hal_flash.c ****     procedure = pFlash.ProcedureOnGoing;
 350:Drivers/STM32L4xx_HAL_Driver/Src/stm32l4xx_hal_flash.c ****     if(procedure == FLASH_PROC_PAGE_ERASE)
 351:Drivers/STM32L4xx_HAL_Driver/Src/stm32l4xx_hal_flash.c ****     {
 352:Drivers/STM32L4xx_HAL_Driver/Src/stm32l4xx_hal_flash.c ****        HAL_FLASH_OperationErrorCallback(pFlash.Page);
 353:Drivers/STM32L4xx_HAL_Driver/Src/stm32l4xx_hal_flash.c ****     }
 354:Drivers/STM32L4xx_HAL_Driver/Src/stm32l4xx_hal_flash.c ****     else if(procedure == FLASH_PROC_MASS_ERASE)
 355:Drivers/STM32L4xx_HAL_Driver/Src/stm32l4xx_hal_flash.c ****     {
 356:Drivers/STM32L4xx_HAL_Driver/Src/stm32l4xx_hal_flash.c ****         HAL_FLASH_OperationErrorCallback(pFlash.Bank);
 357:Drivers/STM32L4xx_HAL_Driver/Src/stm32l4xx_hal_flash.c ****     }
 358:Drivers/STM32L4xx_HAL_Driver/Src/stm32l4xx_hal_flash.c ****     else if((procedure == FLASH_PROC_PROGRAM) ||
 359:Drivers/STM32L4xx_HAL_Driver/Src/stm32l4xx_hal_flash.c ****             (procedure == FLASH_PROC_PROGRAM_LAST))
 360:Drivers/STM32L4xx_HAL_Driver/Src/stm32l4xx_hal_flash.c ****     {
 361:Drivers/STM32L4xx_HAL_Driver/Src/stm32l4xx_hal_flash.c ****        HAL_FLASH_OperationErrorCallback(pFlash.Address);
 362:Drivers/STM32L4xx_HAL_Driver/Src/stm32l4xx_hal_flash.c ****     }
 363:Drivers/STM32L4xx_HAL_Driver/Src/stm32l4xx_hal_flash.c ****     else
 364:Drivers/STM32L4xx_HAL_Driver/Src/stm32l4xx_hal_flash.c ****     {
 365:Drivers/STM32L4xx_HAL_Driver/Src/stm32l4xx_hal_flash.c ****        HAL_FLASH_OperationErrorCallback(0U);
 366:Drivers/STM32L4xx_HAL_Driver/Src/stm32l4xx_hal_flash.c ****     }
 367:Drivers/STM32L4xx_HAL_Driver/Src/stm32l4xx_hal_flash.c **** 
 368:Drivers/STM32L4xx_HAL_Driver/Src/stm32l4xx_hal_flash.c ****     /*Stop the procedure ongoing*/
 369:Drivers/STM32L4xx_HAL_Driver/Src/stm32l4xx_hal_flash.c ****     pFlash.ProcedureOnGoing = FLASH_PROC_NONE;
 370:Drivers/STM32L4xx_HAL_Driver/Src/stm32l4xx_hal_flash.c ****   }
 371:Drivers/STM32L4xx_HAL_Driver/Src/stm32l4xx_hal_flash.c **** 
 372:Drivers/STM32L4xx_HAL_Driver/Src/stm32l4xx_hal_flash.c ****   /* Check FLASH End of Operation flag  */
 373:Drivers/STM32L4xx_HAL_Driver/Src/stm32l4xx_hal_flash.c ****   if(__HAL_FLASH_GET_FLAG(FLASH_FLAG_EOP) != 0U)
 374:Drivers/STM32L4xx_HAL_Driver/Src/stm32l4xx_hal_flash.c ****   {
ARM GAS  C:\Users\hirot\AppData\Local\Temp\ccqjrqzk.s 			page 8


 375:Drivers/STM32L4xx_HAL_Driver/Src/stm32l4xx_hal_flash.c ****     /* Clear FLASH End of Operation pending bit */
 376:Drivers/STM32L4xx_HAL_Driver/Src/stm32l4xx_hal_flash.c ****     __HAL_FLASH_CLEAR_FLAG(FLASH_FLAG_EOP);
 377:Drivers/STM32L4xx_HAL_Driver/Src/stm32l4xx_hal_flash.c **** 
 378:Drivers/STM32L4xx_HAL_Driver/Src/stm32l4xx_hal_flash.c ****     if(pFlash.ProcedureOnGoing == FLASH_PROC_PAGE_ERASE)
 379:Drivers/STM32L4xx_HAL_Driver/Src/stm32l4xx_hal_flash.c ****     {
 380:Drivers/STM32L4xx_HAL_Driver/Src/stm32l4xx_hal_flash.c ****       /* Nb of pages to erased can be decreased */
 381:Drivers/STM32L4xx_HAL_Driver/Src/stm32l4xx_hal_flash.c ****       pFlash.NbPagesToErase--;
 382:Drivers/STM32L4xx_HAL_Driver/Src/stm32l4xx_hal_flash.c **** 
 383:Drivers/STM32L4xx_HAL_Driver/Src/stm32l4xx_hal_flash.c ****       /* Check if there are still pages to erase*/
 384:Drivers/STM32L4xx_HAL_Driver/Src/stm32l4xx_hal_flash.c ****       if(pFlash.NbPagesToErase != 0U)
 385:Drivers/STM32L4xx_HAL_Driver/Src/stm32l4xx_hal_flash.c ****       {
 386:Drivers/STM32L4xx_HAL_Driver/Src/stm32l4xx_hal_flash.c ****         /* Indicate user which page has been erased*/
 387:Drivers/STM32L4xx_HAL_Driver/Src/stm32l4xx_hal_flash.c ****         HAL_FLASH_EndOfOperationCallback(pFlash.Page);
 388:Drivers/STM32L4xx_HAL_Driver/Src/stm32l4xx_hal_flash.c **** 
 389:Drivers/STM32L4xx_HAL_Driver/Src/stm32l4xx_hal_flash.c ****         /* Increment page number */
 390:Drivers/STM32L4xx_HAL_Driver/Src/stm32l4xx_hal_flash.c ****         pFlash.Page++;
 391:Drivers/STM32L4xx_HAL_Driver/Src/stm32l4xx_hal_flash.c ****         tmp_page = pFlash.Page;
 392:Drivers/STM32L4xx_HAL_Driver/Src/stm32l4xx_hal_flash.c ****         FLASH_PageErase(tmp_page, pFlash.Bank);
 393:Drivers/STM32L4xx_HAL_Driver/Src/stm32l4xx_hal_flash.c ****       }
 394:Drivers/STM32L4xx_HAL_Driver/Src/stm32l4xx_hal_flash.c ****       else
 395:Drivers/STM32L4xx_HAL_Driver/Src/stm32l4xx_hal_flash.c ****       {
 396:Drivers/STM32L4xx_HAL_Driver/Src/stm32l4xx_hal_flash.c ****         /* No more pages to Erase */
 397:Drivers/STM32L4xx_HAL_Driver/Src/stm32l4xx_hal_flash.c ****         /* Reset Address and stop Erase pages procedure */
 398:Drivers/STM32L4xx_HAL_Driver/Src/stm32l4xx_hal_flash.c ****         pFlash.Page = 0xFFFFFFFFU;
 399:Drivers/STM32L4xx_HAL_Driver/Src/stm32l4xx_hal_flash.c ****         pFlash.ProcedureOnGoing = FLASH_PROC_NONE;
 400:Drivers/STM32L4xx_HAL_Driver/Src/stm32l4xx_hal_flash.c **** 
 401:Drivers/STM32L4xx_HAL_Driver/Src/stm32l4xx_hal_flash.c ****         /* Flush the caches to be sure of the data consistency */
 402:Drivers/STM32L4xx_HAL_Driver/Src/stm32l4xx_hal_flash.c ****         FLASH_FlushCaches() ;
 403:Drivers/STM32L4xx_HAL_Driver/Src/stm32l4xx_hal_flash.c **** 
 404:Drivers/STM32L4xx_HAL_Driver/Src/stm32l4xx_hal_flash.c ****         /* FLASH EOP interrupt user callback */
 405:Drivers/STM32L4xx_HAL_Driver/Src/stm32l4xx_hal_flash.c ****         HAL_FLASH_EndOfOperationCallback(pFlash.Page);
 406:Drivers/STM32L4xx_HAL_Driver/Src/stm32l4xx_hal_flash.c ****       }
 407:Drivers/STM32L4xx_HAL_Driver/Src/stm32l4xx_hal_flash.c ****     }
 408:Drivers/STM32L4xx_HAL_Driver/Src/stm32l4xx_hal_flash.c ****     else
 409:Drivers/STM32L4xx_HAL_Driver/Src/stm32l4xx_hal_flash.c ****     {
 410:Drivers/STM32L4xx_HAL_Driver/Src/stm32l4xx_hal_flash.c ****       /* Flush the caches to be sure of the data consistency */
 411:Drivers/STM32L4xx_HAL_Driver/Src/stm32l4xx_hal_flash.c ****       FLASH_FlushCaches() ;
 412:Drivers/STM32L4xx_HAL_Driver/Src/stm32l4xx_hal_flash.c **** 
 413:Drivers/STM32L4xx_HAL_Driver/Src/stm32l4xx_hal_flash.c ****       procedure = pFlash.ProcedureOnGoing;
 414:Drivers/STM32L4xx_HAL_Driver/Src/stm32l4xx_hal_flash.c ****       if(procedure == FLASH_PROC_MASS_ERASE)
 415:Drivers/STM32L4xx_HAL_Driver/Src/stm32l4xx_hal_flash.c ****       {
 416:Drivers/STM32L4xx_HAL_Driver/Src/stm32l4xx_hal_flash.c ****         /* MassErase ended. Return the selected bank */
 417:Drivers/STM32L4xx_HAL_Driver/Src/stm32l4xx_hal_flash.c ****         /* FLASH EOP interrupt user callback */
 418:Drivers/STM32L4xx_HAL_Driver/Src/stm32l4xx_hal_flash.c ****         HAL_FLASH_EndOfOperationCallback(pFlash.Bank);
 419:Drivers/STM32L4xx_HAL_Driver/Src/stm32l4xx_hal_flash.c ****       }
 420:Drivers/STM32L4xx_HAL_Driver/Src/stm32l4xx_hal_flash.c ****       else if((procedure == FLASH_PROC_PROGRAM) ||
 421:Drivers/STM32L4xx_HAL_Driver/Src/stm32l4xx_hal_flash.c ****               (procedure == FLASH_PROC_PROGRAM_LAST))
 422:Drivers/STM32L4xx_HAL_Driver/Src/stm32l4xx_hal_flash.c ****       {
 423:Drivers/STM32L4xx_HAL_Driver/Src/stm32l4xx_hal_flash.c ****         /* Program ended. Return the selected address */
 424:Drivers/STM32L4xx_HAL_Driver/Src/stm32l4xx_hal_flash.c ****         /* FLASH EOP interrupt user callback */
 425:Drivers/STM32L4xx_HAL_Driver/Src/stm32l4xx_hal_flash.c ****         HAL_FLASH_EndOfOperationCallback(pFlash.Address);
 426:Drivers/STM32L4xx_HAL_Driver/Src/stm32l4xx_hal_flash.c ****       }
 427:Drivers/STM32L4xx_HAL_Driver/Src/stm32l4xx_hal_flash.c ****       else
 428:Drivers/STM32L4xx_HAL_Driver/Src/stm32l4xx_hal_flash.c ****       {
 429:Drivers/STM32L4xx_HAL_Driver/Src/stm32l4xx_hal_flash.c ****         /* Nothing to do */
 430:Drivers/STM32L4xx_HAL_Driver/Src/stm32l4xx_hal_flash.c ****       }
 431:Drivers/STM32L4xx_HAL_Driver/Src/stm32l4xx_hal_flash.c **** 
ARM GAS  C:\Users\hirot\AppData\Local\Temp\ccqjrqzk.s 			page 9


 432:Drivers/STM32L4xx_HAL_Driver/Src/stm32l4xx_hal_flash.c ****       /*Clear the procedure ongoing*/
 433:Drivers/STM32L4xx_HAL_Driver/Src/stm32l4xx_hal_flash.c ****       pFlash.ProcedureOnGoing = FLASH_PROC_NONE;
 434:Drivers/STM32L4xx_HAL_Driver/Src/stm32l4xx_hal_flash.c ****     }
 435:Drivers/STM32L4xx_HAL_Driver/Src/stm32l4xx_hal_flash.c ****   }
 436:Drivers/STM32L4xx_HAL_Driver/Src/stm32l4xx_hal_flash.c **** 
 437:Drivers/STM32L4xx_HAL_Driver/Src/stm32l4xx_hal_flash.c ****   if(pFlash.ProcedureOnGoing == FLASH_PROC_NONE)
 438:Drivers/STM32L4xx_HAL_Driver/Src/stm32l4xx_hal_flash.c ****   {
 439:Drivers/STM32L4xx_HAL_Driver/Src/stm32l4xx_hal_flash.c ****     /* Disable End of Operation and Error interrupts */
 440:Drivers/STM32L4xx_HAL_Driver/Src/stm32l4xx_hal_flash.c ****     __HAL_FLASH_DISABLE_IT(FLASH_IT_EOP | FLASH_IT_OPERR);
 441:Drivers/STM32L4xx_HAL_Driver/Src/stm32l4xx_hal_flash.c **** 
 442:Drivers/STM32L4xx_HAL_Driver/Src/stm32l4xx_hal_flash.c ****     /* Process Unlocked */
 443:Drivers/STM32L4xx_HAL_Driver/Src/stm32l4xx_hal_flash.c ****     __HAL_UNLOCK(&pFlash);
 444:Drivers/STM32L4xx_HAL_Driver/Src/stm32l4xx_hal_flash.c ****   }
 445:Drivers/STM32L4xx_HAL_Driver/Src/stm32l4xx_hal_flash.c **** }
 446:Drivers/STM32L4xx_HAL_Driver/Src/stm32l4xx_hal_flash.c **** 
 447:Drivers/STM32L4xx_HAL_Driver/Src/stm32l4xx_hal_flash.c **** /**
 448:Drivers/STM32L4xx_HAL_Driver/Src/stm32l4xx_hal_flash.c ****   * @brief  FLASH end of operation interrupt callback.
 449:Drivers/STM32L4xx_HAL_Driver/Src/stm32l4xx_hal_flash.c ****   * @param  ReturnValue: The value saved in this parameter depends on the ongoing procedure
 450:Drivers/STM32L4xx_HAL_Driver/Src/stm32l4xx_hal_flash.c ****   *                  Mass Erase: Bank number which has been requested to erase
 451:Drivers/STM32L4xx_HAL_Driver/Src/stm32l4xx_hal_flash.c ****   *                  Page Erase: Page which has been erased
 452:Drivers/STM32L4xx_HAL_Driver/Src/stm32l4xx_hal_flash.c ****   *                    (if 0xFFFFFFFF, it means that all the selected pages have been erased)
 453:Drivers/STM32L4xx_HAL_Driver/Src/stm32l4xx_hal_flash.c ****   *                  Program: Address which was selected for data program
 454:Drivers/STM32L4xx_HAL_Driver/Src/stm32l4xx_hal_flash.c ****   * @retval None
 455:Drivers/STM32L4xx_HAL_Driver/Src/stm32l4xx_hal_flash.c ****   */
 456:Drivers/STM32L4xx_HAL_Driver/Src/stm32l4xx_hal_flash.c **** __weak void HAL_FLASH_EndOfOperationCallback(uint32_t ReturnValue)
 457:Drivers/STM32L4xx_HAL_Driver/Src/stm32l4xx_hal_flash.c **** {
 458:Drivers/STM32L4xx_HAL_Driver/Src/stm32l4xx_hal_flash.c ****   /* Prevent unused argument(s) compilation warning */
 459:Drivers/STM32L4xx_HAL_Driver/Src/stm32l4xx_hal_flash.c ****   UNUSED(ReturnValue);
 460:Drivers/STM32L4xx_HAL_Driver/Src/stm32l4xx_hal_flash.c **** 
 461:Drivers/STM32L4xx_HAL_Driver/Src/stm32l4xx_hal_flash.c ****   /* NOTE : This function should not be modified, when the callback is needed,
 462:Drivers/STM32L4xx_HAL_Driver/Src/stm32l4xx_hal_flash.c ****             the HAL_FLASH_EndOfOperationCallback could be implemented in the user file
 463:Drivers/STM32L4xx_HAL_Driver/Src/stm32l4xx_hal_flash.c ****    */
 464:Drivers/STM32L4xx_HAL_Driver/Src/stm32l4xx_hal_flash.c **** }
 465:Drivers/STM32L4xx_HAL_Driver/Src/stm32l4xx_hal_flash.c **** 
 466:Drivers/STM32L4xx_HAL_Driver/Src/stm32l4xx_hal_flash.c **** /**
 467:Drivers/STM32L4xx_HAL_Driver/Src/stm32l4xx_hal_flash.c ****   * @brief  FLASH operation error interrupt callback.
 468:Drivers/STM32L4xx_HAL_Driver/Src/stm32l4xx_hal_flash.c ****   * @param  ReturnValue: The value saved in this parameter depends on the ongoing procedure
 469:Drivers/STM32L4xx_HAL_Driver/Src/stm32l4xx_hal_flash.c ****   *                 Mass Erase: Bank number which has been requested to erase
 470:Drivers/STM32L4xx_HAL_Driver/Src/stm32l4xx_hal_flash.c ****   *                 Page Erase: Page number which returned an error
 471:Drivers/STM32L4xx_HAL_Driver/Src/stm32l4xx_hal_flash.c ****   *                 Program: Address which was selected for data program
 472:Drivers/STM32L4xx_HAL_Driver/Src/stm32l4xx_hal_flash.c ****   * @retval None
 473:Drivers/STM32L4xx_HAL_Driver/Src/stm32l4xx_hal_flash.c ****   */
 474:Drivers/STM32L4xx_HAL_Driver/Src/stm32l4xx_hal_flash.c **** __weak void HAL_FLASH_OperationErrorCallback(uint32_t ReturnValue)
 475:Drivers/STM32L4xx_HAL_Driver/Src/stm32l4xx_hal_flash.c **** {
 476:Drivers/STM32L4xx_HAL_Driver/Src/stm32l4xx_hal_flash.c ****   /* Prevent unused argument(s) compilation warning */
 477:Drivers/STM32L4xx_HAL_Driver/Src/stm32l4xx_hal_flash.c ****   UNUSED(ReturnValue);
 478:Drivers/STM32L4xx_HAL_Driver/Src/stm32l4xx_hal_flash.c **** 
 479:Drivers/STM32L4xx_HAL_Driver/Src/stm32l4xx_hal_flash.c ****   /* NOTE : This function should not be modified, when the callback is needed,
 480:Drivers/STM32L4xx_HAL_Driver/Src/stm32l4xx_hal_flash.c ****             the HAL_FLASH_OperationErrorCallback could be implemented in the user file
 481:Drivers/STM32L4xx_HAL_Driver/Src/stm32l4xx_hal_flash.c ****    */
 482:Drivers/STM32L4xx_HAL_Driver/Src/stm32l4xx_hal_flash.c **** }
 483:Drivers/STM32L4xx_HAL_Driver/Src/stm32l4xx_hal_flash.c **** 
 484:Drivers/STM32L4xx_HAL_Driver/Src/stm32l4xx_hal_flash.c **** /**
 485:Drivers/STM32L4xx_HAL_Driver/Src/stm32l4xx_hal_flash.c ****   * @}
 486:Drivers/STM32L4xx_HAL_Driver/Src/stm32l4xx_hal_flash.c ****   */
 487:Drivers/STM32L4xx_HAL_Driver/Src/stm32l4xx_hal_flash.c **** 
 488:Drivers/STM32L4xx_HAL_Driver/Src/stm32l4xx_hal_flash.c **** /** @defgroup FLASH_Exported_Functions_Group2 Peripheral Control functions
ARM GAS  C:\Users\hirot\AppData\Local\Temp\ccqjrqzk.s 			page 10


 489:Drivers/STM32L4xx_HAL_Driver/Src/stm32l4xx_hal_flash.c ****  *  @brief   Management functions
 490:Drivers/STM32L4xx_HAL_Driver/Src/stm32l4xx_hal_flash.c ****  *
 491:Drivers/STM32L4xx_HAL_Driver/Src/stm32l4xx_hal_flash.c **** @verbatim
 492:Drivers/STM32L4xx_HAL_Driver/Src/stm32l4xx_hal_flash.c ****  ===============================================================================
 493:Drivers/STM32L4xx_HAL_Driver/Src/stm32l4xx_hal_flash.c ****                       ##### Peripheral Control functions #####
 494:Drivers/STM32L4xx_HAL_Driver/Src/stm32l4xx_hal_flash.c ****  ===============================================================================
 495:Drivers/STM32L4xx_HAL_Driver/Src/stm32l4xx_hal_flash.c ****     [..]
 496:Drivers/STM32L4xx_HAL_Driver/Src/stm32l4xx_hal_flash.c ****     This subsection provides a set of functions allowing to control the FLASH
 497:Drivers/STM32L4xx_HAL_Driver/Src/stm32l4xx_hal_flash.c ****     memory operations.
 498:Drivers/STM32L4xx_HAL_Driver/Src/stm32l4xx_hal_flash.c **** 
 499:Drivers/STM32L4xx_HAL_Driver/Src/stm32l4xx_hal_flash.c **** @endverbatim
 500:Drivers/STM32L4xx_HAL_Driver/Src/stm32l4xx_hal_flash.c ****   * @{
 501:Drivers/STM32L4xx_HAL_Driver/Src/stm32l4xx_hal_flash.c ****   */
 502:Drivers/STM32L4xx_HAL_Driver/Src/stm32l4xx_hal_flash.c **** 
 503:Drivers/STM32L4xx_HAL_Driver/Src/stm32l4xx_hal_flash.c **** /**
 504:Drivers/STM32L4xx_HAL_Driver/Src/stm32l4xx_hal_flash.c ****   * @brief  Unlock the FLASH control register access.
 505:Drivers/STM32L4xx_HAL_Driver/Src/stm32l4xx_hal_flash.c ****   * @retval HAL Status
 506:Drivers/STM32L4xx_HAL_Driver/Src/stm32l4xx_hal_flash.c ****   */
 507:Drivers/STM32L4xx_HAL_Driver/Src/stm32l4xx_hal_flash.c **** HAL_StatusTypeDef HAL_FLASH_Unlock(void)
 508:Drivers/STM32L4xx_HAL_Driver/Src/stm32l4xx_hal_flash.c **** {
 509:Drivers/STM32L4xx_HAL_Driver/Src/stm32l4xx_hal_flash.c ****   HAL_StatusTypeDef status = HAL_OK;
 510:Drivers/STM32L4xx_HAL_Driver/Src/stm32l4xx_hal_flash.c **** 
 511:Drivers/STM32L4xx_HAL_Driver/Src/stm32l4xx_hal_flash.c ****   if(READ_BIT(FLASH->CR, FLASH_CR_LOCK) != 0U)
 512:Drivers/STM32L4xx_HAL_Driver/Src/stm32l4xx_hal_flash.c ****   {
 513:Drivers/STM32L4xx_HAL_Driver/Src/stm32l4xx_hal_flash.c ****     /* Authorize the FLASH Registers access */
 514:Drivers/STM32L4xx_HAL_Driver/Src/stm32l4xx_hal_flash.c ****     WRITE_REG(FLASH->KEYR, FLASH_KEY1);
 515:Drivers/STM32L4xx_HAL_Driver/Src/stm32l4xx_hal_flash.c ****     WRITE_REG(FLASH->KEYR, FLASH_KEY2);
 516:Drivers/STM32L4xx_HAL_Driver/Src/stm32l4xx_hal_flash.c **** 
 517:Drivers/STM32L4xx_HAL_Driver/Src/stm32l4xx_hal_flash.c ****     /* Verify Flash is unlocked */
 518:Drivers/STM32L4xx_HAL_Driver/Src/stm32l4xx_hal_flash.c ****     if(READ_BIT(FLASH->CR, FLASH_CR_LOCK) != 0U)
 519:Drivers/STM32L4xx_HAL_Driver/Src/stm32l4xx_hal_flash.c ****     {
 520:Drivers/STM32L4xx_HAL_Driver/Src/stm32l4xx_hal_flash.c ****       status = HAL_ERROR;
 521:Drivers/STM32L4xx_HAL_Driver/Src/stm32l4xx_hal_flash.c ****     }
 522:Drivers/STM32L4xx_HAL_Driver/Src/stm32l4xx_hal_flash.c ****   }
 523:Drivers/STM32L4xx_HAL_Driver/Src/stm32l4xx_hal_flash.c **** 
 524:Drivers/STM32L4xx_HAL_Driver/Src/stm32l4xx_hal_flash.c ****   return status;
 525:Drivers/STM32L4xx_HAL_Driver/Src/stm32l4xx_hal_flash.c **** }
 526:Drivers/STM32L4xx_HAL_Driver/Src/stm32l4xx_hal_flash.c **** 
 527:Drivers/STM32L4xx_HAL_Driver/Src/stm32l4xx_hal_flash.c **** /**
 528:Drivers/STM32L4xx_HAL_Driver/Src/stm32l4xx_hal_flash.c ****   * @brief  Lock the FLASH control register access.
 529:Drivers/STM32L4xx_HAL_Driver/Src/stm32l4xx_hal_flash.c ****   * @retval HAL Status
 530:Drivers/STM32L4xx_HAL_Driver/Src/stm32l4xx_hal_flash.c ****   */
 531:Drivers/STM32L4xx_HAL_Driver/Src/stm32l4xx_hal_flash.c **** HAL_StatusTypeDef HAL_FLASH_Lock(void)
 532:Drivers/STM32L4xx_HAL_Driver/Src/stm32l4xx_hal_flash.c **** {
 533:Drivers/STM32L4xx_HAL_Driver/Src/stm32l4xx_hal_flash.c ****   /* Set the LOCK Bit to lock the FLASH Registers access */
 534:Drivers/STM32L4xx_HAL_Driver/Src/stm32l4xx_hal_flash.c ****   SET_BIT(FLASH->CR, FLASH_CR_LOCK);
 535:Drivers/STM32L4xx_HAL_Driver/Src/stm32l4xx_hal_flash.c **** 
 536:Drivers/STM32L4xx_HAL_Driver/Src/stm32l4xx_hal_flash.c ****   return HAL_OK;
 537:Drivers/STM32L4xx_HAL_Driver/Src/stm32l4xx_hal_flash.c **** }
 538:Drivers/STM32L4xx_HAL_Driver/Src/stm32l4xx_hal_flash.c **** 
 539:Drivers/STM32L4xx_HAL_Driver/Src/stm32l4xx_hal_flash.c **** /**
 540:Drivers/STM32L4xx_HAL_Driver/Src/stm32l4xx_hal_flash.c ****   * @brief  Unlock the FLASH Option Bytes Registers access.
 541:Drivers/STM32L4xx_HAL_Driver/Src/stm32l4xx_hal_flash.c ****   * @retval HAL Status
 542:Drivers/STM32L4xx_HAL_Driver/Src/stm32l4xx_hal_flash.c ****   */
 543:Drivers/STM32L4xx_HAL_Driver/Src/stm32l4xx_hal_flash.c **** HAL_StatusTypeDef HAL_FLASH_OB_Unlock(void)
 544:Drivers/STM32L4xx_HAL_Driver/Src/stm32l4xx_hal_flash.c **** {
 545:Drivers/STM32L4xx_HAL_Driver/Src/stm32l4xx_hal_flash.c ****   if(READ_BIT(FLASH->CR, FLASH_CR_OPTLOCK) != 0U)
ARM GAS  C:\Users\hirot\AppData\Local\Temp\ccqjrqzk.s 			page 11


 546:Drivers/STM32L4xx_HAL_Driver/Src/stm32l4xx_hal_flash.c ****   {
 547:Drivers/STM32L4xx_HAL_Driver/Src/stm32l4xx_hal_flash.c ****     /* Authorizes the Option Byte register programming */
 548:Drivers/STM32L4xx_HAL_Driver/Src/stm32l4xx_hal_flash.c ****     WRITE_REG(FLASH->OPTKEYR, FLASH_OPTKEY1);
 549:Drivers/STM32L4xx_HAL_Driver/Src/stm32l4xx_hal_flash.c ****     WRITE_REG(FLASH->OPTKEYR, FLASH_OPTKEY2);
 550:Drivers/STM32L4xx_HAL_Driver/Src/stm32l4xx_hal_flash.c ****   }
 551:Drivers/STM32L4xx_HAL_Driver/Src/stm32l4xx_hal_flash.c ****   else
 552:Drivers/STM32L4xx_HAL_Driver/Src/stm32l4xx_hal_flash.c ****   {
 553:Drivers/STM32L4xx_HAL_Driver/Src/stm32l4xx_hal_flash.c ****     return HAL_ERROR;
 554:Drivers/STM32L4xx_HAL_Driver/Src/stm32l4xx_hal_flash.c ****   }
 555:Drivers/STM32L4xx_HAL_Driver/Src/stm32l4xx_hal_flash.c **** 
 556:Drivers/STM32L4xx_HAL_Driver/Src/stm32l4xx_hal_flash.c ****   return HAL_OK;
 557:Drivers/STM32L4xx_HAL_Driver/Src/stm32l4xx_hal_flash.c **** }
 558:Drivers/STM32L4xx_HAL_Driver/Src/stm32l4xx_hal_flash.c **** 
 559:Drivers/STM32L4xx_HAL_Driver/Src/stm32l4xx_hal_flash.c **** /**
 560:Drivers/STM32L4xx_HAL_Driver/Src/stm32l4xx_hal_flash.c ****   * @brief  Lock the FLASH Option Bytes Registers access.
 561:Drivers/STM32L4xx_HAL_Driver/Src/stm32l4xx_hal_flash.c ****   * @retval HAL Status
 562:Drivers/STM32L4xx_HAL_Driver/Src/stm32l4xx_hal_flash.c ****   */
 563:Drivers/STM32L4xx_HAL_Driver/Src/stm32l4xx_hal_flash.c **** HAL_StatusTypeDef HAL_FLASH_OB_Lock(void)
 564:Drivers/STM32L4xx_HAL_Driver/Src/stm32l4xx_hal_flash.c **** {
 565:Drivers/STM32L4xx_HAL_Driver/Src/stm32l4xx_hal_flash.c ****   /* Set the OPTLOCK Bit to lock the FLASH Option Byte Registers access */
 566:Drivers/STM32L4xx_HAL_Driver/Src/stm32l4xx_hal_flash.c ****   SET_BIT(FLASH->CR, FLASH_CR_OPTLOCK);
 567:Drivers/STM32L4xx_HAL_Driver/Src/stm32l4xx_hal_flash.c **** 
 568:Drivers/STM32L4xx_HAL_Driver/Src/stm32l4xx_hal_flash.c ****   return HAL_OK;
 569:Drivers/STM32L4xx_HAL_Driver/Src/stm32l4xx_hal_flash.c **** }
 570:Drivers/STM32L4xx_HAL_Driver/Src/stm32l4xx_hal_flash.c **** 
 571:Drivers/STM32L4xx_HAL_Driver/Src/stm32l4xx_hal_flash.c **** /**
 572:Drivers/STM32L4xx_HAL_Driver/Src/stm32l4xx_hal_flash.c ****   * @brief  Launch the option byte loading.
 573:Drivers/STM32L4xx_HAL_Driver/Src/stm32l4xx_hal_flash.c ****   * @retval HAL Status
 574:Drivers/STM32L4xx_HAL_Driver/Src/stm32l4xx_hal_flash.c ****   */
 575:Drivers/STM32L4xx_HAL_Driver/Src/stm32l4xx_hal_flash.c **** HAL_StatusTypeDef HAL_FLASH_OB_Launch(void)
 576:Drivers/STM32L4xx_HAL_Driver/Src/stm32l4xx_hal_flash.c **** {
 577:Drivers/STM32L4xx_HAL_Driver/Src/stm32l4xx_hal_flash.c ****   /* Set the bit to force the option byte reloading */
 578:Drivers/STM32L4xx_HAL_Driver/Src/stm32l4xx_hal_flash.c ****   SET_BIT(FLASH->CR, FLASH_CR_OBL_LAUNCH);
 579:Drivers/STM32L4xx_HAL_Driver/Src/stm32l4xx_hal_flash.c **** 
 580:Drivers/STM32L4xx_HAL_Driver/Src/stm32l4xx_hal_flash.c ****   /* Wait for last operation to be completed */
 581:Drivers/STM32L4xx_HAL_Driver/Src/stm32l4xx_hal_flash.c ****   return(FLASH_WaitForLastOperation((uint32_t)FLASH_TIMEOUT_VALUE));
 582:Drivers/STM32L4xx_HAL_Driver/Src/stm32l4xx_hal_flash.c **** }
 583:Drivers/STM32L4xx_HAL_Driver/Src/stm32l4xx_hal_flash.c **** 
 584:Drivers/STM32L4xx_HAL_Driver/Src/stm32l4xx_hal_flash.c **** /**
 585:Drivers/STM32L4xx_HAL_Driver/Src/stm32l4xx_hal_flash.c ****   * @}
 586:Drivers/STM32L4xx_HAL_Driver/Src/stm32l4xx_hal_flash.c ****   */
 587:Drivers/STM32L4xx_HAL_Driver/Src/stm32l4xx_hal_flash.c **** 
 588:Drivers/STM32L4xx_HAL_Driver/Src/stm32l4xx_hal_flash.c **** /** @defgroup FLASH_Exported_Functions_Group3 Peripheral State and Errors functions
 589:Drivers/STM32L4xx_HAL_Driver/Src/stm32l4xx_hal_flash.c ****  *  @brief   Peripheral Errors functions
 590:Drivers/STM32L4xx_HAL_Driver/Src/stm32l4xx_hal_flash.c ****  *
 591:Drivers/STM32L4xx_HAL_Driver/Src/stm32l4xx_hal_flash.c **** @verbatim
 592:Drivers/STM32L4xx_HAL_Driver/Src/stm32l4xx_hal_flash.c ****  ===============================================================================
 593:Drivers/STM32L4xx_HAL_Driver/Src/stm32l4xx_hal_flash.c ****                 ##### Peripheral Errors functions #####
 594:Drivers/STM32L4xx_HAL_Driver/Src/stm32l4xx_hal_flash.c ****  ===============================================================================
 595:Drivers/STM32L4xx_HAL_Driver/Src/stm32l4xx_hal_flash.c ****     [..]
 596:Drivers/STM32L4xx_HAL_Driver/Src/stm32l4xx_hal_flash.c ****     This subsection permits to get in run-time Errors of the FLASH peripheral.
 597:Drivers/STM32L4xx_HAL_Driver/Src/stm32l4xx_hal_flash.c **** 
 598:Drivers/STM32L4xx_HAL_Driver/Src/stm32l4xx_hal_flash.c **** @endverbatim
 599:Drivers/STM32L4xx_HAL_Driver/Src/stm32l4xx_hal_flash.c ****   * @{
 600:Drivers/STM32L4xx_HAL_Driver/Src/stm32l4xx_hal_flash.c ****   */
 601:Drivers/STM32L4xx_HAL_Driver/Src/stm32l4xx_hal_flash.c **** 
 602:Drivers/STM32L4xx_HAL_Driver/Src/stm32l4xx_hal_flash.c **** /**
ARM GAS  C:\Users\hirot\AppData\Local\Temp\ccqjrqzk.s 			page 12


 603:Drivers/STM32L4xx_HAL_Driver/Src/stm32l4xx_hal_flash.c ****   * @brief  Get the specific FLASH error flag.
 604:Drivers/STM32L4xx_HAL_Driver/Src/stm32l4xx_hal_flash.c ****   * @retval FLASH_ErrorCode: The returned value can be:
 605:Drivers/STM32L4xx_HAL_Driver/Src/stm32l4xx_hal_flash.c ****   *            @arg HAL_FLASH_ERROR_RD: FLASH Read Protection error flag (PCROP)
 606:Drivers/STM32L4xx_HAL_Driver/Src/stm32l4xx_hal_flash.c ****   *            @arg HAL_FLASH_ERROR_PGS: FLASH Programming Sequence error flag
 607:Drivers/STM32L4xx_HAL_Driver/Src/stm32l4xx_hal_flash.c ****   *            @arg HAL_FLASH_ERROR_PGP: FLASH Programming Parallelism error flag
 608:Drivers/STM32L4xx_HAL_Driver/Src/stm32l4xx_hal_flash.c ****   *            @arg HAL_FLASH_ERROR_PGA: FLASH Programming Alignment error flag
 609:Drivers/STM32L4xx_HAL_Driver/Src/stm32l4xx_hal_flash.c ****   *            @arg HAL_FLASH_ERROR_WRP: FLASH Write protected error flag
 610:Drivers/STM32L4xx_HAL_Driver/Src/stm32l4xx_hal_flash.c ****   *            @arg HAL_FLASH_ERROR_OPERATION: FLASH operation Error flag
 611:Drivers/STM32L4xx_HAL_Driver/Src/stm32l4xx_hal_flash.c ****   *            @arg HAL_FLASH_ERROR_NONE: No error set
 612:Drivers/STM32L4xx_HAL_Driver/Src/stm32l4xx_hal_flash.c ****   *            @arg HAL_FLASH_ERROR_OP: FLASH Operation error
 613:Drivers/STM32L4xx_HAL_Driver/Src/stm32l4xx_hal_flash.c ****   *            @arg HAL_FLASH_ERROR_PROG: FLASH Programming error
 614:Drivers/STM32L4xx_HAL_Driver/Src/stm32l4xx_hal_flash.c ****   *            @arg HAL_FLASH_ERROR_WRP: FLASH Write protection error
 615:Drivers/STM32L4xx_HAL_Driver/Src/stm32l4xx_hal_flash.c ****   *            @arg HAL_FLASH_ERROR_PGA: FLASH Programming alignment error
 616:Drivers/STM32L4xx_HAL_Driver/Src/stm32l4xx_hal_flash.c ****   *            @arg HAL_FLASH_ERROR_SIZ: FLASH Size error
 617:Drivers/STM32L4xx_HAL_Driver/Src/stm32l4xx_hal_flash.c ****   *            @arg HAL_FLASH_ERROR_PGS: FLASH Programming sequence error
 618:Drivers/STM32L4xx_HAL_Driver/Src/stm32l4xx_hal_flash.c ****   *            @arg HAL_FLASH_ERROR_MIS: FLASH Fast programming data miss error
 619:Drivers/STM32L4xx_HAL_Driver/Src/stm32l4xx_hal_flash.c ****   *            @arg HAL_FLASH_ERROR_FAST: FLASH Fast programming error
 620:Drivers/STM32L4xx_HAL_Driver/Src/stm32l4xx_hal_flash.c ****   *            @arg HAL_FLASH_ERROR_RD: FLASH PCROP read error
 621:Drivers/STM32L4xx_HAL_Driver/Src/stm32l4xx_hal_flash.c ****   *            @arg HAL_FLASH_ERROR_OPTV: FLASH Option validity error
 622:Drivers/STM32L4xx_HAL_Driver/Src/stm32l4xx_hal_flash.c ****   *            @arg FLASH_FLAG_PEMPTY : FLASH Boot from not programmed flash (apply only for STM32L
 623:Drivers/STM32L4xx_HAL_Driver/Src/stm32l4xx_hal_flash.c ****   *            @arg HAL_FLASH_ERROR_ECCD: FLASH two ECC errors have been detected
 624:Drivers/STM32L4xx_HAL_Driver/Src/stm32l4xx_hal_flash.c ****   */
 625:Drivers/STM32L4xx_HAL_Driver/Src/stm32l4xx_hal_flash.c **** uint32_t HAL_FLASH_GetError(void)
 626:Drivers/STM32L4xx_HAL_Driver/Src/stm32l4xx_hal_flash.c **** {
 627:Drivers/STM32L4xx_HAL_Driver/Src/stm32l4xx_hal_flash.c ****    return pFlash.ErrorCode;
 628:Drivers/STM32L4xx_HAL_Driver/Src/stm32l4xx_hal_flash.c **** }
 629:Drivers/STM32L4xx_HAL_Driver/Src/stm32l4xx_hal_flash.c **** 
 630:Drivers/STM32L4xx_HAL_Driver/Src/stm32l4xx_hal_flash.c **** /**
 631:Drivers/STM32L4xx_HAL_Driver/Src/stm32l4xx_hal_flash.c ****   * @}
 632:Drivers/STM32L4xx_HAL_Driver/Src/stm32l4xx_hal_flash.c ****   */
 633:Drivers/STM32L4xx_HAL_Driver/Src/stm32l4xx_hal_flash.c **** 
 634:Drivers/STM32L4xx_HAL_Driver/Src/stm32l4xx_hal_flash.c **** /**
 635:Drivers/STM32L4xx_HAL_Driver/Src/stm32l4xx_hal_flash.c ****   * @}
 636:Drivers/STM32L4xx_HAL_Driver/Src/stm32l4xx_hal_flash.c ****   */
 637:Drivers/STM32L4xx_HAL_Driver/Src/stm32l4xx_hal_flash.c **** 
 638:Drivers/STM32L4xx_HAL_Driver/Src/stm32l4xx_hal_flash.c **** /* Private functions ---------------------------------------------------------*/
 639:Drivers/STM32L4xx_HAL_Driver/Src/stm32l4xx_hal_flash.c **** 
 640:Drivers/STM32L4xx_HAL_Driver/Src/stm32l4xx_hal_flash.c **** /** @addtogroup FLASH_Private_Functions
 641:Drivers/STM32L4xx_HAL_Driver/Src/stm32l4xx_hal_flash.c ****   * @{
 642:Drivers/STM32L4xx_HAL_Driver/Src/stm32l4xx_hal_flash.c ****   */
 643:Drivers/STM32L4xx_HAL_Driver/Src/stm32l4xx_hal_flash.c **** 
 644:Drivers/STM32L4xx_HAL_Driver/Src/stm32l4xx_hal_flash.c **** /**
 645:Drivers/STM32L4xx_HAL_Driver/Src/stm32l4xx_hal_flash.c ****   * @brief  Wait for a FLASH operation to complete.
 646:Drivers/STM32L4xx_HAL_Driver/Src/stm32l4xx_hal_flash.c ****   * @param  Timeout: maximum flash operation timeout
 647:Drivers/STM32L4xx_HAL_Driver/Src/stm32l4xx_hal_flash.c ****   * @retval HAL_StatusTypeDef HAL Status
 648:Drivers/STM32L4xx_HAL_Driver/Src/stm32l4xx_hal_flash.c ****   */
 649:Drivers/STM32L4xx_HAL_Driver/Src/stm32l4xx_hal_flash.c **** HAL_StatusTypeDef FLASH_WaitForLastOperation(uint32_t Timeout)
 650:Drivers/STM32L4xx_HAL_Driver/Src/stm32l4xx_hal_flash.c **** {
 651:Drivers/STM32L4xx_HAL_Driver/Src/stm32l4xx_hal_flash.c ****   /* Wait for the FLASH operation to complete by polling on BUSY flag to be reset.
 652:Drivers/STM32L4xx_HAL_Driver/Src/stm32l4xx_hal_flash.c ****      Even if the FLASH operation fails, the BUSY flag will be reset and an error
 653:Drivers/STM32L4xx_HAL_Driver/Src/stm32l4xx_hal_flash.c ****      flag will be set */
 654:Drivers/STM32L4xx_HAL_Driver/Src/stm32l4xx_hal_flash.c **** 
 655:Drivers/STM32L4xx_HAL_Driver/Src/stm32l4xx_hal_flash.c ****   uint32_t tickstart = HAL_GetTick();
 656:Drivers/STM32L4xx_HAL_Driver/Src/stm32l4xx_hal_flash.c ****   uint32_t error;
 657:Drivers/STM32L4xx_HAL_Driver/Src/stm32l4xx_hal_flash.c **** 
 658:Drivers/STM32L4xx_HAL_Driver/Src/stm32l4xx_hal_flash.c ****   while(__HAL_FLASH_GET_FLAG(FLASH_FLAG_BSY))
 659:Drivers/STM32L4xx_HAL_Driver/Src/stm32l4xx_hal_flash.c ****   {
ARM GAS  C:\Users\hirot\AppData\Local\Temp\ccqjrqzk.s 			page 13


 660:Drivers/STM32L4xx_HAL_Driver/Src/stm32l4xx_hal_flash.c ****     if(Timeout != HAL_MAX_DELAY)
 661:Drivers/STM32L4xx_HAL_Driver/Src/stm32l4xx_hal_flash.c ****     {
 662:Drivers/STM32L4xx_HAL_Driver/Src/stm32l4xx_hal_flash.c ****       if((HAL_GetTick() - tickstart) >= Timeout)
 663:Drivers/STM32L4xx_HAL_Driver/Src/stm32l4xx_hal_flash.c ****       {
 664:Drivers/STM32L4xx_HAL_Driver/Src/stm32l4xx_hal_flash.c ****         return HAL_TIMEOUT;
 665:Drivers/STM32L4xx_HAL_Driver/Src/stm32l4xx_hal_flash.c ****       }
 666:Drivers/STM32L4xx_HAL_Driver/Src/stm32l4xx_hal_flash.c ****     }
 667:Drivers/STM32L4xx_HAL_Driver/Src/stm32l4xx_hal_flash.c ****   }
 668:Drivers/STM32L4xx_HAL_Driver/Src/stm32l4xx_hal_flash.c **** 
 669:Drivers/STM32L4xx_HAL_Driver/Src/stm32l4xx_hal_flash.c ****   error = (FLASH->SR & FLASH_FLAG_SR_ERRORS);
 670:Drivers/STM32L4xx_HAL_Driver/Src/stm32l4xx_hal_flash.c ****   error |= (FLASH->ECCR & FLASH_FLAG_ECCD);
 671:Drivers/STM32L4xx_HAL_Driver/Src/stm32l4xx_hal_flash.c **** 
 672:Drivers/STM32L4xx_HAL_Driver/Src/stm32l4xx_hal_flash.c ****   if(error != 0u)
 673:Drivers/STM32L4xx_HAL_Driver/Src/stm32l4xx_hal_flash.c ****   {
 674:Drivers/STM32L4xx_HAL_Driver/Src/stm32l4xx_hal_flash.c ****     /*Save the error code*/
 675:Drivers/STM32L4xx_HAL_Driver/Src/stm32l4xx_hal_flash.c ****     pFlash.ErrorCode |= error;
 676:Drivers/STM32L4xx_HAL_Driver/Src/stm32l4xx_hal_flash.c **** 
 677:Drivers/STM32L4xx_HAL_Driver/Src/stm32l4xx_hal_flash.c ****     /* Clear error programming flags */
 678:Drivers/STM32L4xx_HAL_Driver/Src/stm32l4xx_hal_flash.c ****     __HAL_FLASH_CLEAR_FLAG(error);
 679:Drivers/STM32L4xx_HAL_Driver/Src/stm32l4xx_hal_flash.c **** 
 680:Drivers/STM32L4xx_HAL_Driver/Src/stm32l4xx_hal_flash.c ****     return HAL_ERROR;
 681:Drivers/STM32L4xx_HAL_Driver/Src/stm32l4xx_hal_flash.c ****   }
 682:Drivers/STM32L4xx_HAL_Driver/Src/stm32l4xx_hal_flash.c **** 
 683:Drivers/STM32L4xx_HAL_Driver/Src/stm32l4xx_hal_flash.c ****   /* Check FLASH End of Operation flag  */
 684:Drivers/STM32L4xx_HAL_Driver/Src/stm32l4xx_hal_flash.c ****   if (__HAL_FLASH_GET_FLAG(FLASH_FLAG_EOP))
 685:Drivers/STM32L4xx_HAL_Driver/Src/stm32l4xx_hal_flash.c ****   {
 686:Drivers/STM32L4xx_HAL_Driver/Src/stm32l4xx_hal_flash.c ****     /* Clear FLASH End of Operation pending bit */
 687:Drivers/STM32L4xx_HAL_Driver/Src/stm32l4xx_hal_flash.c ****     __HAL_FLASH_CLEAR_FLAG(FLASH_FLAG_EOP);
 688:Drivers/STM32L4xx_HAL_Driver/Src/stm32l4xx_hal_flash.c ****   }
 689:Drivers/STM32L4xx_HAL_Driver/Src/stm32l4xx_hal_flash.c **** 
 690:Drivers/STM32L4xx_HAL_Driver/Src/stm32l4xx_hal_flash.c ****   /* If there is an error flag set */
 691:Drivers/STM32L4xx_HAL_Driver/Src/stm32l4xx_hal_flash.c ****   return HAL_OK;
 692:Drivers/STM32L4xx_HAL_Driver/Src/stm32l4xx_hal_flash.c **** }
 693:Drivers/STM32L4xx_HAL_Driver/Src/stm32l4xx_hal_flash.c **** 
 694:Drivers/STM32L4xx_HAL_Driver/Src/stm32l4xx_hal_flash.c **** /**
 695:Drivers/STM32L4xx_HAL_Driver/Src/stm32l4xx_hal_flash.c ****   * @brief  Program double-word (64-bit) at a specified address.
 696:Drivers/STM32L4xx_HAL_Driver/Src/stm32l4xx_hal_flash.c ****   * @param  Address: specifies the address to be programmed.
 697:Drivers/STM32L4xx_HAL_Driver/Src/stm32l4xx_hal_flash.c ****   * @param  Data: specifies the data to be programmed.
 698:Drivers/STM32L4xx_HAL_Driver/Src/stm32l4xx_hal_flash.c ****   * @retval None
 699:Drivers/STM32L4xx_HAL_Driver/Src/stm32l4xx_hal_flash.c ****   */
 700:Drivers/STM32L4xx_HAL_Driver/Src/stm32l4xx_hal_flash.c **** static void FLASH_Program_DoubleWord(uint32_t Address, uint64_t Data)
 701:Drivers/STM32L4xx_HAL_Driver/Src/stm32l4xx_hal_flash.c **** {
  27              		.loc 1 701 0
  28              		.cfi_startproc
  29              		@ args = 0, pretend = 0, frame = 0
  30              		@ frame_needed = 0, uses_anonymous_args = 0
  31              		@ link register save eliminated.
  32              	.LVL0:
  33 0000 10B4     		push	{r4}
  34              	.LCFI0:
  35              		.cfi_def_cfa_offset 4
  36              		.cfi_offset 4, -4
 702:Drivers/STM32L4xx_HAL_Driver/Src/stm32l4xx_hal_flash.c ****   /* Check the parameters */
 703:Drivers/STM32L4xx_HAL_Driver/Src/stm32l4xx_hal_flash.c ****   assert_param(IS_FLASH_PROGRAM_ADDRESS(Address));
 704:Drivers/STM32L4xx_HAL_Driver/Src/stm32l4xx_hal_flash.c **** 
 705:Drivers/STM32L4xx_HAL_Driver/Src/stm32l4xx_hal_flash.c ****   /* Set PG bit */
 706:Drivers/STM32L4xx_HAL_Driver/Src/stm32l4xx_hal_flash.c ****   SET_BIT(FLASH->CR, FLASH_CR_PG);
ARM GAS  C:\Users\hirot\AppData\Local\Temp\ccqjrqzk.s 			page 14


  37              		.loc 1 706 0
  38 0002 064C     		ldr	r4, .L3
  39 0004 6169     		ldr	r1, [r4, #20]
  40 0006 41F00101 		orr	r1, r1, #1
  41 000a 6161     		str	r1, [r4, #20]
 707:Drivers/STM32L4xx_HAL_Driver/Src/stm32l4xx_hal_flash.c **** 
 708:Drivers/STM32L4xx_HAL_Driver/Src/stm32l4xx_hal_flash.c ****   /* Program first word */
 709:Drivers/STM32L4xx_HAL_Driver/Src/stm32l4xx_hal_flash.c ****   *(__IO uint32_t*)Address = (uint32_t)Data;
  42              		.loc 1 709 0
  43 000c 0260     		str	r2, [r0]
  44              	.LBB10:
  45              	.LBB11:
  46              		.file 2 "Drivers/CMSIS/Include/cmsis_gcc.h"
   1:Drivers/CMSIS/Include/cmsis_gcc.h **** /**************************************************************************//**
   2:Drivers/CMSIS/Include/cmsis_gcc.h ****  * @file     cmsis_gcc.h
   3:Drivers/CMSIS/Include/cmsis_gcc.h ****  * @brief    CMSIS compiler GCC header file
   4:Drivers/CMSIS/Include/cmsis_gcc.h ****  * @version  V5.0.4
   5:Drivers/CMSIS/Include/cmsis_gcc.h ****  * @date     09. April 2018
   6:Drivers/CMSIS/Include/cmsis_gcc.h ****  ******************************************************************************/
   7:Drivers/CMSIS/Include/cmsis_gcc.h **** /*
   8:Drivers/CMSIS/Include/cmsis_gcc.h ****  * Copyright (c) 2009-2018 Arm Limited. All rights reserved.
   9:Drivers/CMSIS/Include/cmsis_gcc.h ****  *
  10:Drivers/CMSIS/Include/cmsis_gcc.h ****  * SPDX-License-Identifier: Apache-2.0
  11:Drivers/CMSIS/Include/cmsis_gcc.h ****  *
  12:Drivers/CMSIS/Include/cmsis_gcc.h ****  * Licensed under the Apache License, Version 2.0 (the License); you may
  13:Drivers/CMSIS/Include/cmsis_gcc.h ****  * not use this file except in compliance with the License.
  14:Drivers/CMSIS/Include/cmsis_gcc.h ****  * You may obtain a copy of the License at
  15:Drivers/CMSIS/Include/cmsis_gcc.h ****  *
  16:Drivers/CMSIS/Include/cmsis_gcc.h ****  * www.apache.org/licenses/LICENSE-2.0
  17:Drivers/CMSIS/Include/cmsis_gcc.h ****  *
  18:Drivers/CMSIS/Include/cmsis_gcc.h ****  * Unless required by applicable law or agreed to in writing, software
  19:Drivers/CMSIS/Include/cmsis_gcc.h ****  * distributed under the License is distributed on an AS IS BASIS, WITHOUT
  20:Drivers/CMSIS/Include/cmsis_gcc.h ****  * WARRANTIES OR CONDITIONS OF ANY KIND, either express or implied.
  21:Drivers/CMSIS/Include/cmsis_gcc.h ****  * See the License for the specific language governing permissions and
  22:Drivers/CMSIS/Include/cmsis_gcc.h ****  * limitations under the License.
  23:Drivers/CMSIS/Include/cmsis_gcc.h ****  */
  24:Drivers/CMSIS/Include/cmsis_gcc.h **** 
  25:Drivers/CMSIS/Include/cmsis_gcc.h **** #ifndef __CMSIS_GCC_H
  26:Drivers/CMSIS/Include/cmsis_gcc.h **** #define __CMSIS_GCC_H
  27:Drivers/CMSIS/Include/cmsis_gcc.h **** 
  28:Drivers/CMSIS/Include/cmsis_gcc.h **** /* ignore some GCC warnings */
  29:Drivers/CMSIS/Include/cmsis_gcc.h **** #pragma GCC diagnostic push
  30:Drivers/CMSIS/Include/cmsis_gcc.h **** #pragma GCC diagnostic ignored "-Wsign-conversion"
  31:Drivers/CMSIS/Include/cmsis_gcc.h **** #pragma GCC diagnostic ignored "-Wconversion"
  32:Drivers/CMSIS/Include/cmsis_gcc.h **** #pragma GCC diagnostic ignored "-Wunused-parameter"
  33:Drivers/CMSIS/Include/cmsis_gcc.h **** 
  34:Drivers/CMSIS/Include/cmsis_gcc.h **** /* Fallback for __has_builtin */
  35:Drivers/CMSIS/Include/cmsis_gcc.h **** #ifndef __has_builtin
  36:Drivers/CMSIS/Include/cmsis_gcc.h ****   #define __has_builtin(x) (0)
  37:Drivers/CMSIS/Include/cmsis_gcc.h **** #endif
  38:Drivers/CMSIS/Include/cmsis_gcc.h **** 
  39:Drivers/CMSIS/Include/cmsis_gcc.h **** /* CMSIS compiler specific defines */
  40:Drivers/CMSIS/Include/cmsis_gcc.h **** #ifndef   __ASM
  41:Drivers/CMSIS/Include/cmsis_gcc.h ****   #define __ASM                                  __asm
  42:Drivers/CMSIS/Include/cmsis_gcc.h **** #endif
  43:Drivers/CMSIS/Include/cmsis_gcc.h **** #ifndef   __INLINE
  44:Drivers/CMSIS/Include/cmsis_gcc.h ****   #define __INLINE                               inline
ARM GAS  C:\Users\hirot\AppData\Local\Temp\ccqjrqzk.s 			page 15


  45:Drivers/CMSIS/Include/cmsis_gcc.h **** #endif
  46:Drivers/CMSIS/Include/cmsis_gcc.h **** #ifndef   __STATIC_INLINE
  47:Drivers/CMSIS/Include/cmsis_gcc.h ****   #define __STATIC_INLINE                        static inline
  48:Drivers/CMSIS/Include/cmsis_gcc.h **** #endif
  49:Drivers/CMSIS/Include/cmsis_gcc.h **** #ifndef   __STATIC_FORCEINLINE                 
  50:Drivers/CMSIS/Include/cmsis_gcc.h ****   #define __STATIC_FORCEINLINE                   __attribute__((always_inline)) static inline
  51:Drivers/CMSIS/Include/cmsis_gcc.h **** #endif                                           
  52:Drivers/CMSIS/Include/cmsis_gcc.h **** #ifndef   __NO_RETURN
  53:Drivers/CMSIS/Include/cmsis_gcc.h ****   #define __NO_RETURN                            __attribute__((__noreturn__))
  54:Drivers/CMSIS/Include/cmsis_gcc.h **** #endif
  55:Drivers/CMSIS/Include/cmsis_gcc.h **** #ifndef   __USED
  56:Drivers/CMSIS/Include/cmsis_gcc.h ****   #define __USED                                 __attribute__((used))
  57:Drivers/CMSIS/Include/cmsis_gcc.h **** #endif
  58:Drivers/CMSIS/Include/cmsis_gcc.h **** #ifndef   __WEAK
  59:Drivers/CMSIS/Include/cmsis_gcc.h ****   #define __WEAK                                 __attribute__((weak))
  60:Drivers/CMSIS/Include/cmsis_gcc.h **** #endif
  61:Drivers/CMSIS/Include/cmsis_gcc.h **** #ifndef   __PACKED
  62:Drivers/CMSIS/Include/cmsis_gcc.h ****   #define __PACKED                               __attribute__((packed, aligned(1)))
  63:Drivers/CMSIS/Include/cmsis_gcc.h **** #endif
  64:Drivers/CMSIS/Include/cmsis_gcc.h **** #ifndef   __PACKED_STRUCT
  65:Drivers/CMSIS/Include/cmsis_gcc.h ****   #define __PACKED_STRUCT                        struct __attribute__((packed, aligned(1)))
  66:Drivers/CMSIS/Include/cmsis_gcc.h **** #endif
  67:Drivers/CMSIS/Include/cmsis_gcc.h **** #ifndef   __PACKED_UNION
  68:Drivers/CMSIS/Include/cmsis_gcc.h ****   #define __PACKED_UNION                         union __attribute__((packed, aligned(1)))
  69:Drivers/CMSIS/Include/cmsis_gcc.h **** #endif
  70:Drivers/CMSIS/Include/cmsis_gcc.h **** #ifndef   __UNALIGNED_UINT32        /* deprecated */
  71:Drivers/CMSIS/Include/cmsis_gcc.h ****   #pragma GCC diagnostic push
  72:Drivers/CMSIS/Include/cmsis_gcc.h ****   #pragma GCC diagnostic ignored "-Wpacked"
  73:Drivers/CMSIS/Include/cmsis_gcc.h ****   #pragma GCC diagnostic ignored "-Wattributes"
  74:Drivers/CMSIS/Include/cmsis_gcc.h ****   struct __attribute__((packed)) T_UINT32 { uint32_t v; };
  75:Drivers/CMSIS/Include/cmsis_gcc.h ****   #pragma GCC diagnostic pop
  76:Drivers/CMSIS/Include/cmsis_gcc.h ****   #define __UNALIGNED_UINT32(x)                  (((struct T_UINT32 *)(x))->v)
  77:Drivers/CMSIS/Include/cmsis_gcc.h **** #endif
  78:Drivers/CMSIS/Include/cmsis_gcc.h **** #ifndef   __UNALIGNED_UINT16_WRITE
  79:Drivers/CMSIS/Include/cmsis_gcc.h ****   #pragma GCC diagnostic push
  80:Drivers/CMSIS/Include/cmsis_gcc.h ****   #pragma GCC diagnostic ignored "-Wpacked"
  81:Drivers/CMSIS/Include/cmsis_gcc.h ****   #pragma GCC diagnostic ignored "-Wattributes"
  82:Drivers/CMSIS/Include/cmsis_gcc.h ****   __PACKED_STRUCT T_UINT16_WRITE { uint16_t v; };
  83:Drivers/CMSIS/Include/cmsis_gcc.h ****   #pragma GCC diagnostic pop
  84:Drivers/CMSIS/Include/cmsis_gcc.h ****   #define __UNALIGNED_UINT16_WRITE(addr, val)    (void)((((struct T_UINT16_WRITE *)(void *)(addr))-
  85:Drivers/CMSIS/Include/cmsis_gcc.h **** #endif
  86:Drivers/CMSIS/Include/cmsis_gcc.h **** #ifndef   __UNALIGNED_UINT16_READ
  87:Drivers/CMSIS/Include/cmsis_gcc.h ****   #pragma GCC diagnostic push
  88:Drivers/CMSIS/Include/cmsis_gcc.h ****   #pragma GCC diagnostic ignored "-Wpacked"
  89:Drivers/CMSIS/Include/cmsis_gcc.h ****   #pragma GCC diagnostic ignored "-Wattributes"
  90:Drivers/CMSIS/Include/cmsis_gcc.h ****   __PACKED_STRUCT T_UINT16_READ { uint16_t v; };
  91:Drivers/CMSIS/Include/cmsis_gcc.h ****   #pragma GCC diagnostic pop
  92:Drivers/CMSIS/Include/cmsis_gcc.h ****   #define __UNALIGNED_UINT16_READ(addr)          (((const struct T_UINT16_READ *)(const void *)(add
  93:Drivers/CMSIS/Include/cmsis_gcc.h **** #endif
  94:Drivers/CMSIS/Include/cmsis_gcc.h **** #ifndef   __UNALIGNED_UINT32_WRITE
  95:Drivers/CMSIS/Include/cmsis_gcc.h ****   #pragma GCC diagnostic push
  96:Drivers/CMSIS/Include/cmsis_gcc.h ****   #pragma GCC diagnostic ignored "-Wpacked"
  97:Drivers/CMSIS/Include/cmsis_gcc.h ****   #pragma GCC diagnostic ignored "-Wattributes"
  98:Drivers/CMSIS/Include/cmsis_gcc.h ****   __PACKED_STRUCT T_UINT32_WRITE { uint32_t v; };
  99:Drivers/CMSIS/Include/cmsis_gcc.h ****   #pragma GCC diagnostic pop
 100:Drivers/CMSIS/Include/cmsis_gcc.h ****   #define __UNALIGNED_UINT32_WRITE(addr, val)    (void)((((struct T_UINT32_WRITE *)(void *)(addr))-
 101:Drivers/CMSIS/Include/cmsis_gcc.h **** #endif
ARM GAS  C:\Users\hirot\AppData\Local\Temp\ccqjrqzk.s 			page 16


 102:Drivers/CMSIS/Include/cmsis_gcc.h **** #ifndef   __UNALIGNED_UINT32_READ
 103:Drivers/CMSIS/Include/cmsis_gcc.h ****   #pragma GCC diagnostic push
 104:Drivers/CMSIS/Include/cmsis_gcc.h ****   #pragma GCC diagnostic ignored "-Wpacked"
 105:Drivers/CMSIS/Include/cmsis_gcc.h ****   #pragma GCC diagnostic ignored "-Wattributes"
 106:Drivers/CMSIS/Include/cmsis_gcc.h ****   __PACKED_STRUCT T_UINT32_READ { uint32_t v; };
 107:Drivers/CMSIS/Include/cmsis_gcc.h ****   #pragma GCC diagnostic pop
 108:Drivers/CMSIS/Include/cmsis_gcc.h ****   #define __UNALIGNED_UINT32_READ(addr)          (((const struct T_UINT32_READ *)(const void *)(add
 109:Drivers/CMSIS/Include/cmsis_gcc.h **** #endif
 110:Drivers/CMSIS/Include/cmsis_gcc.h **** #ifndef   __ALIGNED
 111:Drivers/CMSIS/Include/cmsis_gcc.h ****   #define __ALIGNED(x)                           __attribute__((aligned(x)))
 112:Drivers/CMSIS/Include/cmsis_gcc.h **** #endif
 113:Drivers/CMSIS/Include/cmsis_gcc.h **** #ifndef   __RESTRICT
 114:Drivers/CMSIS/Include/cmsis_gcc.h ****   #define __RESTRICT                             __restrict
 115:Drivers/CMSIS/Include/cmsis_gcc.h **** #endif
 116:Drivers/CMSIS/Include/cmsis_gcc.h **** 
 117:Drivers/CMSIS/Include/cmsis_gcc.h **** 
 118:Drivers/CMSIS/Include/cmsis_gcc.h **** /* ###########################  Core Function Access  ########################### */
 119:Drivers/CMSIS/Include/cmsis_gcc.h **** /** \ingroup  CMSIS_Core_FunctionInterface
 120:Drivers/CMSIS/Include/cmsis_gcc.h ****     \defgroup CMSIS_Core_RegAccFunctions CMSIS Core Register Access Functions
 121:Drivers/CMSIS/Include/cmsis_gcc.h ****   @{
 122:Drivers/CMSIS/Include/cmsis_gcc.h ****  */
 123:Drivers/CMSIS/Include/cmsis_gcc.h **** 
 124:Drivers/CMSIS/Include/cmsis_gcc.h **** /**
 125:Drivers/CMSIS/Include/cmsis_gcc.h ****   \brief   Enable IRQ Interrupts
 126:Drivers/CMSIS/Include/cmsis_gcc.h ****   \details Enables IRQ interrupts by clearing the I-bit in the CPSR.
 127:Drivers/CMSIS/Include/cmsis_gcc.h ****            Can only be executed in Privileged modes.
 128:Drivers/CMSIS/Include/cmsis_gcc.h ****  */
 129:Drivers/CMSIS/Include/cmsis_gcc.h **** __STATIC_FORCEINLINE void __enable_irq(void)
 130:Drivers/CMSIS/Include/cmsis_gcc.h **** {
 131:Drivers/CMSIS/Include/cmsis_gcc.h ****   __ASM volatile ("cpsie i" : : : "memory");
 132:Drivers/CMSIS/Include/cmsis_gcc.h **** }
 133:Drivers/CMSIS/Include/cmsis_gcc.h **** 
 134:Drivers/CMSIS/Include/cmsis_gcc.h **** 
 135:Drivers/CMSIS/Include/cmsis_gcc.h **** /**
 136:Drivers/CMSIS/Include/cmsis_gcc.h ****   \brief   Disable IRQ Interrupts
 137:Drivers/CMSIS/Include/cmsis_gcc.h ****   \details Disables IRQ interrupts by setting the I-bit in the CPSR.
 138:Drivers/CMSIS/Include/cmsis_gcc.h ****            Can only be executed in Privileged modes.
 139:Drivers/CMSIS/Include/cmsis_gcc.h ****  */
 140:Drivers/CMSIS/Include/cmsis_gcc.h **** __STATIC_FORCEINLINE void __disable_irq(void)
 141:Drivers/CMSIS/Include/cmsis_gcc.h **** {
 142:Drivers/CMSIS/Include/cmsis_gcc.h ****   __ASM volatile ("cpsid i" : : : "memory");
 143:Drivers/CMSIS/Include/cmsis_gcc.h **** }
 144:Drivers/CMSIS/Include/cmsis_gcc.h **** 
 145:Drivers/CMSIS/Include/cmsis_gcc.h **** 
 146:Drivers/CMSIS/Include/cmsis_gcc.h **** /**
 147:Drivers/CMSIS/Include/cmsis_gcc.h ****   \brief   Get Control Register
 148:Drivers/CMSIS/Include/cmsis_gcc.h ****   \details Returns the content of the Control Register.
 149:Drivers/CMSIS/Include/cmsis_gcc.h ****   \return               Control Register value
 150:Drivers/CMSIS/Include/cmsis_gcc.h ****  */
 151:Drivers/CMSIS/Include/cmsis_gcc.h **** __STATIC_FORCEINLINE uint32_t __get_CONTROL(void)
 152:Drivers/CMSIS/Include/cmsis_gcc.h **** {
 153:Drivers/CMSIS/Include/cmsis_gcc.h ****   uint32_t result;
 154:Drivers/CMSIS/Include/cmsis_gcc.h **** 
 155:Drivers/CMSIS/Include/cmsis_gcc.h ****   __ASM volatile ("MRS %0, control" : "=r" (result) );
 156:Drivers/CMSIS/Include/cmsis_gcc.h ****   return(result);
 157:Drivers/CMSIS/Include/cmsis_gcc.h **** }
 158:Drivers/CMSIS/Include/cmsis_gcc.h **** 
ARM GAS  C:\Users\hirot\AppData\Local\Temp\ccqjrqzk.s 			page 17


 159:Drivers/CMSIS/Include/cmsis_gcc.h **** 
 160:Drivers/CMSIS/Include/cmsis_gcc.h **** #if (defined (__ARM_FEATURE_CMSE ) && (__ARM_FEATURE_CMSE == 3))
 161:Drivers/CMSIS/Include/cmsis_gcc.h **** /**
 162:Drivers/CMSIS/Include/cmsis_gcc.h ****   \brief   Get Control Register (non-secure)
 163:Drivers/CMSIS/Include/cmsis_gcc.h ****   \details Returns the content of the non-secure Control Register when in secure mode.
 164:Drivers/CMSIS/Include/cmsis_gcc.h ****   \return               non-secure Control Register value
 165:Drivers/CMSIS/Include/cmsis_gcc.h ****  */
 166:Drivers/CMSIS/Include/cmsis_gcc.h **** __STATIC_FORCEINLINE uint32_t __TZ_get_CONTROL_NS(void)
 167:Drivers/CMSIS/Include/cmsis_gcc.h **** {
 168:Drivers/CMSIS/Include/cmsis_gcc.h ****   uint32_t result;
 169:Drivers/CMSIS/Include/cmsis_gcc.h **** 
 170:Drivers/CMSIS/Include/cmsis_gcc.h ****   __ASM volatile ("MRS %0, control_ns" : "=r" (result) );
 171:Drivers/CMSIS/Include/cmsis_gcc.h ****   return(result);
 172:Drivers/CMSIS/Include/cmsis_gcc.h **** }
 173:Drivers/CMSIS/Include/cmsis_gcc.h **** #endif
 174:Drivers/CMSIS/Include/cmsis_gcc.h **** 
 175:Drivers/CMSIS/Include/cmsis_gcc.h **** 
 176:Drivers/CMSIS/Include/cmsis_gcc.h **** /**
 177:Drivers/CMSIS/Include/cmsis_gcc.h ****   \brief   Set Control Register
 178:Drivers/CMSIS/Include/cmsis_gcc.h ****   \details Writes the given value to the Control Register.
 179:Drivers/CMSIS/Include/cmsis_gcc.h ****   \param [in]    control  Control Register value to set
 180:Drivers/CMSIS/Include/cmsis_gcc.h ****  */
 181:Drivers/CMSIS/Include/cmsis_gcc.h **** __STATIC_FORCEINLINE void __set_CONTROL(uint32_t control)
 182:Drivers/CMSIS/Include/cmsis_gcc.h **** {
 183:Drivers/CMSIS/Include/cmsis_gcc.h ****   __ASM volatile ("MSR control, %0" : : "r" (control) : "memory");
 184:Drivers/CMSIS/Include/cmsis_gcc.h **** }
 185:Drivers/CMSIS/Include/cmsis_gcc.h **** 
 186:Drivers/CMSIS/Include/cmsis_gcc.h **** 
 187:Drivers/CMSIS/Include/cmsis_gcc.h **** #if (defined (__ARM_FEATURE_CMSE ) && (__ARM_FEATURE_CMSE == 3))
 188:Drivers/CMSIS/Include/cmsis_gcc.h **** /**
 189:Drivers/CMSIS/Include/cmsis_gcc.h ****   \brief   Set Control Register (non-secure)
 190:Drivers/CMSIS/Include/cmsis_gcc.h ****   \details Writes the given value to the non-secure Control Register when in secure state.
 191:Drivers/CMSIS/Include/cmsis_gcc.h ****   \param [in]    control  Control Register value to set
 192:Drivers/CMSIS/Include/cmsis_gcc.h ****  */
 193:Drivers/CMSIS/Include/cmsis_gcc.h **** __STATIC_FORCEINLINE void __TZ_set_CONTROL_NS(uint32_t control)
 194:Drivers/CMSIS/Include/cmsis_gcc.h **** {
 195:Drivers/CMSIS/Include/cmsis_gcc.h ****   __ASM volatile ("MSR control_ns, %0" : : "r" (control) : "memory");
 196:Drivers/CMSIS/Include/cmsis_gcc.h **** }
 197:Drivers/CMSIS/Include/cmsis_gcc.h **** #endif
 198:Drivers/CMSIS/Include/cmsis_gcc.h **** 
 199:Drivers/CMSIS/Include/cmsis_gcc.h **** 
 200:Drivers/CMSIS/Include/cmsis_gcc.h **** /**
 201:Drivers/CMSIS/Include/cmsis_gcc.h ****   \brief   Get IPSR Register
 202:Drivers/CMSIS/Include/cmsis_gcc.h ****   \details Returns the content of the IPSR Register.
 203:Drivers/CMSIS/Include/cmsis_gcc.h ****   \return               IPSR Register value
 204:Drivers/CMSIS/Include/cmsis_gcc.h ****  */
 205:Drivers/CMSIS/Include/cmsis_gcc.h **** __STATIC_FORCEINLINE uint32_t __get_IPSR(void)
 206:Drivers/CMSIS/Include/cmsis_gcc.h **** {
 207:Drivers/CMSIS/Include/cmsis_gcc.h ****   uint32_t result;
 208:Drivers/CMSIS/Include/cmsis_gcc.h **** 
 209:Drivers/CMSIS/Include/cmsis_gcc.h ****   __ASM volatile ("MRS %0, ipsr" : "=r" (result) );
 210:Drivers/CMSIS/Include/cmsis_gcc.h ****   return(result);
 211:Drivers/CMSIS/Include/cmsis_gcc.h **** }
 212:Drivers/CMSIS/Include/cmsis_gcc.h **** 
 213:Drivers/CMSIS/Include/cmsis_gcc.h **** 
 214:Drivers/CMSIS/Include/cmsis_gcc.h **** /**
 215:Drivers/CMSIS/Include/cmsis_gcc.h ****   \brief   Get APSR Register
ARM GAS  C:\Users\hirot\AppData\Local\Temp\ccqjrqzk.s 			page 18


 216:Drivers/CMSIS/Include/cmsis_gcc.h ****   \details Returns the content of the APSR Register.
 217:Drivers/CMSIS/Include/cmsis_gcc.h ****   \return               APSR Register value
 218:Drivers/CMSIS/Include/cmsis_gcc.h ****  */
 219:Drivers/CMSIS/Include/cmsis_gcc.h **** __STATIC_FORCEINLINE uint32_t __get_APSR(void)
 220:Drivers/CMSIS/Include/cmsis_gcc.h **** {
 221:Drivers/CMSIS/Include/cmsis_gcc.h ****   uint32_t result;
 222:Drivers/CMSIS/Include/cmsis_gcc.h **** 
 223:Drivers/CMSIS/Include/cmsis_gcc.h ****   __ASM volatile ("MRS %0, apsr" : "=r" (result) );
 224:Drivers/CMSIS/Include/cmsis_gcc.h ****   return(result);
 225:Drivers/CMSIS/Include/cmsis_gcc.h **** }
 226:Drivers/CMSIS/Include/cmsis_gcc.h **** 
 227:Drivers/CMSIS/Include/cmsis_gcc.h **** 
 228:Drivers/CMSIS/Include/cmsis_gcc.h **** /**
 229:Drivers/CMSIS/Include/cmsis_gcc.h ****   \brief   Get xPSR Register
 230:Drivers/CMSIS/Include/cmsis_gcc.h ****   \details Returns the content of the xPSR Register.
 231:Drivers/CMSIS/Include/cmsis_gcc.h ****   \return               xPSR Register value
 232:Drivers/CMSIS/Include/cmsis_gcc.h ****  */
 233:Drivers/CMSIS/Include/cmsis_gcc.h **** __STATIC_FORCEINLINE uint32_t __get_xPSR(void)
 234:Drivers/CMSIS/Include/cmsis_gcc.h **** {
 235:Drivers/CMSIS/Include/cmsis_gcc.h ****   uint32_t result;
 236:Drivers/CMSIS/Include/cmsis_gcc.h **** 
 237:Drivers/CMSIS/Include/cmsis_gcc.h ****   __ASM volatile ("MRS %0, xpsr" : "=r" (result) );
 238:Drivers/CMSIS/Include/cmsis_gcc.h ****   return(result);
 239:Drivers/CMSIS/Include/cmsis_gcc.h **** }
 240:Drivers/CMSIS/Include/cmsis_gcc.h **** 
 241:Drivers/CMSIS/Include/cmsis_gcc.h **** 
 242:Drivers/CMSIS/Include/cmsis_gcc.h **** /**
 243:Drivers/CMSIS/Include/cmsis_gcc.h ****   \brief   Get Process Stack Pointer
 244:Drivers/CMSIS/Include/cmsis_gcc.h ****   \details Returns the current value of the Process Stack Pointer (PSP).
 245:Drivers/CMSIS/Include/cmsis_gcc.h ****   \return               PSP Register value
 246:Drivers/CMSIS/Include/cmsis_gcc.h ****  */
 247:Drivers/CMSIS/Include/cmsis_gcc.h **** __STATIC_FORCEINLINE uint32_t __get_PSP(void)
 248:Drivers/CMSIS/Include/cmsis_gcc.h **** {
 249:Drivers/CMSIS/Include/cmsis_gcc.h ****   uint32_t result;
 250:Drivers/CMSIS/Include/cmsis_gcc.h **** 
 251:Drivers/CMSIS/Include/cmsis_gcc.h ****   __ASM volatile ("MRS %0, psp"  : "=r" (result) );
 252:Drivers/CMSIS/Include/cmsis_gcc.h ****   return(result);
 253:Drivers/CMSIS/Include/cmsis_gcc.h **** }
 254:Drivers/CMSIS/Include/cmsis_gcc.h **** 
 255:Drivers/CMSIS/Include/cmsis_gcc.h **** 
 256:Drivers/CMSIS/Include/cmsis_gcc.h **** #if (defined (__ARM_FEATURE_CMSE ) && (__ARM_FEATURE_CMSE == 3))
 257:Drivers/CMSIS/Include/cmsis_gcc.h **** /**
 258:Drivers/CMSIS/Include/cmsis_gcc.h ****   \brief   Get Process Stack Pointer (non-secure)
 259:Drivers/CMSIS/Include/cmsis_gcc.h ****   \details Returns the current value of the non-secure Process Stack Pointer (PSP) when in secure s
 260:Drivers/CMSIS/Include/cmsis_gcc.h ****   \return               PSP Register value
 261:Drivers/CMSIS/Include/cmsis_gcc.h ****  */
 262:Drivers/CMSIS/Include/cmsis_gcc.h **** __STATIC_FORCEINLINE uint32_t __TZ_get_PSP_NS(void)
 263:Drivers/CMSIS/Include/cmsis_gcc.h **** {
 264:Drivers/CMSIS/Include/cmsis_gcc.h ****   uint32_t result;
 265:Drivers/CMSIS/Include/cmsis_gcc.h **** 
 266:Drivers/CMSIS/Include/cmsis_gcc.h ****   __ASM volatile ("MRS %0, psp_ns"  : "=r" (result) );
 267:Drivers/CMSIS/Include/cmsis_gcc.h ****   return(result);
 268:Drivers/CMSIS/Include/cmsis_gcc.h **** }
 269:Drivers/CMSIS/Include/cmsis_gcc.h **** #endif
 270:Drivers/CMSIS/Include/cmsis_gcc.h **** 
 271:Drivers/CMSIS/Include/cmsis_gcc.h **** 
 272:Drivers/CMSIS/Include/cmsis_gcc.h **** /**
ARM GAS  C:\Users\hirot\AppData\Local\Temp\ccqjrqzk.s 			page 19


 273:Drivers/CMSIS/Include/cmsis_gcc.h ****   \brief   Set Process Stack Pointer
 274:Drivers/CMSIS/Include/cmsis_gcc.h ****   \details Assigns the given value to the Process Stack Pointer (PSP).
 275:Drivers/CMSIS/Include/cmsis_gcc.h ****   \param [in]    topOfProcStack  Process Stack Pointer value to set
 276:Drivers/CMSIS/Include/cmsis_gcc.h ****  */
 277:Drivers/CMSIS/Include/cmsis_gcc.h **** __STATIC_FORCEINLINE void __set_PSP(uint32_t topOfProcStack)
 278:Drivers/CMSIS/Include/cmsis_gcc.h **** {
 279:Drivers/CMSIS/Include/cmsis_gcc.h ****   __ASM volatile ("MSR psp, %0" : : "r" (topOfProcStack) : );
 280:Drivers/CMSIS/Include/cmsis_gcc.h **** }
 281:Drivers/CMSIS/Include/cmsis_gcc.h **** 
 282:Drivers/CMSIS/Include/cmsis_gcc.h **** 
 283:Drivers/CMSIS/Include/cmsis_gcc.h **** #if (defined (__ARM_FEATURE_CMSE ) && (__ARM_FEATURE_CMSE == 3))
 284:Drivers/CMSIS/Include/cmsis_gcc.h **** /**
 285:Drivers/CMSIS/Include/cmsis_gcc.h ****   \brief   Set Process Stack Pointer (non-secure)
 286:Drivers/CMSIS/Include/cmsis_gcc.h ****   \details Assigns the given value to the non-secure Process Stack Pointer (PSP) when in secure sta
 287:Drivers/CMSIS/Include/cmsis_gcc.h ****   \param [in]    topOfProcStack  Process Stack Pointer value to set
 288:Drivers/CMSIS/Include/cmsis_gcc.h ****  */
 289:Drivers/CMSIS/Include/cmsis_gcc.h **** __STATIC_FORCEINLINE void __TZ_set_PSP_NS(uint32_t topOfProcStack)
 290:Drivers/CMSIS/Include/cmsis_gcc.h **** {
 291:Drivers/CMSIS/Include/cmsis_gcc.h ****   __ASM volatile ("MSR psp_ns, %0" : : "r" (topOfProcStack) : );
 292:Drivers/CMSIS/Include/cmsis_gcc.h **** }
 293:Drivers/CMSIS/Include/cmsis_gcc.h **** #endif
 294:Drivers/CMSIS/Include/cmsis_gcc.h **** 
 295:Drivers/CMSIS/Include/cmsis_gcc.h **** 
 296:Drivers/CMSIS/Include/cmsis_gcc.h **** /**
 297:Drivers/CMSIS/Include/cmsis_gcc.h ****   \brief   Get Main Stack Pointer
 298:Drivers/CMSIS/Include/cmsis_gcc.h ****   \details Returns the current value of the Main Stack Pointer (MSP).
 299:Drivers/CMSIS/Include/cmsis_gcc.h ****   \return               MSP Register value
 300:Drivers/CMSIS/Include/cmsis_gcc.h ****  */
 301:Drivers/CMSIS/Include/cmsis_gcc.h **** __STATIC_FORCEINLINE uint32_t __get_MSP(void)
 302:Drivers/CMSIS/Include/cmsis_gcc.h **** {
 303:Drivers/CMSIS/Include/cmsis_gcc.h ****   uint32_t result;
 304:Drivers/CMSIS/Include/cmsis_gcc.h **** 
 305:Drivers/CMSIS/Include/cmsis_gcc.h ****   __ASM volatile ("MRS %0, msp" : "=r" (result) );
 306:Drivers/CMSIS/Include/cmsis_gcc.h ****   return(result);
 307:Drivers/CMSIS/Include/cmsis_gcc.h **** }
 308:Drivers/CMSIS/Include/cmsis_gcc.h **** 
 309:Drivers/CMSIS/Include/cmsis_gcc.h **** 
 310:Drivers/CMSIS/Include/cmsis_gcc.h **** #if (defined (__ARM_FEATURE_CMSE ) && (__ARM_FEATURE_CMSE == 3))
 311:Drivers/CMSIS/Include/cmsis_gcc.h **** /**
 312:Drivers/CMSIS/Include/cmsis_gcc.h ****   \brief   Get Main Stack Pointer (non-secure)
 313:Drivers/CMSIS/Include/cmsis_gcc.h ****   \details Returns the current value of the non-secure Main Stack Pointer (MSP) when in secure stat
 314:Drivers/CMSIS/Include/cmsis_gcc.h ****   \return               MSP Register value
 315:Drivers/CMSIS/Include/cmsis_gcc.h ****  */
 316:Drivers/CMSIS/Include/cmsis_gcc.h **** __STATIC_FORCEINLINE uint32_t __TZ_get_MSP_NS(void)
 317:Drivers/CMSIS/Include/cmsis_gcc.h **** {
 318:Drivers/CMSIS/Include/cmsis_gcc.h ****   uint32_t result;
 319:Drivers/CMSIS/Include/cmsis_gcc.h **** 
 320:Drivers/CMSIS/Include/cmsis_gcc.h ****   __ASM volatile ("MRS %0, msp_ns" : "=r" (result) );
 321:Drivers/CMSIS/Include/cmsis_gcc.h ****   return(result);
 322:Drivers/CMSIS/Include/cmsis_gcc.h **** }
 323:Drivers/CMSIS/Include/cmsis_gcc.h **** #endif
 324:Drivers/CMSIS/Include/cmsis_gcc.h **** 
 325:Drivers/CMSIS/Include/cmsis_gcc.h **** 
 326:Drivers/CMSIS/Include/cmsis_gcc.h **** /**
 327:Drivers/CMSIS/Include/cmsis_gcc.h ****   \brief   Set Main Stack Pointer
 328:Drivers/CMSIS/Include/cmsis_gcc.h ****   \details Assigns the given value to the Main Stack Pointer (MSP).
 329:Drivers/CMSIS/Include/cmsis_gcc.h ****   \param [in]    topOfMainStack  Main Stack Pointer value to set
ARM GAS  C:\Users\hirot\AppData\Local\Temp\ccqjrqzk.s 			page 20


 330:Drivers/CMSIS/Include/cmsis_gcc.h ****  */
 331:Drivers/CMSIS/Include/cmsis_gcc.h **** __STATIC_FORCEINLINE void __set_MSP(uint32_t topOfMainStack)
 332:Drivers/CMSIS/Include/cmsis_gcc.h **** {
 333:Drivers/CMSIS/Include/cmsis_gcc.h ****   __ASM volatile ("MSR msp, %0" : : "r" (topOfMainStack) : );
 334:Drivers/CMSIS/Include/cmsis_gcc.h **** }
 335:Drivers/CMSIS/Include/cmsis_gcc.h **** 
 336:Drivers/CMSIS/Include/cmsis_gcc.h **** 
 337:Drivers/CMSIS/Include/cmsis_gcc.h **** #if (defined (__ARM_FEATURE_CMSE ) && (__ARM_FEATURE_CMSE == 3))
 338:Drivers/CMSIS/Include/cmsis_gcc.h **** /**
 339:Drivers/CMSIS/Include/cmsis_gcc.h ****   \brief   Set Main Stack Pointer (non-secure)
 340:Drivers/CMSIS/Include/cmsis_gcc.h ****   \details Assigns the given value to the non-secure Main Stack Pointer (MSP) when in secure state.
 341:Drivers/CMSIS/Include/cmsis_gcc.h ****   \param [in]    topOfMainStack  Main Stack Pointer value to set
 342:Drivers/CMSIS/Include/cmsis_gcc.h ****  */
 343:Drivers/CMSIS/Include/cmsis_gcc.h **** __STATIC_FORCEINLINE void __TZ_set_MSP_NS(uint32_t topOfMainStack)
 344:Drivers/CMSIS/Include/cmsis_gcc.h **** {
 345:Drivers/CMSIS/Include/cmsis_gcc.h ****   __ASM volatile ("MSR msp_ns, %0" : : "r" (topOfMainStack) : );
 346:Drivers/CMSIS/Include/cmsis_gcc.h **** }
 347:Drivers/CMSIS/Include/cmsis_gcc.h **** #endif
 348:Drivers/CMSIS/Include/cmsis_gcc.h **** 
 349:Drivers/CMSIS/Include/cmsis_gcc.h **** 
 350:Drivers/CMSIS/Include/cmsis_gcc.h **** #if (defined (__ARM_FEATURE_CMSE ) && (__ARM_FEATURE_CMSE == 3))
 351:Drivers/CMSIS/Include/cmsis_gcc.h **** /**
 352:Drivers/CMSIS/Include/cmsis_gcc.h ****   \brief   Get Stack Pointer (non-secure)
 353:Drivers/CMSIS/Include/cmsis_gcc.h ****   \details Returns the current value of the non-secure Stack Pointer (SP) when in secure state.
 354:Drivers/CMSIS/Include/cmsis_gcc.h ****   \return               SP Register value
 355:Drivers/CMSIS/Include/cmsis_gcc.h ****  */
 356:Drivers/CMSIS/Include/cmsis_gcc.h **** __STATIC_FORCEINLINE uint32_t __TZ_get_SP_NS(void)
 357:Drivers/CMSIS/Include/cmsis_gcc.h **** {
 358:Drivers/CMSIS/Include/cmsis_gcc.h ****   uint32_t result;
 359:Drivers/CMSIS/Include/cmsis_gcc.h **** 
 360:Drivers/CMSIS/Include/cmsis_gcc.h ****   __ASM volatile ("MRS %0, sp_ns" : "=r" (result) );
 361:Drivers/CMSIS/Include/cmsis_gcc.h ****   return(result);
 362:Drivers/CMSIS/Include/cmsis_gcc.h **** }
 363:Drivers/CMSIS/Include/cmsis_gcc.h **** 
 364:Drivers/CMSIS/Include/cmsis_gcc.h **** 
 365:Drivers/CMSIS/Include/cmsis_gcc.h **** /**
 366:Drivers/CMSIS/Include/cmsis_gcc.h ****   \brief   Set Stack Pointer (non-secure)
 367:Drivers/CMSIS/Include/cmsis_gcc.h ****   \details Assigns the given value to the non-secure Stack Pointer (SP) when in secure state.
 368:Drivers/CMSIS/Include/cmsis_gcc.h ****   \param [in]    topOfStack  Stack Pointer value to set
 369:Drivers/CMSIS/Include/cmsis_gcc.h ****  */
 370:Drivers/CMSIS/Include/cmsis_gcc.h **** __STATIC_FORCEINLINE void __TZ_set_SP_NS(uint32_t topOfStack)
 371:Drivers/CMSIS/Include/cmsis_gcc.h **** {
 372:Drivers/CMSIS/Include/cmsis_gcc.h ****   __ASM volatile ("MSR sp_ns, %0" : : "r" (topOfStack) : );
 373:Drivers/CMSIS/Include/cmsis_gcc.h **** }
 374:Drivers/CMSIS/Include/cmsis_gcc.h **** #endif
 375:Drivers/CMSIS/Include/cmsis_gcc.h **** 
 376:Drivers/CMSIS/Include/cmsis_gcc.h **** 
 377:Drivers/CMSIS/Include/cmsis_gcc.h **** /**
 378:Drivers/CMSIS/Include/cmsis_gcc.h ****   \brief   Get Priority Mask
 379:Drivers/CMSIS/Include/cmsis_gcc.h ****   \details Returns the current state of the priority mask bit from the Priority Mask Register.
 380:Drivers/CMSIS/Include/cmsis_gcc.h ****   \return               Priority Mask value
 381:Drivers/CMSIS/Include/cmsis_gcc.h ****  */
 382:Drivers/CMSIS/Include/cmsis_gcc.h **** __STATIC_FORCEINLINE uint32_t __get_PRIMASK(void)
 383:Drivers/CMSIS/Include/cmsis_gcc.h **** {
 384:Drivers/CMSIS/Include/cmsis_gcc.h ****   uint32_t result;
 385:Drivers/CMSIS/Include/cmsis_gcc.h **** 
 386:Drivers/CMSIS/Include/cmsis_gcc.h ****   __ASM volatile ("MRS %0, primask" : "=r" (result) :: "memory");
ARM GAS  C:\Users\hirot\AppData\Local\Temp\ccqjrqzk.s 			page 21


 387:Drivers/CMSIS/Include/cmsis_gcc.h ****   return(result);
 388:Drivers/CMSIS/Include/cmsis_gcc.h **** }
 389:Drivers/CMSIS/Include/cmsis_gcc.h **** 
 390:Drivers/CMSIS/Include/cmsis_gcc.h **** 
 391:Drivers/CMSIS/Include/cmsis_gcc.h **** #if (defined (__ARM_FEATURE_CMSE ) && (__ARM_FEATURE_CMSE == 3))
 392:Drivers/CMSIS/Include/cmsis_gcc.h **** /**
 393:Drivers/CMSIS/Include/cmsis_gcc.h ****   \brief   Get Priority Mask (non-secure)
 394:Drivers/CMSIS/Include/cmsis_gcc.h ****   \details Returns the current state of the non-secure priority mask bit from the Priority Mask Reg
 395:Drivers/CMSIS/Include/cmsis_gcc.h ****   \return               Priority Mask value
 396:Drivers/CMSIS/Include/cmsis_gcc.h ****  */
 397:Drivers/CMSIS/Include/cmsis_gcc.h **** __STATIC_FORCEINLINE uint32_t __TZ_get_PRIMASK_NS(void)
 398:Drivers/CMSIS/Include/cmsis_gcc.h **** {
 399:Drivers/CMSIS/Include/cmsis_gcc.h ****   uint32_t result;
 400:Drivers/CMSIS/Include/cmsis_gcc.h **** 
 401:Drivers/CMSIS/Include/cmsis_gcc.h ****   __ASM volatile ("MRS %0, primask_ns" : "=r" (result) :: "memory");
 402:Drivers/CMSIS/Include/cmsis_gcc.h ****   return(result);
 403:Drivers/CMSIS/Include/cmsis_gcc.h **** }
 404:Drivers/CMSIS/Include/cmsis_gcc.h **** #endif
 405:Drivers/CMSIS/Include/cmsis_gcc.h **** 
 406:Drivers/CMSIS/Include/cmsis_gcc.h **** 
 407:Drivers/CMSIS/Include/cmsis_gcc.h **** /**
 408:Drivers/CMSIS/Include/cmsis_gcc.h ****   \brief   Set Priority Mask
 409:Drivers/CMSIS/Include/cmsis_gcc.h ****   \details Assigns the given value to the Priority Mask Register.
 410:Drivers/CMSIS/Include/cmsis_gcc.h ****   \param [in]    priMask  Priority Mask
 411:Drivers/CMSIS/Include/cmsis_gcc.h ****  */
 412:Drivers/CMSIS/Include/cmsis_gcc.h **** __STATIC_FORCEINLINE void __set_PRIMASK(uint32_t priMask)
 413:Drivers/CMSIS/Include/cmsis_gcc.h **** {
 414:Drivers/CMSIS/Include/cmsis_gcc.h ****   __ASM volatile ("MSR primask, %0" : : "r" (priMask) : "memory");
 415:Drivers/CMSIS/Include/cmsis_gcc.h **** }
 416:Drivers/CMSIS/Include/cmsis_gcc.h **** 
 417:Drivers/CMSIS/Include/cmsis_gcc.h **** 
 418:Drivers/CMSIS/Include/cmsis_gcc.h **** #if (defined (__ARM_FEATURE_CMSE ) && (__ARM_FEATURE_CMSE == 3))
 419:Drivers/CMSIS/Include/cmsis_gcc.h **** /**
 420:Drivers/CMSIS/Include/cmsis_gcc.h ****   \brief   Set Priority Mask (non-secure)
 421:Drivers/CMSIS/Include/cmsis_gcc.h ****   \details Assigns the given value to the non-secure Priority Mask Register when in secure state.
 422:Drivers/CMSIS/Include/cmsis_gcc.h ****   \param [in]    priMask  Priority Mask
 423:Drivers/CMSIS/Include/cmsis_gcc.h ****  */
 424:Drivers/CMSIS/Include/cmsis_gcc.h **** __STATIC_FORCEINLINE void __TZ_set_PRIMASK_NS(uint32_t priMask)
 425:Drivers/CMSIS/Include/cmsis_gcc.h **** {
 426:Drivers/CMSIS/Include/cmsis_gcc.h ****   __ASM volatile ("MSR primask_ns, %0" : : "r" (priMask) : "memory");
 427:Drivers/CMSIS/Include/cmsis_gcc.h **** }
 428:Drivers/CMSIS/Include/cmsis_gcc.h **** #endif
 429:Drivers/CMSIS/Include/cmsis_gcc.h **** 
 430:Drivers/CMSIS/Include/cmsis_gcc.h **** 
 431:Drivers/CMSIS/Include/cmsis_gcc.h **** #if ((defined (__ARM_ARCH_7M__      ) && (__ARM_ARCH_7M__      == 1)) || \
 432:Drivers/CMSIS/Include/cmsis_gcc.h ****      (defined (__ARM_ARCH_7EM__     ) && (__ARM_ARCH_7EM__     == 1)) || \
 433:Drivers/CMSIS/Include/cmsis_gcc.h ****      (defined (__ARM_ARCH_8M_MAIN__ ) && (__ARM_ARCH_8M_MAIN__ == 1))    )
 434:Drivers/CMSIS/Include/cmsis_gcc.h **** /**
 435:Drivers/CMSIS/Include/cmsis_gcc.h ****   \brief   Enable FIQ
 436:Drivers/CMSIS/Include/cmsis_gcc.h ****   \details Enables FIQ interrupts by clearing the F-bit in the CPSR.
 437:Drivers/CMSIS/Include/cmsis_gcc.h ****            Can only be executed in Privileged modes.
 438:Drivers/CMSIS/Include/cmsis_gcc.h ****  */
 439:Drivers/CMSIS/Include/cmsis_gcc.h **** __STATIC_FORCEINLINE void __enable_fault_irq(void)
 440:Drivers/CMSIS/Include/cmsis_gcc.h **** {
 441:Drivers/CMSIS/Include/cmsis_gcc.h ****   __ASM volatile ("cpsie f" : : : "memory");
 442:Drivers/CMSIS/Include/cmsis_gcc.h **** }
 443:Drivers/CMSIS/Include/cmsis_gcc.h **** 
ARM GAS  C:\Users\hirot\AppData\Local\Temp\ccqjrqzk.s 			page 22


 444:Drivers/CMSIS/Include/cmsis_gcc.h **** 
 445:Drivers/CMSIS/Include/cmsis_gcc.h **** /**
 446:Drivers/CMSIS/Include/cmsis_gcc.h ****   \brief   Disable FIQ
 447:Drivers/CMSIS/Include/cmsis_gcc.h ****   \details Disables FIQ interrupts by setting the F-bit in the CPSR.
 448:Drivers/CMSIS/Include/cmsis_gcc.h ****            Can only be executed in Privileged modes.
 449:Drivers/CMSIS/Include/cmsis_gcc.h ****  */
 450:Drivers/CMSIS/Include/cmsis_gcc.h **** __STATIC_FORCEINLINE void __disable_fault_irq(void)
 451:Drivers/CMSIS/Include/cmsis_gcc.h **** {
 452:Drivers/CMSIS/Include/cmsis_gcc.h ****   __ASM volatile ("cpsid f" : : : "memory");
 453:Drivers/CMSIS/Include/cmsis_gcc.h **** }
 454:Drivers/CMSIS/Include/cmsis_gcc.h **** 
 455:Drivers/CMSIS/Include/cmsis_gcc.h **** 
 456:Drivers/CMSIS/Include/cmsis_gcc.h **** /**
 457:Drivers/CMSIS/Include/cmsis_gcc.h ****   \brief   Get Base Priority
 458:Drivers/CMSIS/Include/cmsis_gcc.h ****   \details Returns the current value of the Base Priority register.
 459:Drivers/CMSIS/Include/cmsis_gcc.h ****   \return               Base Priority register value
 460:Drivers/CMSIS/Include/cmsis_gcc.h ****  */
 461:Drivers/CMSIS/Include/cmsis_gcc.h **** __STATIC_FORCEINLINE uint32_t __get_BASEPRI(void)
 462:Drivers/CMSIS/Include/cmsis_gcc.h **** {
 463:Drivers/CMSIS/Include/cmsis_gcc.h ****   uint32_t result;
 464:Drivers/CMSIS/Include/cmsis_gcc.h **** 
 465:Drivers/CMSIS/Include/cmsis_gcc.h ****   __ASM volatile ("MRS %0, basepri" : "=r" (result) );
 466:Drivers/CMSIS/Include/cmsis_gcc.h ****   return(result);
 467:Drivers/CMSIS/Include/cmsis_gcc.h **** }
 468:Drivers/CMSIS/Include/cmsis_gcc.h **** 
 469:Drivers/CMSIS/Include/cmsis_gcc.h **** 
 470:Drivers/CMSIS/Include/cmsis_gcc.h **** #if (defined (__ARM_FEATURE_CMSE ) && (__ARM_FEATURE_CMSE == 3))
 471:Drivers/CMSIS/Include/cmsis_gcc.h **** /**
 472:Drivers/CMSIS/Include/cmsis_gcc.h ****   \brief   Get Base Priority (non-secure)
 473:Drivers/CMSIS/Include/cmsis_gcc.h ****   \details Returns the current value of the non-secure Base Priority register when in secure state.
 474:Drivers/CMSIS/Include/cmsis_gcc.h ****   \return               Base Priority register value
 475:Drivers/CMSIS/Include/cmsis_gcc.h ****  */
 476:Drivers/CMSIS/Include/cmsis_gcc.h **** __STATIC_FORCEINLINE uint32_t __TZ_get_BASEPRI_NS(void)
 477:Drivers/CMSIS/Include/cmsis_gcc.h **** {
 478:Drivers/CMSIS/Include/cmsis_gcc.h ****   uint32_t result;
 479:Drivers/CMSIS/Include/cmsis_gcc.h **** 
 480:Drivers/CMSIS/Include/cmsis_gcc.h ****   __ASM volatile ("MRS %0, basepri_ns" : "=r" (result) );
 481:Drivers/CMSIS/Include/cmsis_gcc.h ****   return(result);
 482:Drivers/CMSIS/Include/cmsis_gcc.h **** }
 483:Drivers/CMSIS/Include/cmsis_gcc.h **** #endif
 484:Drivers/CMSIS/Include/cmsis_gcc.h **** 
 485:Drivers/CMSIS/Include/cmsis_gcc.h **** 
 486:Drivers/CMSIS/Include/cmsis_gcc.h **** /**
 487:Drivers/CMSIS/Include/cmsis_gcc.h ****   \brief   Set Base Priority
 488:Drivers/CMSIS/Include/cmsis_gcc.h ****   \details Assigns the given value to the Base Priority register.
 489:Drivers/CMSIS/Include/cmsis_gcc.h ****   \param [in]    basePri  Base Priority value to set
 490:Drivers/CMSIS/Include/cmsis_gcc.h ****  */
 491:Drivers/CMSIS/Include/cmsis_gcc.h **** __STATIC_FORCEINLINE void __set_BASEPRI(uint32_t basePri)
 492:Drivers/CMSIS/Include/cmsis_gcc.h **** {
 493:Drivers/CMSIS/Include/cmsis_gcc.h ****   __ASM volatile ("MSR basepri, %0" : : "r" (basePri) : "memory");
 494:Drivers/CMSIS/Include/cmsis_gcc.h **** }
 495:Drivers/CMSIS/Include/cmsis_gcc.h **** 
 496:Drivers/CMSIS/Include/cmsis_gcc.h **** 
 497:Drivers/CMSIS/Include/cmsis_gcc.h **** #if (defined (__ARM_FEATURE_CMSE ) && (__ARM_FEATURE_CMSE == 3))
 498:Drivers/CMSIS/Include/cmsis_gcc.h **** /**
 499:Drivers/CMSIS/Include/cmsis_gcc.h ****   \brief   Set Base Priority (non-secure)
 500:Drivers/CMSIS/Include/cmsis_gcc.h ****   \details Assigns the given value to the non-secure Base Priority register when in secure state.
ARM GAS  C:\Users\hirot\AppData\Local\Temp\ccqjrqzk.s 			page 23


 501:Drivers/CMSIS/Include/cmsis_gcc.h ****   \param [in]    basePri  Base Priority value to set
 502:Drivers/CMSIS/Include/cmsis_gcc.h ****  */
 503:Drivers/CMSIS/Include/cmsis_gcc.h **** __STATIC_FORCEINLINE void __TZ_set_BASEPRI_NS(uint32_t basePri)
 504:Drivers/CMSIS/Include/cmsis_gcc.h **** {
 505:Drivers/CMSIS/Include/cmsis_gcc.h ****   __ASM volatile ("MSR basepri_ns, %0" : : "r" (basePri) : "memory");
 506:Drivers/CMSIS/Include/cmsis_gcc.h **** }
 507:Drivers/CMSIS/Include/cmsis_gcc.h **** #endif
 508:Drivers/CMSIS/Include/cmsis_gcc.h **** 
 509:Drivers/CMSIS/Include/cmsis_gcc.h **** 
 510:Drivers/CMSIS/Include/cmsis_gcc.h **** /**
 511:Drivers/CMSIS/Include/cmsis_gcc.h ****   \brief   Set Base Priority with condition
 512:Drivers/CMSIS/Include/cmsis_gcc.h ****   \details Assigns the given value to the Base Priority register only if BASEPRI masking is disable
 513:Drivers/CMSIS/Include/cmsis_gcc.h ****            or the new value increases the BASEPRI priority level.
 514:Drivers/CMSIS/Include/cmsis_gcc.h ****   \param [in]    basePri  Base Priority value to set
 515:Drivers/CMSIS/Include/cmsis_gcc.h ****  */
 516:Drivers/CMSIS/Include/cmsis_gcc.h **** __STATIC_FORCEINLINE void __set_BASEPRI_MAX(uint32_t basePri)
 517:Drivers/CMSIS/Include/cmsis_gcc.h **** {
 518:Drivers/CMSIS/Include/cmsis_gcc.h ****   __ASM volatile ("MSR basepri_max, %0" : : "r" (basePri) : "memory");
 519:Drivers/CMSIS/Include/cmsis_gcc.h **** }
 520:Drivers/CMSIS/Include/cmsis_gcc.h **** 
 521:Drivers/CMSIS/Include/cmsis_gcc.h **** 
 522:Drivers/CMSIS/Include/cmsis_gcc.h **** /**
 523:Drivers/CMSIS/Include/cmsis_gcc.h ****   \brief   Get Fault Mask
 524:Drivers/CMSIS/Include/cmsis_gcc.h ****   \details Returns the current value of the Fault Mask register.
 525:Drivers/CMSIS/Include/cmsis_gcc.h ****   \return               Fault Mask register value
 526:Drivers/CMSIS/Include/cmsis_gcc.h ****  */
 527:Drivers/CMSIS/Include/cmsis_gcc.h **** __STATIC_FORCEINLINE uint32_t __get_FAULTMASK(void)
 528:Drivers/CMSIS/Include/cmsis_gcc.h **** {
 529:Drivers/CMSIS/Include/cmsis_gcc.h ****   uint32_t result;
 530:Drivers/CMSIS/Include/cmsis_gcc.h **** 
 531:Drivers/CMSIS/Include/cmsis_gcc.h ****   __ASM volatile ("MRS %0, faultmask" : "=r" (result) );
 532:Drivers/CMSIS/Include/cmsis_gcc.h ****   return(result);
 533:Drivers/CMSIS/Include/cmsis_gcc.h **** }
 534:Drivers/CMSIS/Include/cmsis_gcc.h **** 
 535:Drivers/CMSIS/Include/cmsis_gcc.h **** 
 536:Drivers/CMSIS/Include/cmsis_gcc.h **** #if (defined (__ARM_FEATURE_CMSE ) && (__ARM_FEATURE_CMSE == 3))
 537:Drivers/CMSIS/Include/cmsis_gcc.h **** /**
 538:Drivers/CMSIS/Include/cmsis_gcc.h ****   \brief   Get Fault Mask (non-secure)
 539:Drivers/CMSIS/Include/cmsis_gcc.h ****   \details Returns the current value of the non-secure Fault Mask register when in secure state.
 540:Drivers/CMSIS/Include/cmsis_gcc.h ****   \return               Fault Mask register value
 541:Drivers/CMSIS/Include/cmsis_gcc.h ****  */
 542:Drivers/CMSIS/Include/cmsis_gcc.h **** __STATIC_FORCEINLINE uint32_t __TZ_get_FAULTMASK_NS(void)
 543:Drivers/CMSIS/Include/cmsis_gcc.h **** {
 544:Drivers/CMSIS/Include/cmsis_gcc.h ****   uint32_t result;
 545:Drivers/CMSIS/Include/cmsis_gcc.h **** 
 546:Drivers/CMSIS/Include/cmsis_gcc.h ****   __ASM volatile ("MRS %0, faultmask_ns" : "=r" (result) );
 547:Drivers/CMSIS/Include/cmsis_gcc.h ****   return(result);
 548:Drivers/CMSIS/Include/cmsis_gcc.h **** }
 549:Drivers/CMSIS/Include/cmsis_gcc.h **** #endif
 550:Drivers/CMSIS/Include/cmsis_gcc.h **** 
 551:Drivers/CMSIS/Include/cmsis_gcc.h **** 
 552:Drivers/CMSIS/Include/cmsis_gcc.h **** /**
 553:Drivers/CMSIS/Include/cmsis_gcc.h ****   \brief   Set Fault Mask
 554:Drivers/CMSIS/Include/cmsis_gcc.h ****   \details Assigns the given value to the Fault Mask register.
 555:Drivers/CMSIS/Include/cmsis_gcc.h ****   \param [in]    faultMask  Fault Mask value to set
 556:Drivers/CMSIS/Include/cmsis_gcc.h ****  */
 557:Drivers/CMSIS/Include/cmsis_gcc.h **** __STATIC_FORCEINLINE void __set_FAULTMASK(uint32_t faultMask)
ARM GAS  C:\Users\hirot\AppData\Local\Temp\ccqjrqzk.s 			page 24


 558:Drivers/CMSIS/Include/cmsis_gcc.h **** {
 559:Drivers/CMSIS/Include/cmsis_gcc.h ****   __ASM volatile ("MSR faultmask, %0" : : "r" (faultMask) : "memory");
 560:Drivers/CMSIS/Include/cmsis_gcc.h **** }
 561:Drivers/CMSIS/Include/cmsis_gcc.h **** 
 562:Drivers/CMSIS/Include/cmsis_gcc.h **** 
 563:Drivers/CMSIS/Include/cmsis_gcc.h **** #if (defined (__ARM_FEATURE_CMSE ) && (__ARM_FEATURE_CMSE == 3))
 564:Drivers/CMSIS/Include/cmsis_gcc.h **** /**
 565:Drivers/CMSIS/Include/cmsis_gcc.h ****   \brief   Set Fault Mask (non-secure)
 566:Drivers/CMSIS/Include/cmsis_gcc.h ****   \details Assigns the given value to the non-secure Fault Mask register when in secure state.
 567:Drivers/CMSIS/Include/cmsis_gcc.h ****   \param [in]    faultMask  Fault Mask value to set
 568:Drivers/CMSIS/Include/cmsis_gcc.h ****  */
 569:Drivers/CMSIS/Include/cmsis_gcc.h **** __STATIC_FORCEINLINE void __TZ_set_FAULTMASK_NS(uint32_t faultMask)
 570:Drivers/CMSIS/Include/cmsis_gcc.h **** {
 571:Drivers/CMSIS/Include/cmsis_gcc.h ****   __ASM volatile ("MSR faultmask_ns, %0" : : "r" (faultMask) : "memory");
 572:Drivers/CMSIS/Include/cmsis_gcc.h **** }
 573:Drivers/CMSIS/Include/cmsis_gcc.h **** #endif
 574:Drivers/CMSIS/Include/cmsis_gcc.h **** 
 575:Drivers/CMSIS/Include/cmsis_gcc.h **** #endif /* ((defined (__ARM_ARCH_7M__      ) && (__ARM_ARCH_7M__      == 1)) || \
 576:Drivers/CMSIS/Include/cmsis_gcc.h ****            (defined (__ARM_ARCH_7EM__     ) && (__ARM_ARCH_7EM__     == 1)) || \
 577:Drivers/CMSIS/Include/cmsis_gcc.h ****            (defined (__ARM_ARCH_8M_MAIN__ ) && (__ARM_ARCH_8M_MAIN__ == 1))    ) */
 578:Drivers/CMSIS/Include/cmsis_gcc.h **** 
 579:Drivers/CMSIS/Include/cmsis_gcc.h **** 
 580:Drivers/CMSIS/Include/cmsis_gcc.h **** #if ((defined (__ARM_ARCH_8M_MAIN__ ) && (__ARM_ARCH_8M_MAIN__ == 1)) || \
 581:Drivers/CMSIS/Include/cmsis_gcc.h ****      (defined (__ARM_ARCH_8M_BASE__ ) && (__ARM_ARCH_8M_BASE__ == 1))    )
 582:Drivers/CMSIS/Include/cmsis_gcc.h **** 
 583:Drivers/CMSIS/Include/cmsis_gcc.h **** /**
 584:Drivers/CMSIS/Include/cmsis_gcc.h ****   \brief   Get Process Stack Pointer Limit
 585:Drivers/CMSIS/Include/cmsis_gcc.h ****   Devices without ARMv8-M Main Extensions (i.e. Cortex-M23) lack the non-secure
 586:Drivers/CMSIS/Include/cmsis_gcc.h ****   Stack Pointer Limit register hence zero is returned always in non-secure
 587:Drivers/CMSIS/Include/cmsis_gcc.h ****   mode.
 588:Drivers/CMSIS/Include/cmsis_gcc.h ****   
 589:Drivers/CMSIS/Include/cmsis_gcc.h ****   \details Returns the current value of the Process Stack Pointer Limit (PSPLIM).
 590:Drivers/CMSIS/Include/cmsis_gcc.h ****   \return               PSPLIM Register value
 591:Drivers/CMSIS/Include/cmsis_gcc.h ****  */
 592:Drivers/CMSIS/Include/cmsis_gcc.h **** __STATIC_FORCEINLINE uint32_t __get_PSPLIM(void)
 593:Drivers/CMSIS/Include/cmsis_gcc.h **** {
 594:Drivers/CMSIS/Include/cmsis_gcc.h **** #if (!(defined (__ARM_ARCH_8M_MAIN__ ) && (__ARM_ARCH_8M_MAIN__ == 1)) && \
 595:Drivers/CMSIS/Include/cmsis_gcc.h ****     (!defined (__ARM_FEATURE_CMSE) || (__ARM_FEATURE_CMSE < 3)))
 596:Drivers/CMSIS/Include/cmsis_gcc.h ****     // without main extensions, the non-secure PSPLIM is RAZ/WI
 597:Drivers/CMSIS/Include/cmsis_gcc.h ****   return 0U;
 598:Drivers/CMSIS/Include/cmsis_gcc.h **** #else
 599:Drivers/CMSIS/Include/cmsis_gcc.h ****   uint32_t result;
 600:Drivers/CMSIS/Include/cmsis_gcc.h ****   __ASM volatile ("MRS %0, psplim"  : "=r" (result) );
 601:Drivers/CMSIS/Include/cmsis_gcc.h ****   return result;
 602:Drivers/CMSIS/Include/cmsis_gcc.h **** #endif
 603:Drivers/CMSIS/Include/cmsis_gcc.h **** }
 604:Drivers/CMSIS/Include/cmsis_gcc.h **** 
 605:Drivers/CMSIS/Include/cmsis_gcc.h **** #if (defined (__ARM_FEATURE_CMSE) && (__ARM_FEATURE_CMSE == 3))
 606:Drivers/CMSIS/Include/cmsis_gcc.h **** /**
 607:Drivers/CMSIS/Include/cmsis_gcc.h ****   \brief   Get Process Stack Pointer Limit (non-secure)
 608:Drivers/CMSIS/Include/cmsis_gcc.h ****   Devices without ARMv8-M Main Extensions (i.e. Cortex-M23) lack the non-secure
 609:Drivers/CMSIS/Include/cmsis_gcc.h ****   Stack Pointer Limit register hence zero is returned always.
 610:Drivers/CMSIS/Include/cmsis_gcc.h **** 
 611:Drivers/CMSIS/Include/cmsis_gcc.h ****   \details Returns the current value of the non-secure Process Stack Pointer Limit (PSPLIM) when in
 612:Drivers/CMSIS/Include/cmsis_gcc.h ****   \return               PSPLIM Register value
 613:Drivers/CMSIS/Include/cmsis_gcc.h ****  */
 614:Drivers/CMSIS/Include/cmsis_gcc.h **** __STATIC_FORCEINLINE uint32_t __TZ_get_PSPLIM_NS(void)
ARM GAS  C:\Users\hirot\AppData\Local\Temp\ccqjrqzk.s 			page 25


 615:Drivers/CMSIS/Include/cmsis_gcc.h **** {
 616:Drivers/CMSIS/Include/cmsis_gcc.h **** #if (!(defined (__ARM_ARCH_8M_MAIN__ ) && (__ARM_ARCH_8M_MAIN__ == 1)))
 617:Drivers/CMSIS/Include/cmsis_gcc.h ****   // without main extensions, the non-secure PSPLIM is RAZ/WI
 618:Drivers/CMSIS/Include/cmsis_gcc.h ****   return 0U;
 619:Drivers/CMSIS/Include/cmsis_gcc.h **** #else
 620:Drivers/CMSIS/Include/cmsis_gcc.h ****   uint32_t result;
 621:Drivers/CMSIS/Include/cmsis_gcc.h ****   __ASM volatile ("MRS %0, psplim_ns"  : "=r" (result) );
 622:Drivers/CMSIS/Include/cmsis_gcc.h ****   return result;
 623:Drivers/CMSIS/Include/cmsis_gcc.h **** #endif
 624:Drivers/CMSIS/Include/cmsis_gcc.h **** }
 625:Drivers/CMSIS/Include/cmsis_gcc.h **** #endif
 626:Drivers/CMSIS/Include/cmsis_gcc.h **** 
 627:Drivers/CMSIS/Include/cmsis_gcc.h **** 
 628:Drivers/CMSIS/Include/cmsis_gcc.h **** /**
 629:Drivers/CMSIS/Include/cmsis_gcc.h ****   \brief   Set Process Stack Pointer Limit
 630:Drivers/CMSIS/Include/cmsis_gcc.h ****   Devices without ARMv8-M Main Extensions (i.e. Cortex-M23) lack the non-secure
 631:Drivers/CMSIS/Include/cmsis_gcc.h ****   Stack Pointer Limit register hence the write is silently ignored in non-secure
 632:Drivers/CMSIS/Include/cmsis_gcc.h ****   mode.
 633:Drivers/CMSIS/Include/cmsis_gcc.h ****   
 634:Drivers/CMSIS/Include/cmsis_gcc.h ****   \details Assigns the given value to the Process Stack Pointer Limit (PSPLIM).
 635:Drivers/CMSIS/Include/cmsis_gcc.h ****   \param [in]    ProcStackPtrLimit  Process Stack Pointer Limit value to set
 636:Drivers/CMSIS/Include/cmsis_gcc.h ****  */
 637:Drivers/CMSIS/Include/cmsis_gcc.h **** __STATIC_FORCEINLINE void __set_PSPLIM(uint32_t ProcStackPtrLimit)
 638:Drivers/CMSIS/Include/cmsis_gcc.h **** {
 639:Drivers/CMSIS/Include/cmsis_gcc.h **** #if (!(defined (__ARM_ARCH_8M_MAIN__ ) && (__ARM_ARCH_8M_MAIN__ == 1)) && \
 640:Drivers/CMSIS/Include/cmsis_gcc.h ****     (!defined (__ARM_FEATURE_CMSE) || (__ARM_FEATURE_CMSE < 3)))
 641:Drivers/CMSIS/Include/cmsis_gcc.h ****   // without main extensions, the non-secure PSPLIM is RAZ/WI
 642:Drivers/CMSIS/Include/cmsis_gcc.h ****   (void)ProcStackPtrLimit;
 643:Drivers/CMSIS/Include/cmsis_gcc.h **** #else
 644:Drivers/CMSIS/Include/cmsis_gcc.h ****   __ASM volatile ("MSR psplim, %0" : : "r" (ProcStackPtrLimit));
 645:Drivers/CMSIS/Include/cmsis_gcc.h **** #endif
 646:Drivers/CMSIS/Include/cmsis_gcc.h **** }
 647:Drivers/CMSIS/Include/cmsis_gcc.h **** 
 648:Drivers/CMSIS/Include/cmsis_gcc.h **** 
 649:Drivers/CMSIS/Include/cmsis_gcc.h **** #if (defined (__ARM_FEATURE_CMSE  ) && (__ARM_FEATURE_CMSE   == 3))
 650:Drivers/CMSIS/Include/cmsis_gcc.h **** /**
 651:Drivers/CMSIS/Include/cmsis_gcc.h ****   \brief   Set Process Stack Pointer (non-secure)
 652:Drivers/CMSIS/Include/cmsis_gcc.h ****   Devices without ARMv8-M Main Extensions (i.e. Cortex-M23) lack the non-secure
 653:Drivers/CMSIS/Include/cmsis_gcc.h ****   Stack Pointer Limit register hence the write is silently ignored.
 654:Drivers/CMSIS/Include/cmsis_gcc.h **** 
 655:Drivers/CMSIS/Include/cmsis_gcc.h ****   \details Assigns the given value to the non-secure Process Stack Pointer Limit (PSPLIM) when in s
 656:Drivers/CMSIS/Include/cmsis_gcc.h ****   \param [in]    ProcStackPtrLimit  Process Stack Pointer Limit value to set
 657:Drivers/CMSIS/Include/cmsis_gcc.h ****  */
 658:Drivers/CMSIS/Include/cmsis_gcc.h **** __STATIC_FORCEINLINE void __TZ_set_PSPLIM_NS(uint32_t ProcStackPtrLimit)
 659:Drivers/CMSIS/Include/cmsis_gcc.h **** {
 660:Drivers/CMSIS/Include/cmsis_gcc.h **** #if (!(defined (__ARM_ARCH_8M_MAIN__ ) && (__ARM_ARCH_8M_MAIN__ == 1)))
 661:Drivers/CMSIS/Include/cmsis_gcc.h ****   // without main extensions, the non-secure PSPLIM is RAZ/WI
 662:Drivers/CMSIS/Include/cmsis_gcc.h ****   (void)ProcStackPtrLimit;
 663:Drivers/CMSIS/Include/cmsis_gcc.h **** #else
 664:Drivers/CMSIS/Include/cmsis_gcc.h ****   __ASM volatile ("MSR psplim_ns, %0\n" : : "r" (ProcStackPtrLimit));
 665:Drivers/CMSIS/Include/cmsis_gcc.h **** #endif
 666:Drivers/CMSIS/Include/cmsis_gcc.h **** }
 667:Drivers/CMSIS/Include/cmsis_gcc.h **** #endif
 668:Drivers/CMSIS/Include/cmsis_gcc.h **** 
 669:Drivers/CMSIS/Include/cmsis_gcc.h **** 
 670:Drivers/CMSIS/Include/cmsis_gcc.h **** /**
 671:Drivers/CMSIS/Include/cmsis_gcc.h ****   \brief   Get Main Stack Pointer Limit
ARM GAS  C:\Users\hirot\AppData\Local\Temp\ccqjrqzk.s 			page 26


 672:Drivers/CMSIS/Include/cmsis_gcc.h ****   Devices without ARMv8-M Main Extensions (i.e. Cortex-M23) lack the non-secure
 673:Drivers/CMSIS/Include/cmsis_gcc.h ****   Stack Pointer Limit register hence zero is returned always in non-secure
 674:Drivers/CMSIS/Include/cmsis_gcc.h ****   mode.
 675:Drivers/CMSIS/Include/cmsis_gcc.h **** 
 676:Drivers/CMSIS/Include/cmsis_gcc.h ****   \details Returns the current value of the Main Stack Pointer Limit (MSPLIM).
 677:Drivers/CMSIS/Include/cmsis_gcc.h ****   \return               MSPLIM Register value
 678:Drivers/CMSIS/Include/cmsis_gcc.h ****  */
 679:Drivers/CMSIS/Include/cmsis_gcc.h **** __STATIC_FORCEINLINE uint32_t __get_MSPLIM(void)
 680:Drivers/CMSIS/Include/cmsis_gcc.h **** {
 681:Drivers/CMSIS/Include/cmsis_gcc.h **** #if (!(defined (__ARM_ARCH_8M_MAIN__ ) && (__ARM_ARCH_8M_MAIN__ == 1)) && \
 682:Drivers/CMSIS/Include/cmsis_gcc.h ****     (!defined (__ARM_FEATURE_CMSE) || (__ARM_FEATURE_CMSE < 3)))
 683:Drivers/CMSIS/Include/cmsis_gcc.h ****   // without main extensions, the non-secure MSPLIM is RAZ/WI
 684:Drivers/CMSIS/Include/cmsis_gcc.h ****   return 0U;
 685:Drivers/CMSIS/Include/cmsis_gcc.h **** #else
 686:Drivers/CMSIS/Include/cmsis_gcc.h ****   uint32_t result;
 687:Drivers/CMSIS/Include/cmsis_gcc.h ****   __ASM volatile ("MRS %0, msplim" : "=r" (result) );
 688:Drivers/CMSIS/Include/cmsis_gcc.h ****   return result;
 689:Drivers/CMSIS/Include/cmsis_gcc.h **** #endif
 690:Drivers/CMSIS/Include/cmsis_gcc.h **** }
 691:Drivers/CMSIS/Include/cmsis_gcc.h **** 
 692:Drivers/CMSIS/Include/cmsis_gcc.h **** 
 693:Drivers/CMSIS/Include/cmsis_gcc.h **** #if (defined (__ARM_FEATURE_CMSE  ) && (__ARM_FEATURE_CMSE   == 3))
 694:Drivers/CMSIS/Include/cmsis_gcc.h **** /**
 695:Drivers/CMSIS/Include/cmsis_gcc.h ****   \brief   Get Main Stack Pointer Limit (non-secure)
 696:Drivers/CMSIS/Include/cmsis_gcc.h ****   Devices without ARMv8-M Main Extensions (i.e. Cortex-M23) lack the non-secure
 697:Drivers/CMSIS/Include/cmsis_gcc.h ****   Stack Pointer Limit register hence zero is returned always.
 698:Drivers/CMSIS/Include/cmsis_gcc.h **** 
 699:Drivers/CMSIS/Include/cmsis_gcc.h ****   \details Returns the current value of the non-secure Main Stack Pointer Limit(MSPLIM) when in sec
 700:Drivers/CMSIS/Include/cmsis_gcc.h ****   \return               MSPLIM Register value
 701:Drivers/CMSIS/Include/cmsis_gcc.h ****  */
 702:Drivers/CMSIS/Include/cmsis_gcc.h **** __STATIC_FORCEINLINE uint32_t __TZ_get_MSPLIM_NS(void)
 703:Drivers/CMSIS/Include/cmsis_gcc.h **** {
 704:Drivers/CMSIS/Include/cmsis_gcc.h **** #if (!(defined (__ARM_ARCH_8M_MAIN__ ) && (__ARM_ARCH_8M_MAIN__ == 1)))
 705:Drivers/CMSIS/Include/cmsis_gcc.h ****   // without main extensions, the non-secure MSPLIM is RAZ/WI
 706:Drivers/CMSIS/Include/cmsis_gcc.h ****   return 0U;
 707:Drivers/CMSIS/Include/cmsis_gcc.h **** #else
 708:Drivers/CMSIS/Include/cmsis_gcc.h ****   uint32_t result;
 709:Drivers/CMSIS/Include/cmsis_gcc.h ****   __ASM volatile ("MRS %0, msplim_ns" : "=r" (result) );
 710:Drivers/CMSIS/Include/cmsis_gcc.h ****   return result;
 711:Drivers/CMSIS/Include/cmsis_gcc.h **** #endif
 712:Drivers/CMSIS/Include/cmsis_gcc.h **** }
 713:Drivers/CMSIS/Include/cmsis_gcc.h **** #endif
 714:Drivers/CMSIS/Include/cmsis_gcc.h **** 
 715:Drivers/CMSIS/Include/cmsis_gcc.h **** 
 716:Drivers/CMSIS/Include/cmsis_gcc.h **** /**
 717:Drivers/CMSIS/Include/cmsis_gcc.h ****   \brief   Set Main Stack Pointer Limit
 718:Drivers/CMSIS/Include/cmsis_gcc.h ****   Devices without ARMv8-M Main Extensions (i.e. Cortex-M23) lack the non-secure
 719:Drivers/CMSIS/Include/cmsis_gcc.h ****   Stack Pointer Limit register hence the write is silently ignored in non-secure
 720:Drivers/CMSIS/Include/cmsis_gcc.h ****   mode.
 721:Drivers/CMSIS/Include/cmsis_gcc.h **** 
 722:Drivers/CMSIS/Include/cmsis_gcc.h ****   \details Assigns the given value to the Main Stack Pointer Limit (MSPLIM).
 723:Drivers/CMSIS/Include/cmsis_gcc.h ****   \param [in]    MainStackPtrLimit  Main Stack Pointer Limit value to set
 724:Drivers/CMSIS/Include/cmsis_gcc.h ****  */
 725:Drivers/CMSIS/Include/cmsis_gcc.h **** __STATIC_FORCEINLINE void __set_MSPLIM(uint32_t MainStackPtrLimit)
 726:Drivers/CMSIS/Include/cmsis_gcc.h **** {
 727:Drivers/CMSIS/Include/cmsis_gcc.h **** #if (!(defined (__ARM_ARCH_8M_MAIN__ ) && (__ARM_ARCH_8M_MAIN__ == 1)) && \
 728:Drivers/CMSIS/Include/cmsis_gcc.h ****     (!defined (__ARM_FEATURE_CMSE) || (__ARM_FEATURE_CMSE < 3)))
ARM GAS  C:\Users\hirot\AppData\Local\Temp\ccqjrqzk.s 			page 27


 729:Drivers/CMSIS/Include/cmsis_gcc.h ****   // without main extensions, the non-secure MSPLIM is RAZ/WI
 730:Drivers/CMSIS/Include/cmsis_gcc.h ****   (void)MainStackPtrLimit;
 731:Drivers/CMSIS/Include/cmsis_gcc.h **** #else
 732:Drivers/CMSIS/Include/cmsis_gcc.h ****   __ASM volatile ("MSR msplim, %0" : : "r" (MainStackPtrLimit));
 733:Drivers/CMSIS/Include/cmsis_gcc.h **** #endif
 734:Drivers/CMSIS/Include/cmsis_gcc.h **** }
 735:Drivers/CMSIS/Include/cmsis_gcc.h **** 
 736:Drivers/CMSIS/Include/cmsis_gcc.h **** 
 737:Drivers/CMSIS/Include/cmsis_gcc.h **** #if (defined (__ARM_FEATURE_CMSE  ) && (__ARM_FEATURE_CMSE   == 3))
 738:Drivers/CMSIS/Include/cmsis_gcc.h **** /**
 739:Drivers/CMSIS/Include/cmsis_gcc.h ****   \brief   Set Main Stack Pointer Limit (non-secure)
 740:Drivers/CMSIS/Include/cmsis_gcc.h ****   Devices without ARMv8-M Main Extensions (i.e. Cortex-M23) lack the non-secure
 741:Drivers/CMSIS/Include/cmsis_gcc.h ****   Stack Pointer Limit register hence the write is silently ignored.
 742:Drivers/CMSIS/Include/cmsis_gcc.h **** 
 743:Drivers/CMSIS/Include/cmsis_gcc.h ****   \details Assigns the given value to the non-secure Main Stack Pointer Limit (MSPLIM) when in secu
 744:Drivers/CMSIS/Include/cmsis_gcc.h ****   \param [in]    MainStackPtrLimit  Main Stack Pointer value to set
 745:Drivers/CMSIS/Include/cmsis_gcc.h ****  */
 746:Drivers/CMSIS/Include/cmsis_gcc.h **** __STATIC_FORCEINLINE void __TZ_set_MSPLIM_NS(uint32_t MainStackPtrLimit)
 747:Drivers/CMSIS/Include/cmsis_gcc.h **** {
 748:Drivers/CMSIS/Include/cmsis_gcc.h **** #if (!(defined (__ARM_ARCH_8M_MAIN__ ) && (__ARM_ARCH_8M_MAIN__ == 1)))
 749:Drivers/CMSIS/Include/cmsis_gcc.h ****   // without main extensions, the non-secure MSPLIM is RAZ/WI
 750:Drivers/CMSIS/Include/cmsis_gcc.h ****   (void)MainStackPtrLimit;
 751:Drivers/CMSIS/Include/cmsis_gcc.h **** #else
 752:Drivers/CMSIS/Include/cmsis_gcc.h ****   __ASM volatile ("MSR msplim_ns, %0" : : "r" (MainStackPtrLimit));
 753:Drivers/CMSIS/Include/cmsis_gcc.h **** #endif
 754:Drivers/CMSIS/Include/cmsis_gcc.h **** }
 755:Drivers/CMSIS/Include/cmsis_gcc.h **** #endif
 756:Drivers/CMSIS/Include/cmsis_gcc.h **** 
 757:Drivers/CMSIS/Include/cmsis_gcc.h **** #endif /* ((defined (__ARM_ARCH_8M_MAIN__ ) && (__ARM_ARCH_8M_MAIN__ == 1)) || \
 758:Drivers/CMSIS/Include/cmsis_gcc.h ****            (defined (__ARM_ARCH_8M_BASE__ ) && (__ARM_ARCH_8M_BASE__ == 1))    ) */
 759:Drivers/CMSIS/Include/cmsis_gcc.h **** 
 760:Drivers/CMSIS/Include/cmsis_gcc.h **** 
 761:Drivers/CMSIS/Include/cmsis_gcc.h **** /**
 762:Drivers/CMSIS/Include/cmsis_gcc.h ****   \brief   Get FPSCR
 763:Drivers/CMSIS/Include/cmsis_gcc.h ****   \details Returns the current value of the Floating Point Status/Control register.
 764:Drivers/CMSIS/Include/cmsis_gcc.h ****   \return               Floating Point Status/Control register value
 765:Drivers/CMSIS/Include/cmsis_gcc.h ****  */
 766:Drivers/CMSIS/Include/cmsis_gcc.h **** __STATIC_FORCEINLINE uint32_t __get_FPSCR(void)
 767:Drivers/CMSIS/Include/cmsis_gcc.h **** {
 768:Drivers/CMSIS/Include/cmsis_gcc.h **** #if ((defined (__FPU_PRESENT) && (__FPU_PRESENT == 1U)) && \
 769:Drivers/CMSIS/Include/cmsis_gcc.h ****      (defined (__FPU_USED   ) && (__FPU_USED    == 1U))     )
 770:Drivers/CMSIS/Include/cmsis_gcc.h **** #if __has_builtin(__builtin_arm_get_fpscr) 
 771:Drivers/CMSIS/Include/cmsis_gcc.h **** // Re-enable using built-in when GCC has been fixed
 772:Drivers/CMSIS/Include/cmsis_gcc.h **** // || (__GNUC__ > 7) || (__GNUC__ == 7 && __GNUC_MINOR__ >= 2)
 773:Drivers/CMSIS/Include/cmsis_gcc.h ****   /* see https://gcc.gnu.org/ml/gcc-patches/2017-04/msg00443.html */
 774:Drivers/CMSIS/Include/cmsis_gcc.h ****   return __builtin_arm_get_fpscr();
 775:Drivers/CMSIS/Include/cmsis_gcc.h **** #else
 776:Drivers/CMSIS/Include/cmsis_gcc.h ****   uint32_t result;
 777:Drivers/CMSIS/Include/cmsis_gcc.h **** 
 778:Drivers/CMSIS/Include/cmsis_gcc.h ****   __ASM volatile ("VMRS %0, fpscr" : "=r" (result) );
 779:Drivers/CMSIS/Include/cmsis_gcc.h ****   return(result);
 780:Drivers/CMSIS/Include/cmsis_gcc.h **** #endif
 781:Drivers/CMSIS/Include/cmsis_gcc.h **** #else
 782:Drivers/CMSIS/Include/cmsis_gcc.h ****   return(0U);
 783:Drivers/CMSIS/Include/cmsis_gcc.h **** #endif
 784:Drivers/CMSIS/Include/cmsis_gcc.h **** }
 785:Drivers/CMSIS/Include/cmsis_gcc.h **** 
ARM GAS  C:\Users\hirot\AppData\Local\Temp\ccqjrqzk.s 			page 28


 786:Drivers/CMSIS/Include/cmsis_gcc.h **** 
 787:Drivers/CMSIS/Include/cmsis_gcc.h **** /**
 788:Drivers/CMSIS/Include/cmsis_gcc.h ****   \brief   Set FPSCR
 789:Drivers/CMSIS/Include/cmsis_gcc.h ****   \details Assigns the given value to the Floating Point Status/Control register.
 790:Drivers/CMSIS/Include/cmsis_gcc.h ****   \param [in]    fpscr  Floating Point Status/Control value to set
 791:Drivers/CMSIS/Include/cmsis_gcc.h ****  */
 792:Drivers/CMSIS/Include/cmsis_gcc.h **** __STATIC_FORCEINLINE void __set_FPSCR(uint32_t fpscr)
 793:Drivers/CMSIS/Include/cmsis_gcc.h **** {
 794:Drivers/CMSIS/Include/cmsis_gcc.h **** #if ((defined (__FPU_PRESENT) && (__FPU_PRESENT == 1U)) && \
 795:Drivers/CMSIS/Include/cmsis_gcc.h ****      (defined (__FPU_USED   ) && (__FPU_USED    == 1U))     )
 796:Drivers/CMSIS/Include/cmsis_gcc.h **** #if __has_builtin(__builtin_arm_set_fpscr)
 797:Drivers/CMSIS/Include/cmsis_gcc.h **** // Re-enable using built-in when GCC has been fixed
 798:Drivers/CMSIS/Include/cmsis_gcc.h **** // || (__GNUC__ > 7) || (__GNUC__ == 7 && __GNUC_MINOR__ >= 2)
 799:Drivers/CMSIS/Include/cmsis_gcc.h ****   /* see https://gcc.gnu.org/ml/gcc-patches/2017-04/msg00443.html */
 800:Drivers/CMSIS/Include/cmsis_gcc.h ****   __builtin_arm_set_fpscr(fpscr);
 801:Drivers/CMSIS/Include/cmsis_gcc.h **** #else
 802:Drivers/CMSIS/Include/cmsis_gcc.h ****   __ASM volatile ("VMSR fpscr, %0" : : "r" (fpscr) : "vfpcc", "memory");
 803:Drivers/CMSIS/Include/cmsis_gcc.h **** #endif
 804:Drivers/CMSIS/Include/cmsis_gcc.h **** #else
 805:Drivers/CMSIS/Include/cmsis_gcc.h ****   (void)fpscr;
 806:Drivers/CMSIS/Include/cmsis_gcc.h **** #endif
 807:Drivers/CMSIS/Include/cmsis_gcc.h **** }
 808:Drivers/CMSIS/Include/cmsis_gcc.h **** 
 809:Drivers/CMSIS/Include/cmsis_gcc.h **** 
 810:Drivers/CMSIS/Include/cmsis_gcc.h **** /*@} end of CMSIS_Core_RegAccFunctions */
 811:Drivers/CMSIS/Include/cmsis_gcc.h **** 
 812:Drivers/CMSIS/Include/cmsis_gcc.h **** 
 813:Drivers/CMSIS/Include/cmsis_gcc.h **** /* ##########################  Core Instruction Access  ######################### */
 814:Drivers/CMSIS/Include/cmsis_gcc.h **** /** \defgroup CMSIS_Core_InstructionInterface CMSIS Core Instruction Interface
 815:Drivers/CMSIS/Include/cmsis_gcc.h ****   Access to dedicated instructions
 816:Drivers/CMSIS/Include/cmsis_gcc.h ****   @{
 817:Drivers/CMSIS/Include/cmsis_gcc.h **** */
 818:Drivers/CMSIS/Include/cmsis_gcc.h **** 
 819:Drivers/CMSIS/Include/cmsis_gcc.h **** /* Define macros for porting to both thumb1 and thumb2.
 820:Drivers/CMSIS/Include/cmsis_gcc.h ****  * For thumb1, use low register (r0-r7), specified by constraint "l"
 821:Drivers/CMSIS/Include/cmsis_gcc.h ****  * Otherwise, use general registers, specified by constraint "r" */
 822:Drivers/CMSIS/Include/cmsis_gcc.h **** #if defined (__thumb__) && !defined (__thumb2__)
 823:Drivers/CMSIS/Include/cmsis_gcc.h **** #define __CMSIS_GCC_OUT_REG(r) "=l" (r)
 824:Drivers/CMSIS/Include/cmsis_gcc.h **** #define __CMSIS_GCC_RW_REG(r) "+l" (r)
 825:Drivers/CMSIS/Include/cmsis_gcc.h **** #define __CMSIS_GCC_USE_REG(r) "l" (r)
 826:Drivers/CMSIS/Include/cmsis_gcc.h **** #else
 827:Drivers/CMSIS/Include/cmsis_gcc.h **** #define __CMSIS_GCC_OUT_REG(r) "=r" (r)
 828:Drivers/CMSIS/Include/cmsis_gcc.h **** #define __CMSIS_GCC_RW_REG(r) "+r" (r)
 829:Drivers/CMSIS/Include/cmsis_gcc.h **** #define __CMSIS_GCC_USE_REG(r) "r" (r)
 830:Drivers/CMSIS/Include/cmsis_gcc.h **** #endif
 831:Drivers/CMSIS/Include/cmsis_gcc.h **** 
 832:Drivers/CMSIS/Include/cmsis_gcc.h **** /**
 833:Drivers/CMSIS/Include/cmsis_gcc.h ****   \brief   No Operation
 834:Drivers/CMSIS/Include/cmsis_gcc.h ****   \details No Operation does nothing. This instruction can be used for code alignment purposes.
 835:Drivers/CMSIS/Include/cmsis_gcc.h ****  */
 836:Drivers/CMSIS/Include/cmsis_gcc.h **** #define __NOP()                             __ASM volatile ("nop")
 837:Drivers/CMSIS/Include/cmsis_gcc.h **** 
 838:Drivers/CMSIS/Include/cmsis_gcc.h **** /**
 839:Drivers/CMSIS/Include/cmsis_gcc.h ****   \brief   Wait For Interrupt
 840:Drivers/CMSIS/Include/cmsis_gcc.h ****   \details Wait For Interrupt is a hint instruction that suspends execution until one of a number o
 841:Drivers/CMSIS/Include/cmsis_gcc.h ****  */
 842:Drivers/CMSIS/Include/cmsis_gcc.h **** #define __WFI()                             __ASM volatile ("wfi")
ARM GAS  C:\Users\hirot\AppData\Local\Temp\ccqjrqzk.s 			page 29


 843:Drivers/CMSIS/Include/cmsis_gcc.h **** 
 844:Drivers/CMSIS/Include/cmsis_gcc.h **** 
 845:Drivers/CMSIS/Include/cmsis_gcc.h **** /**
 846:Drivers/CMSIS/Include/cmsis_gcc.h ****   \brief   Wait For Event
 847:Drivers/CMSIS/Include/cmsis_gcc.h ****   \details Wait For Event is a hint instruction that permits the processor to enter
 848:Drivers/CMSIS/Include/cmsis_gcc.h ****            a low-power state until one of a number of events occurs.
 849:Drivers/CMSIS/Include/cmsis_gcc.h ****  */
 850:Drivers/CMSIS/Include/cmsis_gcc.h **** #define __WFE()                             __ASM volatile ("wfe")
 851:Drivers/CMSIS/Include/cmsis_gcc.h **** 
 852:Drivers/CMSIS/Include/cmsis_gcc.h **** 
 853:Drivers/CMSIS/Include/cmsis_gcc.h **** /**
 854:Drivers/CMSIS/Include/cmsis_gcc.h ****   \brief   Send Event
 855:Drivers/CMSIS/Include/cmsis_gcc.h ****   \details Send Event is a hint instruction. It causes an event to be signaled to the CPU.
 856:Drivers/CMSIS/Include/cmsis_gcc.h ****  */
 857:Drivers/CMSIS/Include/cmsis_gcc.h **** #define __SEV()                             __ASM volatile ("sev")
 858:Drivers/CMSIS/Include/cmsis_gcc.h **** 
 859:Drivers/CMSIS/Include/cmsis_gcc.h **** 
 860:Drivers/CMSIS/Include/cmsis_gcc.h **** /**
 861:Drivers/CMSIS/Include/cmsis_gcc.h ****   \brief   Instruction Synchronization Barrier
 862:Drivers/CMSIS/Include/cmsis_gcc.h ****   \details Instruction Synchronization Barrier flushes the pipeline in the processor,
 863:Drivers/CMSIS/Include/cmsis_gcc.h ****            so that all instructions following the ISB are fetched from cache or memory,
 864:Drivers/CMSIS/Include/cmsis_gcc.h ****            after the instruction has been completed.
 865:Drivers/CMSIS/Include/cmsis_gcc.h ****  */
 866:Drivers/CMSIS/Include/cmsis_gcc.h **** __STATIC_FORCEINLINE void __ISB(void)
 867:Drivers/CMSIS/Include/cmsis_gcc.h **** {
 868:Drivers/CMSIS/Include/cmsis_gcc.h ****   __ASM volatile ("isb 0xF":::"memory");
  47              		.loc 2 868 0
  48              		.syntax unified
  49              	@ 868 "Drivers/CMSIS/Include/cmsis_gcc.h" 1
  50 000e BFF36F8F 		isb 0xF
  51              	@ 0 "" 2
  52              		.thumb
  53              		.syntax unified
  54              	.LBE11:
  55              	.LBE10:
 710:Drivers/STM32L4xx_HAL_Driver/Src/stm32l4xx_hal_flash.c **** 
 711:Drivers/STM32L4xx_HAL_Driver/Src/stm32l4xx_hal_flash.c ****   /* Barrier to ensure programming is performed in 2 steps, in right order
 712:Drivers/STM32L4xx_HAL_Driver/Src/stm32l4xx_hal_flash.c ****     (independently of compiler optimization behavior) */
 713:Drivers/STM32L4xx_HAL_Driver/Src/stm32l4xx_hal_flash.c ****   __ISB();
 714:Drivers/STM32L4xx_HAL_Driver/Src/stm32l4xx_hal_flash.c **** 
 715:Drivers/STM32L4xx_HAL_Driver/Src/stm32l4xx_hal_flash.c ****   /* Program second word */
 716:Drivers/STM32L4xx_HAL_Driver/Src/stm32l4xx_hal_flash.c ****   *(__IO uint32_t*)(Address+4U) = (uint32_t)(Data >> 32);
  56              		.loc 1 716 0
  57 0012 4360     		str	r3, [r0, #4]
 717:Drivers/STM32L4xx_HAL_Driver/Src/stm32l4xx_hal_flash.c **** }
  58              		.loc 1 717 0
  59 0014 5DF8044B 		ldr	r4, [sp], #4
  60              	.LCFI1:
  61              		.cfi_restore 4
  62              		.cfi_def_cfa_offset 0
  63 0018 7047     		bx	lr
  64              	.L4:
  65 001a 00BF     		.align	2
  66              	.L3:
  67 001c 00200240 		.word	1073881088
  68              		.cfi_endproc
  69              	.LFE142:
ARM GAS  C:\Users\hirot\AppData\Local\Temp\ccqjrqzk.s 			page 30


  71              		.section	.text.FLASH_Program_Fast,"ax",%progbits
  72              		.align	1
  73              		.syntax unified
  74              		.thumb
  75              		.thumb_func
  76              		.fpu fpv4-sp-d16
  78              	FLASH_Program_Fast:
  79              	.LFB143:
 718:Drivers/STM32L4xx_HAL_Driver/Src/stm32l4xx_hal_flash.c **** 
 719:Drivers/STM32L4xx_HAL_Driver/Src/stm32l4xx_hal_flash.c **** /**
 720:Drivers/STM32L4xx_HAL_Driver/Src/stm32l4xx_hal_flash.c ****   * @brief  Fast program a row double-word (64-bit) at a specified address.
 721:Drivers/STM32L4xx_HAL_Driver/Src/stm32l4xx_hal_flash.c ****   * @param  Address: specifies the address to be programmed.
 722:Drivers/STM32L4xx_HAL_Driver/Src/stm32l4xx_hal_flash.c ****   * @param  DataAddress: specifies the address where the data are stored.
 723:Drivers/STM32L4xx_HAL_Driver/Src/stm32l4xx_hal_flash.c ****   * @retval None
 724:Drivers/STM32L4xx_HAL_Driver/Src/stm32l4xx_hal_flash.c ****   */
 725:Drivers/STM32L4xx_HAL_Driver/Src/stm32l4xx_hal_flash.c **** static void FLASH_Program_Fast(uint32_t Address, uint32_t DataAddress)
 726:Drivers/STM32L4xx_HAL_Driver/Src/stm32l4xx_hal_flash.c **** {
  80              		.loc 1 726 0
  81              		.cfi_startproc
  82              		@ args = 0, pretend = 0, frame = 0
  83              		@ frame_needed = 0, uses_anonymous_args = 0
  84              		@ link register save eliminated.
  85              	.LVL1:
  86 0000 10B4     		push	{r4}
  87              	.LCFI2:
  88              		.cfi_def_cfa_offset 4
  89              		.cfi_offset 4, -4
  90              	.LVL2:
 727:Drivers/STM32L4xx_HAL_Driver/Src/stm32l4xx_hal_flash.c ****   uint32_t primask_bit;
 728:Drivers/STM32L4xx_HAL_Driver/Src/stm32l4xx_hal_flash.c ****   uint8_t row_index = (2*FLASH_NB_DOUBLE_WORDS_IN_ROW);
 729:Drivers/STM32L4xx_HAL_Driver/Src/stm32l4xx_hal_flash.c ****   __IO uint32_t *dest_addr = (__IO uint32_t*)Address;
 730:Drivers/STM32L4xx_HAL_Driver/Src/stm32l4xx_hal_flash.c ****   __IO uint32_t *src_addr = (__IO uint32_t*)DataAddress;
 731:Drivers/STM32L4xx_HAL_Driver/Src/stm32l4xx_hal_flash.c **** 
 732:Drivers/STM32L4xx_HAL_Driver/Src/stm32l4xx_hal_flash.c ****   /* Check the parameters */
 733:Drivers/STM32L4xx_HAL_Driver/Src/stm32l4xx_hal_flash.c ****   assert_param(IS_FLASH_MAIN_MEM_ADDRESS(Address));
 734:Drivers/STM32L4xx_HAL_Driver/Src/stm32l4xx_hal_flash.c **** 
 735:Drivers/STM32L4xx_HAL_Driver/Src/stm32l4xx_hal_flash.c ****   /* Set FSTPG bit */
 736:Drivers/STM32L4xx_HAL_Driver/Src/stm32l4xx_hal_flash.c ****   SET_BIT(FLASH->CR, FLASH_CR_FSTPG);
  91              		.loc 1 736 0
  92 0002 0B4A     		ldr	r2, .L8
  93 0004 5369     		ldr	r3, [r2, #20]
  94 0006 43F48023 		orr	r3, r3, #262144
  95 000a 5361     		str	r3, [r2, #20]
  96              	.LBB12:
  97              	.LBB13:
 386:Drivers/CMSIS/Include/cmsis_gcc.h ****   return(result);
  98              		.loc 2 386 0
  99              		.syntax unified
 100              	@ 386 "Drivers/CMSIS/Include/cmsis_gcc.h" 1
 101 000c EFF31084 		MRS r4, primask
 102              	@ 0 "" 2
 103              		.thumb
 104              		.syntax unified
 105              	.LBE13:
 106              	.LBE12:
 107              	.LBB14:
 108              	.LBB15:
ARM GAS  C:\Users\hirot\AppData\Local\Temp\ccqjrqzk.s 			page 31


 142:Drivers/CMSIS/Include/cmsis_gcc.h **** }
 109              		.loc 2 142 0
 110              		.syntax unified
 111              	@ 142 "Drivers/CMSIS/Include/cmsis_gcc.h" 1
 112 0010 72B6     		cpsid i
 113              	@ 0 "" 2
 114              		.thumb
 115              		.syntax unified
 116              	.LBE15:
 117              	.LBE14:
 728:Drivers/STM32L4xx_HAL_Driver/Src/stm32l4xx_hal_flash.c ****   __IO uint32_t *dest_addr = (__IO uint32_t*)Address;
 118              		.loc 1 728 0
 119 0012 4023     		movs	r3, #64
 120              	.LVL3:
 121              	.L6:
 737:Drivers/STM32L4xx_HAL_Driver/Src/stm32l4xx_hal_flash.c **** 
 738:Drivers/STM32L4xx_HAL_Driver/Src/stm32l4xx_hal_flash.c ****   /* Disable interrupts to avoid any interruption during the loop */
 739:Drivers/STM32L4xx_HAL_Driver/Src/stm32l4xx_hal_flash.c ****   primask_bit = __get_PRIMASK();
 740:Drivers/STM32L4xx_HAL_Driver/Src/stm32l4xx_hal_flash.c ****   __disable_irq();
 741:Drivers/STM32L4xx_HAL_Driver/Src/stm32l4xx_hal_flash.c **** 
 742:Drivers/STM32L4xx_HAL_Driver/Src/stm32l4xx_hal_flash.c ****   /* Program the double word of the row */
 743:Drivers/STM32L4xx_HAL_Driver/Src/stm32l4xx_hal_flash.c ****   do
 744:Drivers/STM32L4xx_HAL_Driver/Src/stm32l4xx_hal_flash.c ****   {
 745:Drivers/STM32L4xx_HAL_Driver/Src/stm32l4xx_hal_flash.c ****     *dest_addr = *src_addr;
 122              		.loc 1 745 0 discriminator 1
 123 0014 51F8042B 		ldr	r2, [r1], #4
 124              	.LVL4:
 125 0018 40F8042B 		str	r2, [r0], #4
 126              	.LVL5:
 746:Drivers/STM32L4xx_HAL_Driver/Src/stm32l4xx_hal_flash.c ****     dest_addr++;
 747:Drivers/STM32L4xx_HAL_Driver/Src/stm32l4xx_hal_flash.c ****     src_addr++;
 748:Drivers/STM32L4xx_HAL_Driver/Src/stm32l4xx_hal_flash.c ****     row_index--;
 127              		.loc 1 748 0 discriminator 1
 128 001c 013B     		subs	r3, r3, #1
 129              	.LVL6:
 749:Drivers/STM32L4xx_HAL_Driver/Src/stm32l4xx_hal_flash.c ****   } while (row_index != 0U);
 130              		.loc 1 749 0 discriminator 1
 131 001e 13F0FF03 		ands	r3, r3, #255
 132              	.LVL7:
 133 0022 F7D1     		bne	.L6
 134              	.LVL8:
 135              	.LBB16:
 136              	.LBB17:
 414:Drivers/CMSIS/Include/cmsis_gcc.h **** }
 137              		.loc 2 414 0
 138              		.syntax unified
 139              	@ 414 "Drivers/CMSIS/Include/cmsis_gcc.h" 1
 140 0024 84F31088 		MSR primask, r4
 141              	@ 0 "" 2
 142              	.LVL9:
 143              		.thumb
 144              		.syntax unified
 145              	.LBE17:
 146              	.LBE16:
 750:Drivers/STM32L4xx_HAL_Driver/Src/stm32l4xx_hal_flash.c **** 
 751:Drivers/STM32L4xx_HAL_Driver/Src/stm32l4xx_hal_flash.c ****   /* Re-enable the interrupts */
 752:Drivers/STM32L4xx_HAL_Driver/Src/stm32l4xx_hal_flash.c ****   __set_PRIMASK(primask_bit);
ARM GAS  C:\Users\hirot\AppData\Local\Temp\ccqjrqzk.s 			page 32


 753:Drivers/STM32L4xx_HAL_Driver/Src/stm32l4xx_hal_flash.c **** }
 147              		.loc 1 753 0
 148 0028 5DF8044B 		ldr	r4, [sp], #4
 149              	.LCFI3:
 150              		.cfi_restore 4
 151              		.cfi_def_cfa_offset 0
 152 002c 7047     		bx	lr
 153              	.L9:
 154 002e 00BF     		.align	2
 155              	.L8:
 156 0030 00200240 		.word	1073881088
 157              		.cfi_endproc
 158              	.LFE143:
 160              		.section	.text.HAL_FLASH_Program_IT,"ax",%progbits
 161              		.align	1
 162              		.global	HAL_FLASH_Program_IT
 163              		.syntax unified
 164              		.thumb
 165              		.thumb_func
 166              		.fpu fpv4-sp-d16
 168              	HAL_FLASH_Program_IT:
 169              	.LFB131:
 254:Drivers/STM32L4xx_HAL_Driver/Src/stm32l4xx_hal_flash.c ****   HAL_StatusTypeDef status = HAL_OK;
 170              		.loc 1 254 0
 171              		.cfi_startproc
 172              		@ args = 0, pretend = 0, frame = 0
 173              		@ frame_needed = 0, uses_anonymous_args = 0
 174              	.LVL10:
 175 0000 38B5     		push	{r3, r4, r5, lr}
 176              	.LCFI4:
 177              		.cfi_def_cfa_offset 16
 178              		.cfi_offset 3, -16
 179              		.cfi_offset 4, -12
 180              		.cfi_offset 5, -8
 181              		.cfi_offset 14, -4
 182              	.LVL11:
 261:Drivers/STM32L4xx_HAL_Driver/Src/stm32l4xx_hal_flash.c **** 
 183              		.loc 1 261 0
 184 0002 1F4C     		ldr	r4, .L23
 185 0004 2478     		ldrb	r4, [r4]	@ zero_extendqisi2
 186 0006 012C     		cmp	r4, #1
 187 0008 37D0     		beq	.L17
 261:Drivers/STM32L4xx_HAL_Driver/Src/stm32l4xx_hal_flash.c **** 
 188              		.loc 1 261 0 is_stmt 0 discriminator 2
 189 000a 1D4C     		ldr	r4, .L23
 190 000c 0125     		movs	r5, #1
 191 000e 2570     		strb	r5, [r4]
 263:Drivers/STM32L4xx_HAL_Driver/Src/stm32l4xx_hal_flash.c **** 
 192              		.loc 1 263 0 is_stmt 1 discriminator 2
 193 0010 0025     		movs	r5, #0
 194 0012 6560     		str	r5, [r4, #4]
 266:Drivers/STM32L4xx_HAL_Driver/Src/stm32l4xx_hal_flash.c ****   {
 195              		.loc 1 266 0 discriminator 2
 196 0014 1B4C     		ldr	r4, .L23+4
 197 0016 2468     		ldr	r4, [r4]
 198 0018 14F4806F 		tst	r4, #1024
 199 001c 1AD0     		beq	.L12
ARM GAS  C:\Users\hirot\AppData\Local\Temp\ccqjrqzk.s 			page 33


 269:Drivers/STM32L4xx_HAL_Driver/Src/stm32l4xx_hal_flash.c ****     pFlash.CacheToReactivate = FLASH_CACHE_DCACHE_ENABLED;
 200              		.loc 1 269 0
 201 001e 194D     		ldr	r5, .L23+4
 202 0020 2C68     		ldr	r4, [r5]
 203 0022 24F48064 		bic	r4, r4, #1024
 204 0026 2C60     		str	r4, [r5]
 270:Drivers/STM32L4xx_HAL_Driver/Src/stm32l4xx_hal_flash.c ****   }
 205              		.loc 1 270 0
 206 0028 0225     		movs	r5, #2
 207 002a 154C     		ldr	r4, .L23
 208 002c 2577     		strb	r5, [r4, #28]
 209              	.L13:
 278:Drivers/STM32L4xx_HAL_Driver/Src/stm32l4xx_hal_flash.c ****   {
 210              		.loc 1 278 0
 211 002e 0228     		cmp	r0, #2
 212 0030 14D0     		beq	.L20
 284:Drivers/STM32L4xx_HAL_Driver/Src/stm32l4xx_hal_flash.c ****   }
 213              		.loc 1 284 0
 214 0032 0325     		movs	r5, #3
 215 0034 124C     		ldr	r4, .L23
 216 0036 2572     		strb	r5, [r4, #8]
 217              	.L15:
 218 0038 0C46     		mov	r4, r1
 286:Drivers/STM32L4xx_HAL_Driver/Src/stm32l4xx_hal_flash.c **** 
 219              		.loc 1 286 0
 220 003a 1149     		ldr	r1, .L23
 221              	.LVL12:
 222 003c CC60     		str	r4, [r1, #12]
 289:Drivers/STM32L4xx_HAL_Driver/Src/stm32l4xx_hal_flash.c **** 
 223              		.loc 1 289 0
 224 003e 114D     		ldr	r5, .L23+4
 225 0040 6969     		ldr	r1, [r5, #20]
 226 0042 41F04071 		orr	r1, r1, #50331648
 227 0046 6961     		str	r1, [r5, #20]
 291:Drivers/STM32L4xx_HAL_Driver/Src/stm32l4xx_hal_flash.c ****   {
 228              		.loc 1 291 0
 229 0048 60B1     		cbz	r0, .L21
 296:Drivers/STM32L4xx_HAL_Driver/Src/stm32l4xx_hal_flash.c ****   {
 230              		.loc 1 296 0
 231 004a 431E     		subs	r3, r0, #1
 232 004c 012B     		cmp	r3, #1
 233 004e 0ED9     		bls	.L22
 306:Drivers/STM32L4xx_HAL_Driver/Src/stm32l4xx_hal_flash.c **** }
 234              		.loc 1 306 0
 235 0050 0020     		movs	r0, #0
 236              	.LVL13:
 307:Drivers/STM32L4xx_HAL_Driver/Src/stm32l4xx_hal_flash.c **** 
 237              		.loc 1 307 0
 238 0052 38BD     		pop	{r3, r4, r5, pc}
 239              	.LVL14:
 240              	.L12:
 274:Drivers/STM32L4xx_HAL_Driver/Src/stm32l4xx_hal_flash.c ****   }
 241              		.loc 1 274 0
 242 0054 0025     		movs	r5, #0
 243 0056 0A4C     		ldr	r4, .L23
 244 0058 2577     		strb	r5, [r4, #28]
 245 005a E8E7     		b	.L13
ARM GAS  C:\Users\hirot\AppData\Local\Temp\ccqjrqzk.s 			page 34


 246              	.L20:
 280:Drivers/STM32L4xx_HAL_Driver/Src/stm32l4xx_hal_flash.c ****   }
 247              		.loc 1 280 0
 248 005c 0425     		movs	r5, #4
 249 005e 084C     		ldr	r4, .L23
 250 0060 2572     		strb	r5, [r4, #8]
 251 0062 E9E7     		b	.L15
 252              	.LVL15:
 253              	.L21:
 294:Drivers/STM32L4xx_HAL_Driver/Src/stm32l4xx_hal_flash.c ****   }
 254              		.loc 1 294 0
 255 0064 2046     		mov	r0, r4
 256              	.LVL16:
 257 0066 FFF7FEFF 		bl	FLASH_Program_DoubleWord
 258              	.LVL17:
 306:Drivers/STM32L4xx_HAL_Driver/Src/stm32l4xx_hal_flash.c **** }
 259              		.loc 1 306 0
 260 006a 0020     		movs	r0, #0
 261 006c 38BD     		pop	{r3, r4, r5, pc}
 262              	.LVL18:
 263              	.L22:
 299:Drivers/STM32L4xx_HAL_Driver/Src/stm32l4xx_hal_flash.c ****   }
 264              		.loc 1 299 0
 265 006e 1146     		mov	r1, r2
 266 0070 2046     		mov	r0, r4
 267              	.LVL19:
 268 0072 FFF7FEFF 		bl	FLASH_Program_Fast
 269              	.LVL20:
 306:Drivers/STM32L4xx_HAL_Driver/Src/stm32l4xx_hal_flash.c **** }
 270              		.loc 1 306 0
 271 0076 0020     		movs	r0, #0
 272 0078 38BD     		pop	{r3, r4, r5, pc}
 273              	.LVL21:
 274              	.L17:
 261:Drivers/STM32L4xx_HAL_Driver/Src/stm32l4xx_hal_flash.c **** 
 275              		.loc 1 261 0
 276 007a 0220     		movs	r0, #2
 277              	.LVL22:
 278 007c 38BD     		pop	{r3, r4, r5, pc}
 279              	.L24:
 280 007e 00BF     		.align	2
 281              	.L23:
 282 0080 00000000 		.word	.LANCHOR0
 283 0084 00200240 		.word	1073881088
 284              		.cfi_endproc
 285              	.LFE131:
 287              		.section	.text.HAL_FLASH_EndOfOperationCallback,"ax",%progbits
 288              		.align	1
 289              		.weak	HAL_FLASH_EndOfOperationCallback
 290              		.syntax unified
 291              		.thumb
 292              		.thumb_func
 293              		.fpu fpv4-sp-d16
 295              	HAL_FLASH_EndOfOperationCallback:
 296              	.LFB133:
 457:Drivers/STM32L4xx_HAL_Driver/Src/stm32l4xx_hal_flash.c ****   /* Prevent unused argument(s) compilation warning */
 297              		.loc 1 457 0
ARM GAS  C:\Users\hirot\AppData\Local\Temp\ccqjrqzk.s 			page 35


 298              		.cfi_startproc
 299              		@ args = 0, pretend = 0, frame = 0
 300              		@ frame_needed = 0, uses_anonymous_args = 0
 301              		@ link register save eliminated.
 302              	.LVL23:
 303 0000 7047     		bx	lr
 304              		.cfi_endproc
 305              	.LFE133:
 307              		.section	.text.HAL_FLASH_OperationErrorCallback,"ax",%progbits
 308              		.align	1
 309              		.weak	HAL_FLASH_OperationErrorCallback
 310              		.syntax unified
 311              		.thumb
 312              		.thumb_func
 313              		.fpu fpv4-sp-d16
 315              	HAL_FLASH_OperationErrorCallback:
 316              	.LFB134:
 475:Drivers/STM32L4xx_HAL_Driver/Src/stm32l4xx_hal_flash.c ****   /* Prevent unused argument(s) compilation warning */
 317              		.loc 1 475 0
 318              		.cfi_startproc
 319              		@ args = 0, pretend = 0, frame = 0
 320              		@ frame_needed = 0, uses_anonymous_args = 0
 321              		@ link register save eliminated.
 322              	.LVL24:
 323 0000 7047     		bx	lr
 324              		.cfi_endproc
 325              	.LFE134:
 327              		.section	.text.HAL_FLASH_IRQHandler,"ax",%progbits
 328              		.align	1
 329              		.global	HAL_FLASH_IRQHandler
 330              		.syntax unified
 331              		.thumb
 332              		.thumb_func
 333              		.fpu fpv4-sp-d16
 335              	HAL_FLASH_IRQHandler:
 336              	.LFB132:
 314:Drivers/STM32L4xx_HAL_Driver/Src/stm32l4xx_hal_flash.c ****   uint32_t tmp_page;
 337              		.loc 1 314 0
 338              		.cfi_startproc
 339              		@ args = 0, pretend = 0, frame = 0
 340              		@ frame_needed = 0, uses_anonymous_args = 0
 314:Drivers/STM32L4xx_HAL_Driver/Src/stm32l4xx_hal_flash.c ****   uint32_t tmp_page;
 341              		.loc 1 314 0
 342 0000 10B5     		push	{r4, lr}
 343              	.LCFI5:
 344              		.cfi_def_cfa_offset 8
 345              		.cfi_offset 4, -8
 346              		.cfi_offset 14, -4
 320:Drivers/STM32L4xx_HAL_Driver/Src/stm32l4xx_hal_flash.c **** #if defined (STM32L471xx) || defined (STM32L475xx) || defined (STM32L476xx) || defined (STM32L485xx
 347              		.loc 1 320 0
 348 0002 514A     		ldr	r2, .L50
 349 0004 5369     		ldr	r3, [r2, #20]
 350 0006 23F4FF63 		bic	r3, r3, #2040
 351 000a 23F00703 		bic	r3, r3, #7
 352 000e 5361     		str	r3, [r2, #20]
 324:Drivers/STM32L4xx_HAL_Driver/Src/stm32l4xx_hal_flash.c **** #endif
 353              		.loc 1 324 0
ARM GAS  C:\Users\hirot\AppData\Local\Temp\ccqjrqzk.s 			page 36


 354 0010 5369     		ldr	r3, [r2, #20]
 355 0012 23F40043 		bic	r3, r3, #32768
 356 0016 5361     		str	r3, [r2, #20]
 328:Drivers/STM32L4xx_HAL_Driver/Src/stm32l4xx_hal_flash.c ****   {
 357              		.loc 1 328 0
 358 0018 4C4B     		ldr	r3, .L50+4
 359 001a 1B7A     		ldrb	r3, [r3, #8]	@ zero_extendqisi2
 360 001c DBB2     		uxtb	r3, r3
 361 001e 042B     		cmp	r3, #4
 362 0020 56D0     		beq	.L43
 363              	.L28:
 334:Drivers/STM32L4xx_HAL_Driver/Src/stm32l4xx_hal_flash.c ****   error |= (FLASH->ECCR & FLASH_FLAG_ECCC);
 364              		.loc 1 334 0
 365 0022 494A     		ldr	r2, .L50
 366 0024 1369     		ldr	r3, [r2, #16]
 367 0026 23F47053 		bic	r3, r3, #15360
 368 002a 23F00503 		bic	r3, r3, #5
 369 002e 1B04     		lsls	r3, r3, #16
 370 0030 1B0C     		lsrs	r3, r3, #16
 371              	.LVL25:
 335:Drivers/STM32L4xx_HAL_Driver/Src/stm32l4xx_hal_flash.c **** 
 372              		.loc 1 335 0
 373 0032 9269     		ldr	r2, [r2, #24]
 374 0034 02F08042 		and	r2, r2, #1073741824
 375              	.LVL26:
 337:Drivers/STM32L4xx_HAL_Driver/Src/stm32l4xx_hal_flash.c ****   {
 376              		.loc 1 337 0
 377 0038 1343     		orrs	r3, r3, r2
 378              	.LVL27:
 379 003a 22D0     		beq	.L29
 340:Drivers/STM32L4xx_HAL_Driver/Src/stm32l4xx_hal_flash.c **** 
 380              		.loc 1 340 0
 381 003c 4349     		ldr	r1, .L50+4
 382 003e 4A68     		ldr	r2, [r1, #4]
 383 0040 1A43     		orrs	r2, r2, r3
 384 0042 4A60     		str	r2, [r1, #4]
 343:Drivers/STM32L4xx_HAL_Driver/Src/stm32l4xx_hal_flash.c **** 
 385              		.loc 1 343 0
 386 0044 13F04042 		ands	r2, r3, #-1073741824
 387 0048 03D0     		beq	.L30
 343:Drivers/STM32L4xx_HAL_Driver/Src/stm32l4xx_hal_flash.c **** 
 388              		.loc 1 343 0 is_stmt 0 discriminator 1
 389 004a 3F49     		ldr	r1, .L50
 390 004c 8869     		ldr	r0, [r1, #24]
 391 004e 0243     		orrs	r2, r2, r0
 392 0050 8A61     		str	r2, [r1, #24]
 393              	.L30:
 343:Drivers/STM32L4xx_HAL_Driver/Src/stm32l4xx_hal_flash.c **** 
 394              		.loc 1 343 0 discriminator 3
 395 0052 33F04043 		bics	r3, r3, #-1073741824
 396              	.LVL28:
 397 0056 01D0     		beq	.L31
 343:Drivers/STM32L4xx_HAL_Driver/Src/stm32l4xx_hal_flash.c **** 
 398              		.loc 1 343 0 discriminator 4
 399 0058 3B4A     		ldr	r2, .L50
 400 005a 1361     		str	r3, [r2, #16]
 401              	.L31:
ARM GAS  C:\Users\hirot\AppData\Local\Temp\ccqjrqzk.s 			page 37


 346:Drivers/STM32L4xx_HAL_Driver/Src/stm32l4xx_hal_flash.c **** 
 402              		.loc 1 346 0 is_stmt 1
 403 005c FFF7FEFF 		bl	FLASH_FlushCaches
 404              	.LVL29:
 349:Drivers/STM32L4xx_HAL_Driver/Src/stm32l4xx_hal_flash.c ****     if(procedure == FLASH_PROC_PAGE_ERASE)
 405              		.loc 1 349 0
 406 0060 3A4B     		ldr	r3, .L50+4
 407 0062 1B7A     		ldrb	r3, [r3, #8]	@ zero_extendqisi2
 408 0064 DBB2     		uxtb	r3, r3
 409              	.LVL30:
 350:Drivers/STM32L4xx_HAL_Driver/Src/stm32l4xx_hal_flash.c ****     {
 410              		.loc 1 350 0
 411 0066 012B     		cmp	r3, #1
 412 0068 37D0     		beq	.L44
 354:Drivers/STM32L4xx_HAL_Driver/Src/stm32l4xx_hal_flash.c ****     {
 413              		.loc 1 354 0
 414 006a 022B     		cmp	r3, #2
 415 006c 3AD0     		beq	.L45
 358:Drivers/STM32L4xx_HAL_Driver/Src/stm32l4xx_hal_flash.c ****             (procedure == FLASH_PROC_PROGRAM_LAST))
 416              		.loc 1 358 0
 417 006e 033B     		subs	r3, r3, #3
 418              	.LVL31:
 419 0070 DBB2     		uxtb	r3, r3
 420              	.LVL32:
 421 0072 012B     		cmp	r3, #1
 422 0074 3BD9     		bls	.L46
 365:Drivers/STM32L4xx_HAL_Driver/Src/stm32l4xx_hal_flash.c ****     }
 423              		.loc 1 365 0
 424 0076 0020     		movs	r0, #0
 425 0078 FFF7FEFF 		bl	HAL_FLASH_OperationErrorCallback
 426              	.LVL33:
 427              	.L33:
 369:Drivers/STM32L4xx_HAL_Driver/Src/stm32l4xx_hal_flash.c ****   }
 428              		.loc 1 369 0
 429 007c 0022     		movs	r2, #0
 430 007e 334B     		ldr	r3, .L50+4
 431 0080 1A72     		strb	r2, [r3, #8]
 432              	.L29:
 373:Drivers/STM32L4xx_HAL_Driver/Src/stm32l4xx_hal_flash.c ****   {
 433              		.loc 1 373 0
 434 0082 314B     		ldr	r3, .L50
 435 0084 1B69     		ldr	r3, [r3, #16]
 436 0086 13F0010F 		tst	r3, #1
 437 008a 15D0     		beq	.L36
 376:Drivers/STM32L4xx_HAL_Driver/Src/stm32l4xx_hal_flash.c **** 
 438              		.loc 1 376 0 discriminator 4
 439 008c 0122     		movs	r2, #1
 440 008e 2E4B     		ldr	r3, .L50
 441 0090 1A61     		str	r2, [r3, #16]
 378:Drivers/STM32L4xx_HAL_Driver/Src/stm32l4xx_hal_flash.c ****     {
 442              		.loc 1 378 0 discriminator 4
 443 0092 2E4B     		ldr	r3, .L50+4
 444 0094 1B7A     		ldrb	r3, [r3, #8]	@ zero_extendqisi2
 445 0096 DBB2     		uxtb	r3, r3
 446 0098 9342     		cmp	r3, r2
 447 009a 2DD0     		beq	.L47
 411:Drivers/STM32L4xx_HAL_Driver/Src/stm32l4xx_hal_flash.c **** 
ARM GAS  C:\Users\hirot\AppData\Local\Temp\ccqjrqzk.s 			page 38


 448              		.loc 1 411 0
 449 009c FFF7FEFF 		bl	FLASH_FlushCaches
 450              	.LVL34:
 413:Drivers/STM32L4xx_HAL_Driver/Src/stm32l4xx_hal_flash.c ****       if(procedure == FLASH_PROC_MASS_ERASE)
 451              		.loc 1 413 0
 452 00a0 2A4B     		ldr	r3, .L50+4
 453 00a2 1B7A     		ldrb	r3, [r3, #8]	@ zero_extendqisi2
 454 00a4 DBB2     		uxtb	r3, r3
 455              	.LVL35:
 414:Drivers/STM32L4xx_HAL_Driver/Src/stm32l4xx_hal_flash.c ****       {
 456              		.loc 1 414 0
 457 00a6 022B     		cmp	r3, #2
 458 00a8 44D0     		beq	.L48
 420:Drivers/STM32L4xx_HAL_Driver/Src/stm32l4xx_hal_flash.c ****               (procedure == FLASH_PROC_PROGRAM_LAST))
 459              		.loc 1 420 0
 460 00aa 033B     		subs	r3, r3, #3
 461              	.LVL36:
 462 00ac DBB2     		uxtb	r3, r3
 463              	.LVL37:
 464 00ae 012B     		cmp	r3, #1
 465 00b0 45D9     		bls	.L49
 466              	.LVL38:
 467              	.L40:
 433:Drivers/STM32L4xx_HAL_Driver/Src/stm32l4xx_hal_flash.c ****     }
 468              		.loc 1 433 0
 469 00b2 0022     		movs	r2, #0
 470 00b4 254B     		ldr	r3, .L50+4
 471 00b6 1A72     		strb	r2, [r3, #8]
 472              	.L36:
 437:Drivers/STM32L4xx_HAL_Driver/Src/stm32l4xx_hal_flash.c ****   {
 473              		.loc 1 437 0
 474 00b8 244B     		ldr	r3, .L50+4
 475 00ba 1B7A     		ldrb	r3, [r3, #8]	@ zero_extendqisi2
 476 00bc 3BB9     		cbnz	r3, .L27
 440:Drivers/STM32L4xx_HAL_Driver/Src/stm32l4xx_hal_flash.c **** 
 477              		.loc 1 440 0 discriminator 4
 478 00be 224A     		ldr	r2, .L50
 479 00c0 5369     		ldr	r3, [r2, #20]
 480 00c2 23F04073 		bic	r3, r3, #50331648
 481 00c6 5361     		str	r3, [r2, #20]
 443:Drivers/STM32L4xx_HAL_Driver/Src/stm32l4xx_hal_flash.c ****   }
 482              		.loc 1 443 0 discriminator 4
 483 00c8 0022     		movs	r2, #0
 484 00ca 204B     		ldr	r3, .L50+4
 485 00cc 1A70     		strb	r2, [r3]
 486              	.L27:
 487 00ce 10BD     		pop	{r4, pc}
 488              	.L43:
 330:Drivers/STM32L4xx_HAL_Driver/Src/stm32l4xx_hal_flash.c ****   }
 489              		.loc 1 330 0
 490 00d0 5369     		ldr	r3, [r2, #20]
 491 00d2 23F48023 		bic	r3, r3, #262144
 492 00d6 5361     		str	r3, [r2, #20]
 493 00d8 A3E7     		b	.L28
 494              	.LVL39:
 495              	.L44:
 352:Drivers/STM32L4xx_HAL_Driver/Src/stm32l4xx_hal_flash.c ****     }
ARM GAS  C:\Users\hirot\AppData\Local\Temp\ccqjrqzk.s 			page 39


 496              		.loc 1 352 0
 497 00da 1C4B     		ldr	r3, .L50+4
 498              	.LVL40:
 499 00dc 5869     		ldr	r0, [r3, #20]
 500 00de FFF7FEFF 		bl	HAL_FLASH_OperationErrorCallback
 501              	.LVL41:
 502 00e2 CBE7     		b	.L33
 503              	.LVL42:
 504              	.L45:
 356:Drivers/STM32L4xx_HAL_Driver/Src/stm32l4xx_hal_flash.c ****     }
 505              		.loc 1 356 0
 506 00e4 194B     		ldr	r3, .L50+4
 507              	.LVL43:
 508 00e6 1869     		ldr	r0, [r3, #16]
 509 00e8 FFF7FEFF 		bl	HAL_FLASH_OperationErrorCallback
 510              	.LVL44:
 511 00ec C6E7     		b	.L33
 512              	.LVL45:
 513              	.L46:
 361:Drivers/STM32L4xx_HAL_Driver/Src/stm32l4xx_hal_flash.c ****     }
 514              		.loc 1 361 0
 515 00ee 174B     		ldr	r3, .L50+4
 516 00f0 D868     		ldr	r0, [r3, #12]
 517 00f2 FFF7FEFF 		bl	HAL_FLASH_OperationErrorCallback
 518              	.LVL46:
 519 00f6 C1E7     		b	.L33
 520              	.L47:
 381:Drivers/STM32L4xx_HAL_Driver/Src/stm32l4xx_hal_flash.c **** 
 521              		.loc 1 381 0
 522 00f8 144B     		ldr	r3, .L50+4
 523 00fa 9A69     		ldr	r2, [r3, #24]
 524 00fc 013A     		subs	r2, r2, #1
 525 00fe 9A61     		str	r2, [r3, #24]
 384:Drivers/STM32L4xx_HAL_Driver/Src/stm32l4xx_hal_flash.c ****       {
 526              		.loc 1 384 0
 527 0100 9B69     		ldr	r3, [r3, #24]
 528 0102 5BB1     		cbz	r3, .L38
 387:Drivers/STM32L4xx_HAL_Driver/Src/stm32l4xx_hal_flash.c **** 
 529              		.loc 1 387 0
 530 0104 114C     		ldr	r4, .L50+4
 531 0106 6069     		ldr	r0, [r4, #20]
 532 0108 FFF7FEFF 		bl	HAL_FLASH_EndOfOperationCallback
 533              	.LVL47:
 390:Drivers/STM32L4xx_HAL_Driver/Src/stm32l4xx_hal_flash.c ****         tmp_page = pFlash.Page;
 534              		.loc 1 390 0
 535 010c 6369     		ldr	r3, [r4, #20]
 536 010e 0133     		adds	r3, r3, #1
 537 0110 6361     		str	r3, [r4, #20]
 391:Drivers/STM32L4xx_HAL_Driver/Src/stm32l4xx_hal_flash.c ****         FLASH_PageErase(tmp_page, pFlash.Bank);
 538              		.loc 1 391 0
 539 0112 6069     		ldr	r0, [r4, #20]
 540              	.LVL48:
 392:Drivers/STM32L4xx_HAL_Driver/Src/stm32l4xx_hal_flash.c ****       }
 541              		.loc 1 392 0
 542 0114 2169     		ldr	r1, [r4, #16]
 543 0116 FFF7FEFF 		bl	FLASH_PageErase
 544              	.LVL49:
ARM GAS  C:\Users\hirot\AppData\Local\Temp\ccqjrqzk.s 			page 40


 545 011a CDE7     		b	.L36
 546              	.L38:
 398:Drivers/STM32L4xx_HAL_Driver/Src/stm32l4xx_hal_flash.c ****         pFlash.ProcedureOnGoing = FLASH_PROC_NONE;
 547              		.loc 1 398 0
 548 011c 0B4C     		ldr	r4, .L50+4
 549 011e 4FF0FF33 		mov	r3, #-1
 550 0122 6361     		str	r3, [r4, #20]
 399:Drivers/STM32L4xx_HAL_Driver/Src/stm32l4xx_hal_flash.c **** 
 551              		.loc 1 399 0
 552 0124 0023     		movs	r3, #0
 553 0126 2372     		strb	r3, [r4, #8]
 402:Drivers/STM32L4xx_HAL_Driver/Src/stm32l4xx_hal_flash.c **** 
 554              		.loc 1 402 0
 555 0128 FFF7FEFF 		bl	FLASH_FlushCaches
 556              	.LVL50:
 405:Drivers/STM32L4xx_HAL_Driver/Src/stm32l4xx_hal_flash.c ****       }
 557              		.loc 1 405 0
 558 012c 6069     		ldr	r0, [r4, #20]
 559 012e FFF7FEFF 		bl	HAL_FLASH_EndOfOperationCallback
 560              	.LVL51:
 561 0132 C1E7     		b	.L36
 562              	.LVL52:
 563              	.L48:
 418:Drivers/STM32L4xx_HAL_Driver/Src/stm32l4xx_hal_flash.c ****       }
 564              		.loc 1 418 0
 565 0134 054B     		ldr	r3, .L50+4
 566              	.LVL53:
 567 0136 1869     		ldr	r0, [r3, #16]
 568 0138 FFF7FEFF 		bl	HAL_FLASH_EndOfOperationCallback
 569              	.LVL54:
 570 013c B9E7     		b	.L40
 571              	.LVL55:
 572              	.L49:
 425:Drivers/STM32L4xx_HAL_Driver/Src/stm32l4xx_hal_flash.c ****       }
 573              		.loc 1 425 0
 574 013e 034B     		ldr	r3, .L50+4
 575 0140 D868     		ldr	r0, [r3, #12]
 576 0142 FFF7FEFF 		bl	HAL_FLASH_EndOfOperationCallback
 577              	.LVL56:
 578 0146 B4E7     		b	.L40
 579              	.L51:
 580              		.align	2
 581              	.L50:
 582 0148 00200240 		.word	1073881088
 583 014c 00000000 		.word	.LANCHOR0
 584              		.cfi_endproc
 585              	.LFE132:
 587              		.section	.text.HAL_FLASH_Unlock,"ax",%progbits
 588              		.align	1
 589              		.global	HAL_FLASH_Unlock
 590              		.syntax unified
 591              		.thumb
 592              		.thumb_func
 593              		.fpu fpv4-sp-d16
 595              	HAL_FLASH_Unlock:
 596              	.LFB135:
 508:Drivers/STM32L4xx_HAL_Driver/Src/stm32l4xx_hal_flash.c ****   HAL_StatusTypeDef status = HAL_OK;
ARM GAS  C:\Users\hirot\AppData\Local\Temp\ccqjrqzk.s 			page 41


 597              		.loc 1 508 0
 598              		.cfi_startproc
 599              		@ args = 0, pretend = 0, frame = 0
 600              		@ frame_needed = 0, uses_anonymous_args = 0
 601              		@ link register save eliminated.
 602              	.LVL57:
 511:Drivers/STM32L4xx_HAL_Driver/Src/stm32l4xx_hal_flash.c ****   {
 603              		.loc 1 511 0
 604 0000 094B     		ldr	r3, .L57
 605 0002 5B69     		ldr	r3, [r3, #20]
 606 0004 002B     		cmp	r3, #0
 607 0006 01DB     		blt	.L56
 509:Drivers/STM32L4xx_HAL_Driver/Src/stm32l4xx_hal_flash.c **** 
 608              		.loc 1 509 0
 609 0008 0020     		movs	r0, #0
 610 000a 7047     		bx	lr
 611              	.L56:
 514:Drivers/STM32L4xx_HAL_Driver/Src/stm32l4xx_hal_flash.c ****     WRITE_REG(FLASH->KEYR, FLASH_KEY2);
 612              		.loc 1 514 0
 613 000c 064B     		ldr	r3, .L57
 614 000e 074A     		ldr	r2, .L57+4
 615 0010 9A60     		str	r2, [r3, #8]
 515:Drivers/STM32L4xx_HAL_Driver/Src/stm32l4xx_hal_flash.c **** 
 616              		.loc 1 515 0
 617 0012 02F18832 		add	r2, r2, #-2004318072
 618 0016 9A60     		str	r2, [r3, #8]
 518:Drivers/STM32L4xx_HAL_Driver/Src/stm32l4xx_hal_flash.c ****     {
 619              		.loc 1 518 0
 620 0018 5B69     		ldr	r3, [r3, #20]
 621 001a 002B     		cmp	r3, #0
 622 001c 01DB     		blt	.L55
 509:Drivers/STM32L4xx_HAL_Driver/Src/stm32l4xx_hal_flash.c **** 
 623              		.loc 1 509 0
 624 001e 0020     		movs	r0, #0
 625 0020 7047     		bx	lr
 626              	.L55:
 520:Drivers/STM32L4xx_HAL_Driver/Src/stm32l4xx_hal_flash.c ****     }
 627              		.loc 1 520 0
 628 0022 0120     		movs	r0, #1
 629              	.LVL58:
 525:Drivers/STM32L4xx_HAL_Driver/Src/stm32l4xx_hal_flash.c **** 
 630              		.loc 1 525 0
 631 0024 7047     		bx	lr
 632              	.L58:
 633 0026 00BF     		.align	2
 634              	.L57:
 635 0028 00200240 		.word	1073881088
 636 002c 23016745 		.word	1164378403
 637              		.cfi_endproc
 638              	.LFE135:
 640              		.section	.text.HAL_FLASH_Lock,"ax",%progbits
 641              		.align	1
 642              		.global	HAL_FLASH_Lock
 643              		.syntax unified
 644              		.thumb
 645              		.thumb_func
 646              		.fpu fpv4-sp-d16
ARM GAS  C:\Users\hirot\AppData\Local\Temp\ccqjrqzk.s 			page 42


 648              	HAL_FLASH_Lock:
 649              	.LFB136:
 532:Drivers/STM32L4xx_HAL_Driver/Src/stm32l4xx_hal_flash.c ****   /* Set the LOCK Bit to lock the FLASH Registers access */
 650              		.loc 1 532 0
 651              		.cfi_startproc
 652              		@ args = 0, pretend = 0, frame = 0
 653              		@ frame_needed = 0, uses_anonymous_args = 0
 654              		@ link register save eliminated.
 534:Drivers/STM32L4xx_HAL_Driver/Src/stm32l4xx_hal_flash.c **** 
 655              		.loc 1 534 0
 656 0000 034A     		ldr	r2, .L60
 657 0002 5369     		ldr	r3, [r2, #20]
 658 0004 43F00043 		orr	r3, r3, #-2147483648
 659 0008 5361     		str	r3, [r2, #20]
 537:Drivers/STM32L4xx_HAL_Driver/Src/stm32l4xx_hal_flash.c **** 
 660              		.loc 1 537 0
 661 000a 0020     		movs	r0, #0
 662 000c 7047     		bx	lr
 663              	.L61:
 664 000e 00BF     		.align	2
 665              	.L60:
 666 0010 00200240 		.word	1073881088
 667              		.cfi_endproc
 668              	.LFE136:
 670              		.section	.text.HAL_FLASH_OB_Unlock,"ax",%progbits
 671              		.align	1
 672              		.global	HAL_FLASH_OB_Unlock
 673              		.syntax unified
 674              		.thumb
 675              		.thumb_func
 676              		.fpu fpv4-sp-d16
 678              	HAL_FLASH_OB_Unlock:
 679              	.LFB137:
 544:Drivers/STM32L4xx_HAL_Driver/Src/stm32l4xx_hal_flash.c ****   if(READ_BIT(FLASH->CR, FLASH_CR_OPTLOCK) != 0U)
 680              		.loc 1 544 0
 681              		.cfi_startproc
 682              		@ args = 0, pretend = 0, frame = 0
 683              		@ frame_needed = 0, uses_anonymous_args = 0
 684              		@ link register save eliminated.
 545:Drivers/STM32L4xx_HAL_Driver/Src/stm32l4xx_hal_flash.c ****   {
 685              		.loc 1 545 0
 686 0000 074B     		ldr	r3, .L65
 687 0002 5B69     		ldr	r3, [r3, #20]
 688 0004 13F0804F 		tst	r3, #1073741824
 689 0008 07D0     		beq	.L64
 548:Drivers/STM32L4xx_HAL_Driver/Src/stm32l4xx_hal_flash.c ****     WRITE_REG(FLASH->OPTKEYR, FLASH_OPTKEY2);
 690              		.loc 1 548 0
 691 000a 054B     		ldr	r3, .L65
 692 000c 054A     		ldr	r2, .L65+4
 693 000e DA60     		str	r2, [r3, #12]
 549:Drivers/STM32L4xx_HAL_Driver/Src/stm32l4xx_hal_flash.c ****   }
 694              		.loc 1 549 0
 695 0010 02F14432 		add	r2, r2, #1145324612
 696 0014 DA60     		str	r2, [r3, #12]
 556:Drivers/STM32L4xx_HAL_Driver/Src/stm32l4xx_hal_flash.c **** }
 697              		.loc 1 556 0
 698 0016 0020     		movs	r0, #0
ARM GAS  C:\Users\hirot\AppData\Local\Temp\ccqjrqzk.s 			page 43


 699 0018 7047     		bx	lr
 700              	.L64:
 553:Drivers/STM32L4xx_HAL_Driver/Src/stm32l4xx_hal_flash.c ****   }
 701              		.loc 1 553 0
 702 001a 0120     		movs	r0, #1
 557:Drivers/STM32L4xx_HAL_Driver/Src/stm32l4xx_hal_flash.c **** 
 703              		.loc 1 557 0
 704 001c 7047     		bx	lr
 705              	.L66:
 706 001e 00BF     		.align	2
 707              	.L65:
 708 0020 00200240 		.word	1073881088
 709 0024 3B2A1908 		.word	135866939
 710              		.cfi_endproc
 711              	.LFE137:
 713              		.section	.text.HAL_FLASH_OB_Lock,"ax",%progbits
 714              		.align	1
 715              		.global	HAL_FLASH_OB_Lock
 716              		.syntax unified
 717              		.thumb
 718              		.thumb_func
 719              		.fpu fpv4-sp-d16
 721              	HAL_FLASH_OB_Lock:
 722              	.LFB138:
 564:Drivers/STM32L4xx_HAL_Driver/Src/stm32l4xx_hal_flash.c ****   /* Set the OPTLOCK Bit to lock the FLASH Option Byte Registers access */
 723              		.loc 1 564 0
 724              		.cfi_startproc
 725              		@ args = 0, pretend = 0, frame = 0
 726              		@ frame_needed = 0, uses_anonymous_args = 0
 727              		@ link register save eliminated.
 566:Drivers/STM32L4xx_HAL_Driver/Src/stm32l4xx_hal_flash.c **** 
 728              		.loc 1 566 0
 729 0000 034A     		ldr	r2, .L68
 730 0002 5369     		ldr	r3, [r2, #20]
 731 0004 43F08043 		orr	r3, r3, #1073741824
 732 0008 5361     		str	r3, [r2, #20]
 569:Drivers/STM32L4xx_HAL_Driver/Src/stm32l4xx_hal_flash.c **** 
 733              		.loc 1 569 0
 734 000a 0020     		movs	r0, #0
 735 000c 7047     		bx	lr
 736              	.L69:
 737 000e 00BF     		.align	2
 738              	.L68:
 739 0010 00200240 		.word	1073881088
 740              		.cfi_endproc
 741              	.LFE138:
 743              		.section	.text.HAL_FLASH_GetError,"ax",%progbits
 744              		.align	1
 745              		.global	HAL_FLASH_GetError
 746              		.syntax unified
 747              		.thumb
 748              		.thumb_func
 749              		.fpu fpv4-sp-d16
 751              	HAL_FLASH_GetError:
 752              	.LFB140:
 626:Drivers/STM32L4xx_HAL_Driver/Src/stm32l4xx_hal_flash.c ****    return pFlash.ErrorCode;
 753              		.loc 1 626 0
ARM GAS  C:\Users\hirot\AppData\Local\Temp\ccqjrqzk.s 			page 44


 754              		.cfi_startproc
 755              		@ args = 0, pretend = 0, frame = 0
 756              		@ frame_needed = 0, uses_anonymous_args = 0
 757              		@ link register save eliminated.
 627:Drivers/STM32L4xx_HAL_Driver/Src/stm32l4xx_hal_flash.c **** }
 758              		.loc 1 627 0
 759 0000 014B     		ldr	r3, .L71
 760 0002 5868     		ldr	r0, [r3, #4]
 628:Drivers/STM32L4xx_HAL_Driver/Src/stm32l4xx_hal_flash.c **** 
 761              		.loc 1 628 0
 762 0004 7047     		bx	lr
 763              	.L72:
 764 0006 00BF     		.align	2
 765              	.L71:
 766 0008 00000000 		.word	.LANCHOR0
 767              		.cfi_endproc
 768              	.LFE140:
 770              		.section	.text.FLASH_WaitForLastOperation,"ax",%progbits
 771              		.align	1
 772              		.global	FLASH_WaitForLastOperation
 773              		.syntax unified
 774              		.thumb
 775              		.thumb_func
 776              		.fpu fpv4-sp-d16
 778              	FLASH_WaitForLastOperation:
 779              	.LFB141:
 650:Drivers/STM32L4xx_HAL_Driver/Src/stm32l4xx_hal_flash.c ****   /* Wait for the FLASH operation to complete by polling on BUSY flag to be reset.
 780              		.loc 1 650 0
 781              		.cfi_startproc
 782              		@ args = 0, pretend = 0, frame = 0
 783              		@ frame_needed = 0, uses_anonymous_args = 0
 784              	.LVL59:
 785 0000 38B5     		push	{r3, r4, r5, lr}
 786              	.LCFI6:
 787              		.cfi_def_cfa_offset 16
 788              		.cfi_offset 3, -16
 789              		.cfi_offset 4, -12
 790              		.cfi_offset 5, -8
 791              		.cfi_offset 14, -4
 792 0002 0446     		mov	r4, r0
 655:Drivers/STM32L4xx_HAL_Driver/Src/stm32l4xx_hal_flash.c ****   uint32_t error;
 793              		.loc 1 655 0
 794 0004 FFF7FEFF 		bl	HAL_GetTick
 795              	.LVL60:
 796 0008 0546     		mov	r5, r0
 797              	.LVL61:
 798              	.L75:
 658:Drivers/STM32L4xx_HAL_Driver/Src/stm32l4xx_hal_flash.c ****   {
 799              		.loc 1 658 0
 800 000a 1E4B     		ldr	r3, .L85
 801 000c 1B69     		ldr	r3, [r3, #16]
 802 000e 13F4803F 		tst	r3, #65536
 803 0012 09D0     		beq	.L84
 660:Drivers/STM32L4xx_HAL_Driver/Src/stm32l4xx_hal_flash.c ****     {
 804              		.loc 1 660 0
 805 0014 B4F1FF3F 		cmp	r4, #-1
 806 0018 F7D0     		beq	.L75
ARM GAS  C:\Users\hirot\AppData\Local\Temp\ccqjrqzk.s 			page 45


 662:Drivers/STM32L4xx_HAL_Driver/Src/stm32l4xx_hal_flash.c ****       {
 807              		.loc 1 662 0
 808 001a FFF7FEFF 		bl	HAL_GetTick
 809              	.LVL62:
 810 001e 401B     		subs	r0, r0, r5
 811 0020 8442     		cmp	r4, r0
 812 0022 F2D8     		bhi	.L75
 664:Drivers/STM32L4xx_HAL_Driver/Src/stm32l4xx_hal_flash.c ****       }
 813              		.loc 1 664 0
 814 0024 0320     		movs	r0, #3
 815 0026 38BD     		pop	{r3, r4, r5, pc}
 816              	.LVL63:
 817              	.L84:
 669:Drivers/STM32L4xx_HAL_Driver/Src/stm32l4xx_hal_flash.c ****   error |= (FLASH->ECCR & FLASH_FLAG_ECCD);
 818              		.loc 1 669 0
 819 0028 164A     		ldr	r2, .L85
 820 002a 1369     		ldr	r3, [r2, #16]
 821 002c 23F47053 		bic	r3, r3, #15360
 822 0030 23F00503 		bic	r3, r3, #5
 823 0034 1B04     		lsls	r3, r3, #16
 824 0036 1B0C     		lsrs	r3, r3, #16
 825              	.LVL64:
 670:Drivers/STM32L4xx_HAL_Driver/Src/stm32l4xx_hal_flash.c **** 
 826              		.loc 1 670 0
 827 0038 9269     		ldr	r2, [r2, #24]
 828 003a 02F00042 		and	r2, r2, #-2147483648
 829              	.LVL65:
 672:Drivers/STM32L4xx_HAL_Driver/Src/stm32l4xx_hal_flash.c ****   {
 830              		.loc 1 672 0
 831 003e 1343     		orrs	r3, r3, r2
 832              	.LVL66:
 833 0040 11D0     		beq	.L78
 675:Drivers/STM32L4xx_HAL_Driver/Src/stm32l4xx_hal_flash.c **** 
 834              		.loc 1 675 0
 835 0042 1149     		ldr	r1, .L85+4
 836 0044 4A68     		ldr	r2, [r1, #4]
 837 0046 1A43     		orrs	r2, r2, r3
 838 0048 4A60     		str	r2, [r1, #4]
 678:Drivers/STM32L4xx_HAL_Driver/Src/stm32l4xx_hal_flash.c **** 
 839              		.loc 1 678 0
 840 004a 13F04042 		ands	r2, r3, #-1073741824
 841 004e 03D0     		beq	.L79
 678:Drivers/STM32L4xx_HAL_Driver/Src/stm32l4xx_hal_flash.c **** 
 842              		.loc 1 678 0 is_stmt 0 discriminator 1
 843 0050 0C49     		ldr	r1, .L85
 844 0052 8869     		ldr	r0, [r1, #24]
 845 0054 0243     		orrs	r2, r2, r0
 846 0056 8A61     		str	r2, [r1, #24]
 847              	.L79:
 678:Drivers/STM32L4xx_HAL_Driver/Src/stm32l4xx_hal_flash.c **** 
 848              		.loc 1 678 0 discriminator 3
 849 0058 33F04043 		bics	r3, r3, #-1073741824
 850              	.LVL67:
 851 005c 0DD0     		beq	.L81
 678:Drivers/STM32L4xx_HAL_Driver/Src/stm32l4xx_hal_flash.c **** 
 852              		.loc 1 678 0 discriminator 4
 853 005e 094A     		ldr	r2, .L85
ARM GAS  C:\Users\hirot\AppData\Local\Temp\ccqjrqzk.s 			page 46


 854 0060 1361     		str	r3, [r2, #16]
 680:Drivers/STM32L4xx_HAL_Driver/Src/stm32l4xx_hal_flash.c ****   }
 855              		.loc 1 680 0 is_stmt 1 discriminator 4
 856 0062 0120     		movs	r0, #1
 857 0064 38BD     		pop	{r3, r4, r5, pc}
 858              	.LVL68:
 859              	.L78:
 684:Drivers/STM32L4xx_HAL_Driver/Src/stm32l4xx_hal_flash.c ****   {
 860              		.loc 1 684 0
 861 0066 074B     		ldr	r3, .L85
 862              	.LVL69:
 863 0068 1B69     		ldr	r3, [r3, #16]
 864 006a 13F0010F 		tst	r3, #1
 865 006e 06D0     		beq	.L82
 687:Drivers/STM32L4xx_HAL_Driver/Src/stm32l4xx_hal_flash.c ****   }
 866              		.loc 1 687 0 discriminator 4
 867 0070 0122     		movs	r2, #1
 868 0072 044B     		ldr	r3, .L85
 869 0074 1A61     		str	r2, [r3, #16]
 691:Drivers/STM32L4xx_HAL_Driver/Src/stm32l4xx_hal_flash.c **** }
 870              		.loc 1 691 0 discriminator 4
 871 0076 0020     		movs	r0, #0
 872 0078 38BD     		pop	{r3, r4, r5, pc}
 873              	.LVL70:
 874              	.L81:
 680:Drivers/STM32L4xx_HAL_Driver/Src/stm32l4xx_hal_flash.c ****   }
 875              		.loc 1 680 0
 876 007a 0120     		movs	r0, #1
 877 007c 38BD     		pop	{r3, r4, r5, pc}
 878              	.LVL71:
 879              	.L82:
 691:Drivers/STM32L4xx_HAL_Driver/Src/stm32l4xx_hal_flash.c **** }
 880              		.loc 1 691 0
 881 007e 0020     		movs	r0, #0
 692:Drivers/STM32L4xx_HAL_Driver/Src/stm32l4xx_hal_flash.c **** 
 882              		.loc 1 692 0
 883 0080 38BD     		pop	{r3, r4, r5, pc}
 884              	.LVL72:
 885              	.L86:
 886 0082 00BF     		.align	2
 887              	.L85:
 888 0084 00200240 		.word	1073881088
 889 0088 00000000 		.word	.LANCHOR0
 890              		.cfi_endproc
 891              	.LFE141:
 893              		.section	.text.HAL_FLASH_Program,"ax",%progbits
 894              		.align	1
 895              		.global	HAL_FLASH_Program
 896              		.syntax unified
 897              		.thumb
 898              		.thumb_func
 899              		.fpu fpv4-sp-d16
 901              	HAL_FLASH_Program:
 902              	.LFB130:
 172:Drivers/STM32L4xx_HAL_Driver/Src/stm32l4xx_hal_flash.c ****   HAL_StatusTypeDef status;
 903              		.loc 1 172 0
 904              		.cfi_startproc
ARM GAS  C:\Users\hirot\AppData\Local\Temp\ccqjrqzk.s 			page 47


 905              		@ args = 0, pretend = 0, frame = 0
 906              		@ frame_needed = 0, uses_anonymous_args = 0
 907              	.LVL73:
 908 0000 2DE9F041 		push	{r4, r5, r6, r7, r8, lr}
 909              	.LCFI7:
 910              		.cfi_def_cfa_offset 24
 911              		.cfi_offset 4, -24
 912              		.cfi_offset 5, -20
 913              		.cfi_offset 6, -16
 914              		.cfi_offset 7, -12
 915              		.cfi_offset 8, -8
 916              		.cfi_offset 14, -4
 917              	.LVL74:
 177:Drivers/STM32L4xx_HAL_Driver/Src/stm32l4xx_hal_flash.c **** 
 918              		.loc 1 177 0
 919 0004 284C     		ldr	r4, .L102
 920 0006 2478     		ldrb	r4, [r4]	@ zero_extendqisi2
 921 0008 012C     		cmp	r4, #1
 922 000a 03D1     		bne	.L99
 923 000c 0224     		movs	r4, #2
 924              	.LVL75:
 925              	.L88:
 240:Drivers/STM32L4xx_HAL_Driver/Src/stm32l4xx_hal_flash.c **** 
 926              		.loc 1 240 0
 927 000e 2046     		mov	r0, r4
 928 0010 BDE8F081 		pop	{r4, r5, r6, r7, r8, pc}
 929              	.LVL76:
 930              	.L99:
 931 0014 9846     		mov	r8, r3
 932 0016 1746     		mov	r7, r2
 933 0018 0E46     		mov	r6, r1
 934 001a 0546     		mov	r5, r0
 177:Drivers/STM32L4xx_HAL_Driver/Src/stm32l4xx_hal_flash.c **** 
 935              		.loc 1 177 0 discriminator 2
 936 001c 0122     		movs	r2, #1
 937              	.LVL77:
 938 001e 224B     		ldr	r3, .L102
 939 0020 1A70     		strb	r2, [r3]
 183:Drivers/STM32L4xx_HAL_Driver/Src/stm32l4xx_hal_flash.c **** 
 940              		.loc 1 183 0 discriminator 2
 941 0022 4CF25030 		movw	r0, #50000
 942              	.LVL78:
 943 0026 FFF7FEFF 		bl	FLASH_WaitForLastOperation
 944              	.LVL79:
 185:Drivers/STM32L4xx_HAL_Driver/Src/stm32l4xx_hal_flash.c ****   {
 945              		.loc 1 185 0 discriminator 2
 946 002a 0446     		mov	r4, r0
 947 002c 08BB     		cbnz	r0, .L89
 187:Drivers/STM32L4xx_HAL_Driver/Src/stm32l4xx_hal_flash.c **** 
 948              		.loc 1 187 0
 949 002e 0022     		movs	r2, #0
 950 0030 1D4B     		ldr	r3, .L102
 951 0032 5A60     		str	r2, [r3, #4]
 190:Drivers/STM32L4xx_HAL_Driver/Src/stm32l4xx_hal_flash.c ****     {
 952              		.loc 1 190 0
 953 0034 1D4B     		ldr	r3, .L102+4
 954 0036 1B68     		ldr	r3, [r3]
ARM GAS  C:\Users\hirot\AppData\Local\Temp\ccqjrqzk.s 			page 48


 955 0038 13F4806F 		tst	r3, #1024
 956 003c 1DD0     		beq	.L90
 193:Drivers/STM32L4xx_HAL_Driver/Src/stm32l4xx_hal_flash.c ****       pFlash.CacheToReactivate = FLASH_CACHE_DCACHE_ENABLED;
 957              		.loc 1 193 0
 958 003e 1B4A     		ldr	r2, .L102+4
 959 0040 1368     		ldr	r3, [r2]
 960 0042 23F48063 		bic	r3, r3, #1024
 961 0046 1360     		str	r3, [r2]
 194:Drivers/STM32L4xx_HAL_Driver/Src/stm32l4xx_hal_flash.c ****     }
 962              		.loc 1 194 0
 963 0048 0222     		movs	r2, #2
 964 004a 174B     		ldr	r3, .L102
 965 004c 1A77     		strb	r2, [r3, #28]
 966              	.L91:
 201:Drivers/STM32L4xx_HAL_Driver/Src/stm32l4xx_hal_flash.c ****     {
 967              		.loc 1 201 0
 968 004e C5B1     		cbz	r5, .L100
 207:Drivers/STM32L4xx_HAL_Driver/Src/stm32l4xx_hal_flash.c ****     {
 969              		.loc 1 207 0
 970 0050 6B1E     		subs	r3, r5, #1
 971 0052 012B     		cmp	r3, #1
 972 0054 1CD9     		bls	.L101
 174:Drivers/STM32L4xx_HAL_Driver/Src/stm32l4xx_hal_flash.c **** 
 973              		.loc 1 174 0
 974 0056 0025     		movs	r5, #0
 975              	.LVL80:
 976              	.L93:
 224:Drivers/STM32L4xx_HAL_Driver/Src/stm32l4xx_hal_flash.c **** 
 977              		.loc 1 224 0
 978 0058 4CF25030 		movw	r0, #50000
 979 005c FFF7FEFF 		bl	FLASH_WaitForLastOperation
 980              	.LVL81:
 981 0060 0446     		mov	r4, r0
 982              	.LVL82:
 227:Drivers/STM32L4xx_HAL_Driver/Src/stm32l4xx_hal_flash.c ****     {
 983              		.loc 1 227 0
 984 0062 25B1     		cbz	r5, .L94
 229:Drivers/STM32L4xx_HAL_Driver/Src/stm32l4xx_hal_flash.c ****     }
 985              		.loc 1 229 0
 986 0064 114A     		ldr	r2, .L102+4
 987 0066 5369     		ldr	r3, [r2, #20]
 988 0068 23EA0505 		bic	r5, r3, r5
 989              	.LVL83:
 990 006c 5561     		str	r5, [r2, #20]
 991              	.L94:
 233:Drivers/STM32L4xx_HAL_Driver/Src/stm32l4xx_hal_flash.c ****   }
 992              		.loc 1 233 0
 993 006e FFF7FEFF 		bl	FLASH_FlushCaches
 994              	.LVL84:
 995              	.L89:
 237:Drivers/STM32L4xx_HAL_Driver/Src/stm32l4xx_hal_flash.c **** 
 996              		.loc 1 237 0
 997 0072 0022     		movs	r2, #0
 998 0074 0C4B     		ldr	r3, .L102
 999 0076 1A70     		strb	r2, [r3]
 239:Drivers/STM32L4xx_HAL_Driver/Src/stm32l4xx_hal_flash.c **** }
 1000              		.loc 1 239 0
ARM GAS  C:\Users\hirot\AppData\Local\Temp\ccqjrqzk.s 			page 49


 1001 0078 C9E7     		b	.L88
 1002              	.LVL85:
 1003              	.L90:
 198:Drivers/STM32L4xx_HAL_Driver/Src/stm32l4xx_hal_flash.c ****     }
 1004              		.loc 1 198 0
 1005 007a 0022     		movs	r2, #0
 1006 007c 0A4B     		ldr	r3, .L102
 1007 007e 1A77     		strb	r2, [r3, #28]
 1008 0080 E5E7     		b	.L91
 1009              	.L100:
 204:Drivers/STM32L4xx_HAL_Driver/Src/stm32l4xx_hal_flash.c ****       prog_bit = FLASH_CR_PG;
 1010              		.loc 1 204 0
 1011 0082 3A46     		mov	r2, r7
 1012 0084 4346     		mov	r3, r8
 1013 0086 3046     		mov	r0, r6
 1014              	.LVL86:
 1015 0088 FFF7FEFF 		bl	FLASH_Program_DoubleWord
 1016              	.LVL87:
 205:Drivers/STM32L4xx_HAL_Driver/Src/stm32l4xx_hal_flash.c ****     }
 1017              		.loc 1 205 0
 1018 008c 0125     		movs	r5, #1
 1019              	.LVL88:
 1020 008e E3E7     		b	.L93
 1021              	.LVL89:
 1022              	.L101:
 210:Drivers/STM32L4xx_HAL_Driver/Src/stm32l4xx_hal_flash.c **** 
 1023              		.loc 1 210 0
 1024 0090 3946     		mov	r1, r7
 1025 0092 3046     		mov	r0, r6
 1026              	.LVL90:
 1027 0094 FFF7FEFF 		bl	FLASH_Program_Fast
 1028              	.LVL91:
 213:Drivers/STM32L4xx_HAL_Driver/Src/stm32l4xx_hal_flash.c ****       {
 1029              		.loc 1 213 0
 1030 0098 022D     		cmp	r5, #2
 1031 009a 01D0     		beq	.L97
 174:Drivers/STM32L4xx_HAL_Driver/Src/stm32l4xx_hal_flash.c **** 
 1032              		.loc 1 174 0
 1033 009c 0025     		movs	r5, #0
 1034              	.LVL92:
 1035 009e DBE7     		b	.L93
 1036              	.LVL93:
 1037              	.L97:
 215:Drivers/STM32L4xx_HAL_Driver/Src/stm32l4xx_hal_flash.c ****       }
 1038              		.loc 1 215 0
 1039 00a0 4FF48025 		mov	r5, #262144
 1040              	.LVL94:
 1041 00a4 D8E7     		b	.L93
 1042              	.L103:
 1043 00a6 00BF     		.align	2
 1044              	.L102:
 1045 00a8 00000000 		.word	.LANCHOR0
 1046 00ac 00200240 		.word	1073881088
 1047              		.cfi_endproc
 1048              	.LFE130:
 1050              		.section	.text.HAL_FLASH_OB_Launch,"ax",%progbits
 1051              		.align	1
ARM GAS  C:\Users\hirot\AppData\Local\Temp\ccqjrqzk.s 			page 50


 1052              		.global	HAL_FLASH_OB_Launch
 1053              		.syntax unified
 1054              		.thumb
 1055              		.thumb_func
 1056              		.fpu fpv4-sp-d16
 1058              	HAL_FLASH_OB_Launch:
 1059              	.LFB139:
 576:Drivers/STM32L4xx_HAL_Driver/Src/stm32l4xx_hal_flash.c ****   /* Set the bit to force the option byte reloading */
 1060              		.loc 1 576 0
 1061              		.cfi_startproc
 1062              		@ args = 0, pretend = 0, frame = 0
 1063              		@ frame_needed = 0, uses_anonymous_args = 0
 1064 0000 08B5     		push	{r3, lr}
 1065              	.LCFI8:
 1066              		.cfi_def_cfa_offset 8
 1067              		.cfi_offset 3, -8
 1068              		.cfi_offset 14, -4
 578:Drivers/STM32L4xx_HAL_Driver/Src/stm32l4xx_hal_flash.c **** 
 1069              		.loc 1 578 0
 1070 0002 054A     		ldr	r2, .L106
 1071 0004 5369     		ldr	r3, [r2, #20]
 1072 0006 43F00063 		orr	r3, r3, #134217728
 1073 000a 5361     		str	r3, [r2, #20]
 581:Drivers/STM32L4xx_HAL_Driver/Src/stm32l4xx_hal_flash.c **** }
 1074              		.loc 1 581 0
 1075 000c 4CF25030 		movw	r0, #50000
 1076 0010 FFF7FEFF 		bl	FLASH_WaitForLastOperation
 1077              	.LVL95:
 582:Drivers/STM32L4xx_HAL_Driver/Src/stm32l4xx_hal_flash.c **** 
 1078              		.loc 1 582 0
 1079 0014 08BD     		pop	{r3, pc}
 1080              	.L107:
 1081 0016 00BF     		.align	2
 1082              	.L106:
 1083 0018 00200240 		.word	1073881088
 1084              		.cfi_endproc
 1085              	.LFE139:
 1087              		.global	pFlash
 1088              		.section	.data.pFlash,"aw",%progbits
 1089              		.align	2
 1090              		.set	.LANCHOR0,. + 0
 1093              	pFlash:
 1094 0000 00       		.byte	0
 1095 0001 000000   		.space	3
 1096 0004 00000000 		.word	0
 1097 0008 00       		.byte	0
 1098 0009 000000   		.space	3
 1099 000c 00000000 		.word	0
 1100 0010 01000000 		.word	1
 1101 0014 00000000 		.word	0
 1102 0018 00000000 		.word	0
 1103 001c 00       		.byte	0
 1104 001d 000000   		.space	3
 1105              		.text
 1106              	.Letext0:
 1107              		.file 3 "c:\\program files (x86)\\gnu tools arm embedded\\6.2 2016q4\\arm-none-eabi\\include\\mach
 1108              		.file 4 "c:\\program files (x86)\\gnu tools arm embedded\\6.2 2016q4\\arm-none-eabi\\include\\sys\
ARM GAS  C:\Users\hirot\AppData\Local\Temp\ccqjrqzk.s 			page 51


 1109              		.file 5 "Drivers/CMSIS/Include/core_cm4.h"
 1110              		.file 6 "Drivers/CMSIS/Device/ST/STM32L4xx/Include/system_stm32l4xx.h"
 1111              		.file 7 "Drivers/CMSIS/Device/ST/STM32L4xx/Include/stm32l476xx.h"
 1112              		.file 8 "Drivers/STM32L4xx_HAL_Driver/Inc/stm32l4xx_hal_def.h"
 1113              		.file 9 "Drivers/STM32L4xx_HAL_Driver/Inc/stm32l4xx_hal_flash.h"
 1114              		.file 10 "Drivers/STM32L4xx_HAL_Driver/Inc/stm32l4xx_hal.h"
 1115              		.file 11 "Drivers/STM32L4xx_HAL_Driver/Inc/stm32l4xx_hal_flash_ex.h"
ARM GAS  C:\Users\hirot\AppData\Local\Temp\ccqjrqzk.s 			page 52


DEFINED SYMBOLS
                            *ABS*:00000000 stm32l4xx_hal_flash.c
C:\Users\hirot\AppData\Local\Temp\ccqjrqzk.s:18     .text.FLASH_Program_DoubleWord:00000000 $t
C:\Users\hirot\AppData\Local\Temp\ccqjrqzk.s:24     .text.FLASH_Program_DoubleWord:00000000 FLASH_Program_DoubleWord
C:\Users\hirot\AppData\Local\Temp\ccqjrqzk.s:67     .text.FLASH_Program_DoubleWord:0000001c $d
C:\Users\hirot\AppData\Local\Temp\ccqjrqzk.s:72     .text.FLASH_Program_Fast:00000000 $t
C:\Users\hirot\AppData\Local\Temp\ccqjrqzk.s:78     .text.FLASH_Program_Fast:00000000 FLASH_Program_Fast
C:\Users\hirot\AppData\Local\Temp\ccqjrqzk.s:156    .text.FLASH_Program_Fast:00000030 $d
C:\Users\hirot\AppData\Local\Temp\ccqjrqzk.s:161    .text.HAL_FLASH_Program_IT:00000000 $t
C:\Users\hirot\AppData\Local\Temp\ccqjrqzk.s:168    .text.HAL_FLASH_Program_IT:00000000 HAL_FLASH_Program_IT
C:\Users\hirot\AppData\Local\Temp\ccqjrqzk.s:282    .text.HAL_FLASH_Program_IT:00000080 $d
C:\Users\hirot\AppData\Local\Temp\ccqjrqzk.s:288    .text.HAL_FLASH_EndOfOperationCallback:00000000 $t
C:\Users\hirot\AppData\Local\Temp\ccqjrqzk.s:295    .text.HAL_FLASH_EndOfOperationCallback:00000000 HAL_FLASH_EndOfOperationCallback
C:\Users\hirot\AppData\Local\Temp\ccqjrqzk.s:308    .text.HAL_FLASH_OperationErrorCallback:00000000 $t
C:\Users\hirot\AppData\Local\Temp\ccqjrqzk.s:315    .text.HAL_FLASH_OperationErrorCallback:00000000 HAL_FLASH_OperationErrorCallback
C:\Users\hirot\AppData\Local\Temp\ccqjrqzk.s:328    .text.HAL_FLASH_IRQHandler:00000000 $t
C:\Users\hirot\AppData\Local\Temp\ccqjrqzk.s:335    .text.HAL_FLASH_IRQHandler:00000000 HAL_FLASH_IRQHandler
C:\Users\hirot\AppData\Local\Temp\ccqjrqzk.s:582    .text.HAL_FLASH_IRQHandler:00000148 $d
C:\Users\hirot\AppData\Local\Temp\ccqjrqzk.s:588    .text.HAL_FLASH_Unlock:00000000 $t
C:\Users\hirot\AppData\Local\Temp\ccqjrqzk.s:595    .text.HAL_FLASH_Unlock:00000000 HAL_FLASH_Unlock
C:\Users\hirot\AppData\Local\Temp\ccqjrqzk.s:635    .text.HAL_FLASH_Unlock:00000028 $d
C:\Users\hirot\AppData\Local\Temp\ccqjrqzk.s:641    .text.HAL_FLASH_Lock:00000000 $t
C:\Users\hirot\AppData\Local\Temp\ccqjrqzk.s:648    .text.HAL_FLASH_Lock:00000000 HAL_FLASH_Lock
C:\Users\hirot\AppData\Local\Temp\ccqjrqzk.s:666    .text.HAL_FLASH_Lock:00000010 $d
C:\Users\hirot\AppData\Local\Temp\ccqjrqzk.s:671    .text.HAL_FLASH_OB_Unlock:00000000 $t
C:\Users\hirot\AppData\Local\Temp\ccqjrqzk.s:678    .text.HAL_FLASH_OB_Unlock:00000000 HAL_FLASH_OB_Unlock
C:\Users\hirot\AppData\Local\Temp\ccqjrqzk.s:708    .text.HAL_FLASH_OB_Unlock:00000020 $d
C:\Users\hirot\AppData\Local\Temp\ccqjrqzk.s:714    .text.HAL_FLASH_OB_Lock:00000000 $t
C:\Users\hirot\AppData\Local\Temp\ccqjrqzk.s:721    .text.HAL_FLASH_OB_Lock:00000000 HAL_FLASH_OB_Lock
C:\Users\hirot\AppData\Local\Temp\ccqjrqzk.s:739    .text.HAL_FLASH_OB_Lock:00000010 $d
C:\Users\hirot\AppData\Local\Temp\ccqjrqzk.s:744    .text.HAL_FLASH_GetError:00000000 $t
C:\Users\hirot\AppData\Local\Temp\ccqjrqzk.s:751    .text.HAL_FLASH_GetError:00000000 HAL_FLASH_GetError
C:\Users\hirot\AppData\Local\Temp\ccqjrqzk.s:766    .text.HAL_FLASH_GetError:00000008 $d
C:\Users\hirot\AppData\Local\Temp\ccqjrqzk.s:771    .text.FLASH_WaitForLastOperation:00000000 $t
C:\Users\hirot\AppData\Local\Temp\ccqjrqzk.s:778    .text.FLASH_WaitForLastOperation:00000000 FLASH_WaitForLastOperation
C:\Users\hirot\AppData\Local\Temp\ccqjrqzk.s:888    .text.FLASH_WaitForLastOperation:00000084 $d
C:\Users\hirot\AppData\Local\Temp\ccqjrqzk.s:894    .text.HAL_FLASH_Program:00000000 $t
C:\Users\hirot\AppData\Local\Temp\ccqjrqzk.s:901    .text.HAL_FLASH_Program:00000000 HAL_FLASH_Program
C:\Users\hirot\AppData\Local\Temp\ccqjrqzk.s:1045   .text.HAL_FLASH_Program:000000a8 $d
C:\Users\hirot\AppData\Local\Temp\ccqjrqzk.s:1051   .text.HAL_FLASH_OB_Launch:00000000 $t
C:\Users\hirot\AppData\Local\Temp\ccqjrqzk.s:1058   .text.HAL_FLASH_OB_Launch:00000000 HAL_FLASH_OB_Launch
C:\Users\hirot\AppData\Local\Temp\ccqjrqzk.s:1083   .text.HAL_FLASH_OB_Launch:00000018 $d
C:\Users\hirot\AppData\Local\Temp\ccqjrqzk.s:1093   .data.pFlash:00000000 pFlash
C:\Users\hirot\AppData\Local\Temp\ccqjrqzk.s:1089   .data.pFlash:00000000 $d
                     .debug_frame:00000010 $d

UNDEFINED SYMBOLS
FLASH_FlushCaches
FLASH_PageErase
HAL_GetTick
