ARM GAS  C:\Users\hirot\AppData\Local\Temp\ccKvd7ca.s 			page 1


   1              		.cpu cortex-m4
   2              		.eabi_attribute 27, 1
   3              		.eabi_attribute 28, 1
   4              		.eabi_attribute 20, 1
   5              		.eabi_attribute 21, 1
   6              		.eabi_attribute 23, 3
   7              		.eabi_attribute 24, 1
   8              		.eabi_attribute 25, 1
   9              		.eabi_attribute 26, 1
  10              		.eabi_attribute 30, 1
  11              		.eabi_attribute 34, 1
  12              		.eabi_attribute 18, 4
  13              		.file	"stm32l4xx_hal_flash_ex.c"
  14              		.text
  15              	.Ltext0:
  16              		.cfi_sections	.debug_frame
  17              		.section	.text.FLASH_MassErase,"ax",%progbits
  18              		.align	1
  19              		.syntax unified
  20              		.thumb
  21              		.thumb_func
  22              		.fpu fpv4-sp-d16
  24              	FLASH_MassErase:
  25              	.LFB134:
  26              		.file 1 "Drivers/STM32L4xx_HAL_Driver/Src/stm32l4xx_hal_flash_ex.c"
   1:Drivers/STM32L4xx_HAL_Driver/Src/stm32l4xx_hal_flash_ex.c **** /**
   2:Drivers/STM32L4xx_HAL_Driver/Src/stm32l4xx_hal_flash_ex.c ****   ******************************************************************************
   3:Drivers/STM32L4xx_HAL_Driver/Src/stm32l4xx_hal_flash_ex.c ****   * @file    stm32l4xx_hal_flash_ex.c
   4:Drivers/STM32L4xx_HAL_Driver/Src/stm32l4xx_hal_flash_ex.c ****   * @author  MCD Application Team
   5:Drivers/STM32L4xx_HAL_Driver/Src/stm32l4xx_hal_flash_ex.c ****   * @brief   Extended FLASH HAL module driver.
   6:Drivers/STM32L4xx_HAL_Driver/Src/stm32l4xx_hal_flash_ex.c ****   *          This file provides firmware functions to manage the following
   7:Drivers/STM32L4xx_HAL_Driver/Src/stm32l4xx_hal_flash_ex.c ****   *          functionalities of the FLASH extended peripheral:
   8:Drivers/STM32L4xx_HAL_Driver/Src/stm32l4xx_hal_flash_ex.c ****   *           + Extended programming operations functions
   9:Drivers/STM32L4xx_HAL_Driver/Src/stm32l4xx_hal_flash_ex.c ****   *
  10:Drivers/STM32L4xx_HAL_Driver/Src/stm32l4xx_hal_flash_ex.c ****  @verbatim
  11:Drivers/STM32L4xx_HAL_Driver/Src/stm32l4xx_hal_flash_ex.c ****  ==============================================================================
  12:Drivers/STM32L4xx_HAL_Driver/Src/stm32l4xx_hal_flash_ex.c ****                    ##### Flash Extended features #####
  13:Drivers/STM32L4xx_HAL_Driver/Src/stm32l4xx_hal_flash_ex.c ****   ==============================================================================
  14:Drivers/STM32L4xx_HAL_Driver/Src/stm32l4xx_hal_flash_ex.c **** 
  15:Drivers/STM32L4xx_HAL_Driver/Src/stm32l4xx_hal_flash_ex.c ****   [..] Comparing to other previous devices, the FLASH interface for STM32L4xx
  16:Drivers/STM32L4xx_HAL_Driver/Src/stm32l4xx_hal_flash_ex.c ****        devices contains the following additional features
  17:Drivers/STM32L4xx_HAL_Driver/Src/stm32l4xx_hal_flash_ex.c **** 
  18:Drivers/STM32L4xx_HAL_Driver/Src/stm32l4xx_hal_flash_ex.c ****        (+) Capacity up to 2 Mbyte with dual bank architecture supporting read-while-write
  19:Drivers/STM32L4xx_HAL_Driver/Src/stm32l4xx_hal_flash_ex.c ****            capability (RWW)
  20:Drivers/STM32L4xx_HAL_Driver/Src/stm32l4xx_hal_flash_ex.c ****        (+) Dual bank memory organization
  21:Drivers/STM32L4xx_HAL_Driver/Src/stm32l4xx_hal_flash_ex.c ****        (+) PCROP protection for all banks
  22:Drivers/STM32L4xx_HAL_Driver/Src/stm32l4xx_hal_flash_ex.c **** 
  23:Drivers/STM32L4xx_HAL_Driver/Src/stm32l4xx_hal_flash_ex.c ****                         ##### How to use this driver #####
  24:Drivers/STM32L4xx_HAL_Driver/Src/stm32l4xx_hal_flash_ex.c ****  ==============================================================================
  25:Drivers/STM32L4xx_HAL_Driver/Src/stm32l4xx_hal_flash_ex.c ****   [..] This driver provides functions to configure and program the FLASH memory
  26:Drivers/STM32L4xx_HAL_Driver/Src/stm32l4xx_hal_flash_ex.c ****        of all STM32L4xx devices. It includes
  27:Drivers/STM32L4xx_HAL_Driver/Src/stm32l4xx_hal_flash_ex.c ****       (#) Flash Memory Erase functions:
  28:Drivers/STM32L4xx_HAL_Driver/Src/stm32l4xx_hal_flash_ex.c ****            (++) Lock and Unlock the FLASH interface using HAL_FLASH_Unlock() and
  29:Drivers/STM32L4xx_HAL_Driver/Src/stm32l4xx_hal_flash_ex.c ****                 HAL_FLASH_Lock() functions
  30:Drivers/STM32L4xx_HAL_Driver/Src/stm32l4xx_hal_flash_ex.c ****            (++) Erase function: Erase page, erase all sectors
  31:Drivers/STM32L4xx_HAL_Driver/Src/stm32l4xx_hal_flash_ex.c ****            (++) There are two modes of erase :
  32:Drivers/STM32L4xx_HAL_Driver/Src/stm32l4xx_hal_flash_ex.c ****              (+++) Polling Mode using HAL_FLASHEx_Erase()
ARM GAS  C:\Users\hirot\AppData\Local\Temp\ccKvd7ca.s 			page 2


  33:Drivers/STM32L4xx_HAL_Driver/Src/stm32l4xx_hal_flash_ex.c ****              (+++) Interrupt Mode using HAL_FLASHEx_Erase_IT()
  34:Drivers/STM32L4xx_HAL_Driver/Src/stm32l4xx_hal_flash_ex.c **** 
  35:Drivers/STM32L4xx_HAL_Driver/Src/stm32l4xx_hal_flash_ex.c ****       (#) Option Bytes Programming function: Use HAL_FLASHEx_OBProgram() to :
  36:Drivers/STM32L4xx_HAL_Driver/Src/stm32l4xx_hal_flash_ex.c ****         (++) Set/Reset the write protection
  37:Drivers/STM32L4xx_HAL_Driver/Src/stm32l4xx_hal_flash_ex.c ****         (++) Set the Read protection Level
  38:Drivers/STM32L4xx_HAL_Driver/Src/stm32l4xx_hal_flash_ex.c ****         (++) Program the user Option Bytes
  39:Drivers/STM32L4xx_HAL_Driver/Src/stm32l4xx_hal_flash_ex.c ****         (++) Configure the PCROP protection
  40:Drivers/STM32L4xx_HAL_Driver/Src/stm32l4xx_hal_flash_ex.c **** 
  41:Drivers/STM32L4xx_HAL_Driver/Src/stm32l4xx_hal_flash_ex.c ****       (#) Get Option Bytes Configuration function: Use HAL_FLASHEx_OBGetConfig() to :
  42:Drivers/STM32L4xx_HAL_Driver/Src/stm32l4xx_hal_flash_ex.c ****         (++) Get the value of a write protection area
  43:Drivers/STM32L4xx_HAL_Driver/Src/stm32l4xx_hal_flash_ex.c ****         (++) Know if the read protection is activated
  44:Drivers/STM32L4xx_HAL_Driver/Src/stm32l4xx_hal_flash_ex.c ****         (++) Get the value of the user Option Bytes
  45:Drivers/STM32L4xx_HAL_Driver/Src/stm32l4xx_hal_flash_ex.c ****         (++) Get the value of a PCROP area
  46:Drivers/STM32L4xx_HAL_Driver/Src/stm32l4xx_hal_flash_ex.c **** 
  47:Drivers/STM32L4xx_HAL_Driver/Src/stm32l4xx_hal_flash_ex.c ****  @endverbatim
  48:Drivers/STM32L4xx_HAL_Driver/Src/stm32l4xx_hal_flash_ex.c ****   ******************************************************************************
  49:Drivers/STM32L4xx_HAL_Driver/Src/stm32l4xx_hal_flash_ex.c ****   * @attention
  50:Drivers/STM32L4xx_HAL_Driver/Src/stm32l4xx_hal_flash_ex.c ****   *
  51:Drivers/STM32L4xx_HAL_Driver/Src/stm32l4xx_hal_flash_ex.c ****   * <h2><center>&copy; Copyright (c) 2017 STMicroelectronics.
  52:Drivers/STM32L4xx_HAL_Driver/Src/stm32l4xx_hal_flash_ex.c ****   * All rights reserved.</center></h2>
  53:Drivers/STM32L4xx_HAL_Driver/Src/stm32l4xx_hal_flash_ex.c ****   *
  54:Drivers/STM32L4xx_HAL_Driver/Src/stm32l4xx_hal_flash_ex.c ****   * This software component is licensed by ST under BSD 3-Clause license,
  55:Drivers/STM32L4xx_HAL_Driver/Src/stm32l4xx_hal_flash_ex.c ****   * the "License"; You may not use this file except in compliance with the
  56:Drivers/STM32L4xx_HAL_Driver/Src/stm32l4xx_hal_flash_ex.c ****   * License. You may obtain a copy of the License at:
  57:Drivers/STM32L4xx_HAL_Driver/Src/stm32l4xx_hal_flash_ex.c ****   *                       opensource.org/licenses/BSD-3-Clause
  58:Drivers/STM32L4xx_HAL_Driver/Src/stm32l4xx_hal_flash_ex.c ****   *
  59:Drivers/STM32L4xx_HAL_Driver/Src/stm32l4xx_hal_flash_ex.c ****   ******************************************************************************
  60:Drivers/STM32L4xx_HAL_Driver/Src/stm32l4xx_hal_flash_ex.c ****   */
  61:Drivers/STM32L4xx_HAL_Driver/Src/stm32l4xx_hal_flash_ex.c **** 
  62:Drivers/STM32L4xx_HAL_Driver/Src/stm32l4xx_hal_flash_ex.c **** /* Includes ------------------------------------------------------------------*/
  63:Drivers/STM32L4xx_HAL_Driver/Src/stm32l4xx_hal_flash_ex.c **** #include "stm32l4xx_hal.h"
  64:Drivers/STM32L4xx_HAL_Driver/Src/stm32l4xx_hal_flash_ex.c **** 
  65:Drivers/STM32L4xx_HAL_Driver/Src/stm32l4xx_hal_flash_ex.c **** /** @addtogroup STM32L4xx_HAL_Driver
  66:Drivers/STM32L4xx_HAL_Driver/Src/stm32l4xx_hal_flash_ex.c ****   * @{
  67:Drivers/STM32L4xx_HAL_Driver/Src/stm32l4xx_hal_flash_ex.c ****   */
  68:Drivers/STM32L4xx_HAL_Driver/Src/stm32l4xx_hal_flash_ex.c **** 
  69:Drivers/STM32L4xx_HAL_Driver/Src/stm32l4xx_hal_flash_ex.c **** /** @defgroup FLASHEx FLASHEx
  70:Drivers/STM32L4xx_HAL_Driver/Src/stm32l4xx_hal_flash_ex.c ****   * @brief FLASH Extended HAL module driver
  71:Drivers/STM32L4xx_HAL_Driver/Src/stm32l4xx_hal_flash_ex.c ****   * @{
  72:Drivers/STM32L4xx_HAL_Driver/Src/stm32l4xx_hal_flash_ex.c ****   */
  73:Drivers/STM32L4xx_HAL_Driver/Src/stm32l4xx_hal_flash_ex.c **** 
  74:Drivers/STM32L4xx_HAL_Driver/Src/stm32l4xx_hal_flash_ex.c **** #ifdef HAL_FLASH_MODULE_ENABLED
  75:Drivers/STM32L4xx_HAL_Driver/Src/stm32l4xx_hal_flash_ex.c **** 
  76:Drivers/STM32L4xx_HAL_Driver/Src/stm32l4xx_hal_flash_ex.c **** /* Private typedef -----------------------------------------------------------*/
  77:Drivers/STM32L4xx_HAL_Driver/Src/stm32l4xx_hal_flash_ex.c **** /* Private define ------------------------------------------------------------*/
  78:Drivers/STM32L4xx_HAL_Driver/Src/stm32l4xx_hal_flash_ex.c **** /* Private macro -------------------------------------------------------------*/
  79:Drivers/STM32L4xx_HAL_Driver/Src/stm32l4xx_hal_flash_ex.c **** /* Private variables ---------------------------------------------------------*/
  80:Drivers/STM32L4xx_HAL_Driver/Src/stm32l4xx_hal_flash_ex.c **** /* Private function prototypes -----------------------------------------------*/
  81:Drivers/STM32L4xx_HAL_Driver/Src/stm32l4xx_hal_flash_ex.c **** /** @defgroup FLASHEx_Private_Functions FLASHEx Private Functions
  82:Drivers/STM32L4xx_HAL_Driver/Src/stm32l4xx_hal_flash_ex.c ****  * @{
  83:Drivers/STM32L4xx_HAL_Driver/Src/stm32l4xx_hal_flash_ex.c ****  */
  84:Drivers/STM32L4xx_HAL_Driver/Src/stm32l4xx_hal_flash_ex.c **** static void              FLASH_MassErase(uint32_t Banks);
  85:Drivers/STM32L4xx_HAL_Driver/Src/stm32l4xx_hal_flash_ex.c **** static HAL_StatusTypeDef FLASH_OB_WRPConfig(uint32_t WRPArea, uint32_t WRPStartOffset, uint32_t WRD
  86:Drivers/STM32L4xx_HAL_Driver/Src/stm32l4xx_hal_flash_ex.c **** static HAL_StatusTypeDef FLASH_OB_RDPConfig(uint32_t RDPLevel);
  87:Drivers/STM32L4xx_HAL_Driver/Src/stm32l4xx_hal_flash_ex.c **** static HAL_StatusTypeDef FLASH_OB_UserConfig(uint32_t UserType, uint32_t UserConfig);
  88:Drivers/STM32L4xx_HAL_Driver/Src/stm32l4xx_hal_flash_ex.c **** static HAL_StatusTypeDef FLASH_OB_PCROPConfig(uint32_t PCROPConfig, uint32_t PCROPStartAddr, uint32
  89:Drivers/STM32L4xx_HAL_Driver/Src/stm32l4xx_hal_flash_ex.c **** static void              FLASH_OB_GetWRP(uint32_t WRPArea, uint32_t * WRPStartOffset, uint32_t * WR
ARM GAS  C:\Users\hirot\AppData\Local\Temp\ccKvd7ca.s 			page 3


  90:Drivers/STM32L4xx_HAL_Driver/Src/stm32l4xx_hal_flash_ex.c **** static uint32_t          FLASH_OB_GetRDP(void);
  91:Drivers/STM32L4xx_HAL_Driver/Src/stm32l4xx_hal_flash_ex.c **** static uint32_t          FLASH_OB_GetUser(void);
  92:Drivers/STM32L4xx_HAL_Driver/Src/stm32l4xx_hal_flash_ex.c **** static void              FLASH_OB_GetPCROP(uint32_t * PCROPConfig, uint32_t * PCROPStartAddr, uint3
  93:Drivers/STM32L4xx_HAL_Driver/Src/stm32l4xx_hal_flash_ex.c **** /**
  94:Drivers/STM32L4xx_HAL_Driver/Src/stm32l4xx_hal_flash_ex.c ****   * @}
  95:Drivers/STM32L4xx_HAL_Driver/Src/stm32l4xx_hal_flash_ex.c ****   */
  96:Drivers/STM32L4xx_HAL_Driver/Src/stm32l4xx_hal_flash_ex.c **** 
  97:Drivers/STM32L4xx_HAL_Driver/Src/stm32l4xx_hal_flash_ex.c **** /* Exported functions -------------------------------------------------------*/
  98:Drivers/STM32L4xx_HAL_Driver/Src/stm32l4xx_hal_flash_ex.c **** /** @defgroup FLASHEx_Exported_Functions FLASHEx Exported Functions
  99:Drivers/STM32L4xx_HAL_Driver/Src/stm32l4xx_hal_flash_ex.c ****   * @{
 100:Drivers/STM32L4xx_HAL_Driver/Src/stm32l4xx_hal_flash_ex.c ****   */
 101:Drivers/STM32L4xx_HAL_Driver/Src/stm32l4xx_hal_flash_ex.c **** 
 102:Drivers/STM32L4xx_HAL_Driver/Src/stm32l4xx_hal_flash_ex.c **** /** @defgroup FLASHEx_Exported_Functions_Group1 Extended IO operation functions
 103:Drivers/STM32L4xx_HAL_Driver/Src/stm32l4xx_hal_flash_ex.c ****  *  @brief   Extended IO operation functions
 104:Drivers/STM32L4xx_HAL_Driver/Src/stm32l4xx_hal_flash_ex.c ****  *
 105:Drivers/STM32L4xx_HAL_Driver/Src/stm32l4xx_hal_flash_ex.c **** @verbatim
 106:Drivers/STM32L4xx_HAL_Driver/Src/stm32l4xx_hal_flash_ex.c ****  ===============================================================================
 107:Drivers/STM32L4xx_HAL_Driver/Src/stm32l4xx_hal_flash_ex.c ****                 ##### Extended programming operation functions #####
 108:Drivers/STM32L4xx_HAL_Driver/Src/stm32l4xx_hal_flash_ex.c ****  ===============================================================================
 109:Drivers/STM32L4xx_HAL_Driver/Src/stm32l4xx_hal_flash_ex.c ****     [..]
 110:Drivers/STM32L4xx_HAL_Driver/Src/stm32l4xx_hal_flash_ex.c ****     This subsection provides a set of functions allowing to manage the Extended FLASH
 111:Drivers/STM32L4xx_HAL_Driver/Src/stm32l4xx_hal_flash_ex.c ****     programming operations Operations.
 112:Drivers/STM32L4xx_HAL_Driver/Src/stm32l4xx_hal_flash_ex.c **** 
 113:Drivers/STM32L4xx_HAL_Driver/Src/stm32l4xx_hal_flash_ex.c **** @endverbatim
 114:Drivers/STM32L4xx_HAL_Driver/Src/stm32l4xx_hal_flash_ex.c ****   * @{
 115:Drivers/STM32L4xx_HAL_Driver/Src/stm32l4xx_hal_flash_ex.c ****   */
 116:Drivers/STM32L4xx_HAL_Driver/Src/stm32l4xx_hal_flash_ex.c **** /**
 117:Drivers/STM32L4xx_HAL_Driver/Src/stm32l4xx_hal_flash_ex.c ****   * @brief  Perform a mass erase or erase the specified FLASH memory pages.
 118:Drivers/STM32L4xx_HAL_Driver/Src/stm32l4xx_hal_flash_ex.c ****   * @param[in]  pEraseInit: pointer to an FLASH_EraseInitTypeDef structure that
 119:Drivers/STM32L4xx_HAL_Driver/Src/stm32l4xx_hal_flash_ex.c ****   *         contains the configuration information for the erasing.
 120:Drivers/STM32L4xx_HAL_Driver/Src/stm32l4xx_hal_flash_ex.c ****   *
 121:Drivers/STM32L4xx_HAL_Driver/Src/stm32l4xx_hal_flash_ex.c ****   * @param[out]  PageError  : pointer to variable that contains the configuration
 122:Drivers/STM32L4xx_HAL_Driver/Src/stm32l4xx_hal_flash_ex.c ****   *         information on faulty page in case of error (0xFFFFFFFF means that all
 123:Drivers/STM32L4xx_HAL_Driver/Src/stm32l4xx_hal_flash_ex.c ****   *         the pages have been correctly erased)
 124:Drivers/STM32L4xx_HAL_Driver/Src/stm32l4xx_hal_flash_ex.c ****   *
 125:Drivers/STM32L4xx_HAL_Driver/Src/stm32l4xx_hal_flash_ex.c ****   * @retval HAL Status
 126:Drivers/STM32L4xx_HAL_Driver/Src/stm32l4xx_hal_flash_ex.c ****   */
 127:Drivers/STM32L4xx_HAL_Driver/Src/stm32l4xx_hal_flash_ex.c **** HAL_StatusTypeDef HAL_FLASHEx_Erase(FLASH_EraseInitTypeDef *pEraseInit, uint32_t *PageError)
 128:Drivers/STM32L4xx_HAL_Driver/Src/stm32l4xx_hal_flash_ex.c **** {
 129:Drivers/STM32L4xx_HAL_Driver/Src/stm32l4xx_hal_flash_ex.c ****   HAL_StatusTypeDef status;
 130:Drivers/STM32L4xx_HAL_Driver/Src/stm32l4xx_hal_flash_ex.c ****   uint32_t page_index;
 131:Drivers/STM32L4xx_HAL_Driver/Src/stm32l4xx_hal_flash_ex.c **** 
 132:Drivers/STM32L4xx_HAL_Driver/Src/stm32l4xx_hal_flash_ex.c ****   /* Process Locked */
 133:Drivers/STM32L4xx_HAL_Driver/Src/stm32l4xx_hal_flash_ex.c ****   __HAL_LOCK(&pFlash);
 134:Drivers/STM32L4xx_HAL_Driver/Src/stm32l4xx_hal_flash_ex.c **** 
 135:Drivers/STM32L4xx_HAL_Driver/Src/stm32l4xx_hal_flash_ex.c ****   /* Check the parameters */
 136:Drivers/STM32L4xx_HAL_Driver/Src/stm32l4xx_hal_flash_ex.c ****   assert_param(IS_FLASH_TYPEERASE(pEraseInit->TypeErase));
 137:Drivers/STM32L4xx_HAL_Driver/Src/stm32l4xx_hal_flash_ex.c **** 
 138:Drivers/STM32L4xx_HAL_Driver/Src/stm32l4xx_hal_flash_ex.c ****   /* Wait for last operation to be completed */
 139:Drivers/STM32L4xx_HAL_Driver/Src/stm32l4xx_hal_flash_ex.c ****   status = FLASH_WaitForLastOperation((uint32_t)FLASH_TIMEOUT_VALUE);
 140:Drivers/STM32L4xx_HAL_Driver/Src/stm32l4xx_hal_flash_ex.c **** 
 141:Drivers/STM32L4xx_HAL_Driver/Src/stm32l4xx_hal_flash_ex.c ****   if (status == HAL_OK)
 142:Drivers/STM32L4xx_HAL_Driver/Src/stm32l4xx_hal_flash_ex.c ****   {
 143:Drivers/STM32L4xx_HAL_Driver/Src/stm32l4xx_hal_flash_ex.c ****     pFlash.ErrorCode = HAL_FLASH_ERROR_NONE;
 144:Drivers/STM32L4xx_HAL_Driver/Src/stm32l4xx_hal_flash_ex.c **** 
 145:Drivers/STM32L4xx_HAL_Driver/Src/stm32l4xx_hal_flash_ex.c ****     /* Deactivate the cache if they are activated to avoid data misbehavior */
 146:Drivers/STM32L4xx_HAL_Driver/Src/stm32l4xx_hal_flash_ex.c ****     if(READ_BIT(FLASH->ACR, FLASH_ACR_ICEN) != 0U)
ARM GAS  C:\Users\hirot\AppData\Local\Temp\ccKvd7ca.s 			page 4


 147:Drivers/STM32L4xx_HAL_Driver/Src/stm32l4xx_hal_flash_ex.c ****     {
 148:Drivers/STM32L4xx_HAL_Driver/Src/stm32l4xx_hal_flash_ex.c ****       /* Disable instruction cache  */
 149:Drivers/STM32L4xx_HAL_Driver/Src/stm32l4xx_hal_flash_ex.c ****       __HAL_FLASH_INSTRUCTION_CACHE_DISABLE();
 150:Drivers/STM32L4xx_HAL_Driver/Src/stm32l4xx_hal_flash_ex.c **** 
 151:Drivers/STM32L4xx_HAL_Driver/Src/stm32l4xx_hal_flash_ex.c ****       if(READ_BIT(FLASH->ACR, FLASH_ACR_DCEN) != 0U)
 152:Drivers/STM32L4xx_HAL_Driver/Src/stm32l4xx_hal_flash_ex.c ****       {
 153:Drivers/STM32L4xx_HAL_Driver/Src/stm32l4xx_hal_flash_ex.c ****         /* Disable data cache  */
 154:Drivers/STM32L4xx_HAL_Driver/Src/stm32l4xx_hal_flash_ex.c ****         __HAL_FLASH_DATA_CACHE_DISABLE();
 155:Drivers/STM32L4xx_HAL_Driver/Src/stm32l4xx_hal_flash_ex.c ****         pFlash.CacheToReactivate = FLASH_CACHE_ICACHE_DCACHE_ENABLED;
 156:Drivers/STM32L4xx_HAL_Driver/Src/stm32l4xx_hal_flash_ex.c ****       }
 157:Drivers/STM32L4xx_HAL_Driver/Src/stm32l4xx_hal_flash_ex.c ****       else
 158:Drivers/STM32L4xx_HAL_Driver/Src/stm32l4xx_hal_flash_ex.c ****       {
 159:Drivers/STM32L4xx_HAL_Driver/Src/stm32l4xx_hal_flash_ex.c ****         pFlash.CacheToReactivate = FLASH_CACHE_ICACHE_ENABLED;
 160:Drivers/STM32L4xx_HAL_Driver/Src/stm32l4xx_hal_flash_ex.c ****       }
 161:Drivers/STM32L4xx_HAL_Driver/Src/stm32l4xx_hal_flash_ex.c ****     }
 162:Drivers/STM32L4xx_HAL_Driver/Src/stm32l4xx_hal_flash_ex.c ****     else if(READ_BIT(FLASH->ACR, FLASH_ACR_DCEN) != 0U)
 163:Drivers/STM32L4xx_HAL_Driver/Src/stm32l4xx_hal_flash_ex.c ****     {
 164:Drivers/STM32L4xx_HAL_Driver/Src/stm32l4xx_hal_flash_ex.c ****       /* Disable data cache  */
 165:Drivers/STM32L4xx_HAL_Driver/Src/stm32l4xx_hal_flash_ex.c ****       __HAL_FLASH_DATA_CACHE_DISABLE();
 166:Drivers/STM32L4xx_HAL_Driver/Src/stm32l4xx_hal_flash_ex.c ****       pFlash.CacheToReactivate = FLASH_CACHE_DCACHE_ENABLED;
 167:Drivers/STM32L4xx_HAL_Driver/Src/stm32l4xx_hal_flash_ex.c ****     }
 168:Drivers/STM32L4xx_HAL_Driver/Src/stm32l4xx_hal_flash_ex.c ****     else
 169:Drivers/STM32L4xx_HAL_Driver/Src/stm32l4xx_hal_flash_ex.c ****     {
 170:Drivers/STM32L4xx_HAL_Driver/Src/stm32l4xx_hal_flash_ex.c ****       pFlash.CacheToReactivate = FLASH_CACHE_DISABLED;
 171:Drivers/STM32L4xx_HAL_Driver/Src/stm32l4xx_hal_flash_ex.c ****     }
 172:Drivers/STM32L4xx_HAL_Driver/Src/stm32l4xx_hal_flash_ex.c **** 
 173:Drivers/STM32L4xx_HAL_Driver/Src/stm32l4xx_hal_flash_ex.c ****     if (pEraseInit->TypeErase == FLASH_TYPEERASE_MASSERASE)
 174:Drivers/STM32L4xx_HAL_Driver/Src/stm32l4xx_hal_flash_ex.c ****     {
 175:Drivers/STM32L4xx_HAL_Driver/Src/stm32l4xx_hal_flash_ex.c ****       /* Mass erase to be done */
 176:Drivers/STM32L4xx_HAL_Driver/Src/stm32l4xx_hal_flash_ex.c ****       FLASH_MassErase(pEraseInit->Banks);
 177:Drivers/STM32L4xx_HAL_Driver/Src/stm32l4xx_hal_flash_ex.c **** 
 178:Drivers/STM32L4xx_HAL_Driver/Src/stm32l4xx_hal_flash_ex.c ****       /* Wait for last operation to be completed */
 179:Drivers/STM32L4xx_HAL_Driver/Src/stm32l4xx_hal_flash_ex.c ****       status = FLASH_WaitForLastOperation((uint32_t)FLASH_TIMEOUT_VALUE);
 180:Drivers/STM32L4xx_HAL_Driver/Src/stm32l4xx_hal_flash_ex.c **** 
 181:Drivers/STM32L4xx_HAL_Driver/Src/stm32l4xx_hal_flash_ex.c **** #if defined (STM32L471xx) || defined (STM32L475xx) || defined (STM32L476xx) || defined (STM32L485xx
 182:Drivers/STM32L4xx_HAL_Driver/Src/stm32l4xx_hal_flash_ex.c ****     defined (STM32L496xx) || defined (STM32L4A6xx) || \
 183:Drivers/STM32L4xx_HAL_Driver/Src/stm32l4xx_hal_flash_ex.c ****     defined (STM32L4R5xx) || defined (STM32L4R7xx) || defined (STM32L4R9xx) || defined (STM32L4S5xx
 184:Drivers/STM32L4xx_HAL_Driver/Src/stm32l4xx_hal_flash_ex.c ****       /* If the erase operation is completed, disable the MER1 and MER2 Bits */
 185:Drivers/STM32L4xx_HAL_Driver/Src/stm32l4xx_hal_flash_ex.c ****       CLEAR_BIT(FLASH->CR, (FLASH_CR_MER1 | FLASH_CR_MER2));
 186:Drivers/STM32L4xx_HAL_Driver/Src/stm32l4xx_hal_flash_ex.c **** #else
 187:Drivers/STM32L4xx_HAL_Driver/Src/stm32l4xx_hal_flash_ex.c ****       /* If the erase operation is completed, disable the MER1 Bit */
 188:Drivers/STM32L4xx_HAL_Driver/Src/stm32l4xx_hal_flash_ex.c ****       CLEAR_BIT(FLASH->CR, (FLASH_CR_MER1));
 189:Drivers/STM32L4xx_HAL_Driver/Src/stm32l4xx_hal_flash_ex.c **** #endif
 190:Drivers/STM32L4xx_HAL_Driver/Src/stm32l4xx_hal_flash_ex.c ****     }
 191:Drivers/STM32L4xx_HAL_Driver/Src/stm32l4xx_hal_flash_ex.c ****     else
 192:Drivers/STM32L4xx_HAL_Driver/Src/stm32l4xx_hal_flash_ex.c ****     {
 193:Drivers/STM32L4xx_HAL_Driver/Src/stm32l4xx_hal_flash_ex.c ****       /*Initialization of PageError variable*/
 194:Drivers/STM32L4xx_HAL_Driver/Src/stm32l4xx_hal_flash_ex.c ****       *PageError = 0xFFFFFFFFU;
 195:Drivers/STM32L4xx_HAL_Driver/Src/stm32l4xx_hal_flash_ex.c **** 
 196:Drivers/STM32L4xx_HAL_Driver/Src/stm32l4xx_hal_flash_ex.c ****       for(page_index = pEraseInit->Page; page_index < (pEraseInit->Page + pEraseInit->NbPages); pag
 197:Drivers/STM32L4xx_HAL_Driver/Src/stm32l4xx_hal_flash_ex.c ****       {
 198:Drivers/STM32L4xx_HAL_Driver/Src/stm32l4xx_hal_flash_ex.c ****         FLASH_PageErase(page_index, pEraseInit->Banks);
 199:Drivers/STM32L4xx_HAL_Driver/Src/stm32l4xx_hal_flash_ex.c **** 
 200:Drivers/STM32L4xx_HAL_Driver/Src/stm32l4xx_hal_flash_ex.c ****         /* Wait for last operation to be completed */
 201:Drivers/STM32L4xx_HAL_Driver/Src/stm32l4xx_hal_flash_ex.c ****         status = FLASH_WaitForLastOperation((uint32_t)FLASH_TIMEOUT_VALUE);
 202:Drivers/STM32L4xx_HAL_Driver/Src/stm32l4xx_hal_flash_ex.c **** 
 203:Drivers/STM32L4xx_HAL_Driver/Src/stm32l4xx_hal_flash_ex.c ****         /* If the erase operation is completed, disable the PER Bit */
ARM GAS  C:\Users\hirot\AppData\Local\Temp\ccKvd7ca.s 			page 5


 204:Drivers/STM32L4xx_HAL_Driver/Src/stm32l4xx_hal_flash_ex.c ****         CLEAR_BIT(FLASH->CR, (FLASH_CR_PER | FLASH_CR_PNB));
 205:Drivers/STM32L4xx_HAL_Driver/Src/stm32l4xx_hal_flash_ex.c **** 
 206:Drivers/STM32L4xx_HAL_Driver/Src/stm32l4xx_hal_flash_ex.c ****         if (status != HAL_OK)
 207:Drivers/STM32L4xx_HAL_Driver/Src/stm32l4xx_hal_flash_ex.c ****         {
 208:Drivers/STM32L4xx_HAL_Driver/Src/stm32l4xx_hal_flash_ex.c ****           /* In case of error, stop erase procedure and return the faulty address */
 209:Drivers/STM32L4xx_HAL_Driver/Src/stm32l4xx_hal_flash_ex.c ****           *PageError = page_index;
 210:Drivers/STM32L4xx_HAL_Driver/Src/stm32l4xx_hal_flash_ex.c ****           break;
 211:Drivers/STM32L4xx_HAL_Driver/Src/stm32l4xx_hal_flash_ex.c ****         }
 212:Drivers/STM32L4xx_HAL_Driver/Src/stm32l4xx_hal_flash_ex.c ****       }
 213:Drivers/STM32L4xx_HAL_Driver/Src/stm32l4xx_hal_flash_ex.c ****     }
 214:Drivers/STM32L4xx_HAL_Driver/Src/stm32l4xx_hal_flash_ex.c **** 
 215:Drivers/STM32L4xx_HAL_Driver/Src/stm32l4xx_hal_flash_ex.c ****     /* Flush the caches to be sure of the data consistency */
 216:Drivers/STM32L4xx_HAL_Driver/Src/stm32l4xx_hal_flash_ex.c ****     FLASH_FlushCaches();
 217:Drivers/STM32L4xx_HAL_Driver/Src/stm32l4xx_hal_flash_ex.c ****   }
 218:Drivers/STM32L4xx_HAL_Driver/Src/stm32l4xx_hal_flash_ex.c **** 
 219:Drivers/STM32L4xx_HAL_Driver/Src/stm32l4xx_hal_flash_ex.c ****   /* Process Unlocked */
 220:Drivers/STM32L4xx_HAL_Driver/Src/stm32l4xx_hal_flash_ex.c ****   __HAL_UNLOCK(&pFlash);
 221:Drivers/STM32L4xx_HAL_Driver/Src/stm32l4xx_hal_flash_ex.c **** 
 222:Drivers/STM32L4xx_HAL_Driver/Src/stm32l4xx_hal_flash_ex.c ****   return status;
 223:Drivers/STM32L4xx_HAL_Driver/Src/stm32l4xx_hal_flash_ex.c **** }
 224:Drivers/STM32L4xx_HAL_Driver/Src/stm32l4xx_hal_flash_ex.c **** 
 225:Drivers/STM32L4xx_HAL_Driver/Src/stm32l4xx_hal_flash_ex.c **** /**
 226:Drivers/STM32L4xx_HAL_Driver/Src/stm32l4xx_hal_flash_ex.c ****   * @brief  Perform a mass erase or erase the specified FLASH memory pages with interrupt enabled.
 227:Drivers/STM32L4xx_HAL_Driver/Src/stm32l4xx_hal_flash_ex.c ****   * @param  pEraseInit: pointer to an FLASH_EraseInitTypeDef structure that
 228:Drivers/STM32L4xx_HAL_Driver/Src/stm32l4xx_hal_flash_ex.c ****   *         contains the configuration information for the erasing.
 229:Drivers/STM32L4xx_HAL_Driver/Src/stm32l4xx_hal_flash_ex.c ****   *
 230:Drivers/STM32L4xx_HAL_Driver/Src/stm32l4xx_hal_flash_ex.c ****   * @retval HAL Status
 231:Drivers/STM32L4xx_HAL_Driver/Src/stm32l4xx_hal_flash_ex.c ****   */
 232:Drivers/STM32L4xx_HAL_Driver/Src/stm32l4xx_hal_flash_ex.c **** HAL_StatusTypeDef HAL_FLASHEx_Erase_IT(FLASH_EraseInitTypeDef *pEraseInit)
 233:Drivers/STM32L4xx_HAL_Driver/Src/stm32l4xx_hal_flash_ex.c **** {
 234:Drivers/STM32L4xx_HAL_Driver/Src/stm32l4xx_hal_flash_ex.c ****   HAL_StatusTypeDef status = HAL_OK;
 235:Drivers/STM32L4xx_HAL_Driver/Src/stm32l4xx_hal_flash_ex.c **** 
 236:Drivers/STM32L4xx_HAL_Driver/Src/stm32l4xx_hal_flash_ex.c ****   /* Process Locked */
 237:Drivers/STM32L4xx_HAL_Driver/Src/stm32l4xx_hal_flash_ex.c ****   __HAL_LOCK(&pFlash);
 238:Drivers/STM32L4xx_HAL_Driver/Src/stm32l4xx_hal_flash_ex.c **** 
 239:Drivers/STM32L4xx_HAL_Driver/Src/stm32l4xx_hal_flash_ex.c ****   /* Check the parameters */
 240:Drivers/STM32L4xx_HAL_Driver/Src/stm32l4xx_hal_flash_ex.c ****   assert_param(IS_FLASH_TYPEERASE(pEraseInit->TypeErase));
 241:Drivers/STM32L4xx_HAL_Driver/Src/stm32l4xx_hal_flash_ex.c **** 
 242:Drivers/STM32L4xx_HAL_Driver/Src/stm32l4xx_hal_flash_ex.c ****   pFlash.ErrorCode = HAL_FLASH_ERROR_NONE;
 243:Drivers/STM32L4xx_HAL_Driver/Src/stm32l4xx_hal_flash_ex.c **** 
 244:Drivers/STM32L4xx_HAL_Driver/Src/stm32l4xx_hal_flash_ex.c ****   /* Deactivate the cache if they are activated to avoid data misbehavior */
 245:Drivers/STM32L4xx_HAL_Driver/Src/stm32l4xx_hal_flash_ex.c ****   if(READ_BIT(FLASH->ACR, FLASH_ACR_ICEN) != 0U)
 246:Drivers/STM32L4xx_HAL_Driver/Src/stm32l4xx_hal_flash_ex.c ****   {
 247:Drivers/STM32L4xx_HAL_Driver/Src/stm32l4xx_hal_flash_ex.c ****     /* Disable instruction cache  */
 248:Drivers/STM32L4xx_HAL_Driver/Src/stm32l4xx_hal_flash_ex.c ****     __HAL_FLASH_INSTRUCTION_CACHE_DISABLE();
 249:Drivers/STM32L4xx_HAL_Driver/Src/stm32l4xx_hal_flash_ex.c **** 
 250:Drivers/STM32L4xx_HAL_Driver/Src/stm32l4xx_hal_flash_ex.c ****     if(READ_BIT(FLASH->ACR, FLASH_ACR_DCEN) != 0U)
 251:Drivers/STM32L4xx_HAL_Driver/Src/stm32l4xx_hal_flash_ex.c ****     {
 252:Drivers/STM32L4xx_HAL_Driver/Src/stm32l4xx_hal_flash_ex.c ****       /* Disable data cache  */
 253:Drivers/STM32L4xx_HAL_Driver/Src/stm32l4xx_hal_flash_ex.c ****       __HAL_FLASH_DATA_CACHE_DISABLE();
 254:Drivers/STM32L4xx_HAL_Driver/Src/stm32l4xx_hal_flash_ex.c ****       pFlash.CacheToReactivate = FLASH_CACHE_ICACHE_DCACHE_ENABLED;
 255:Drivers/STM32L4xx_HAL_Driver/Src/stm32l4xx_hal_flash_ex.c ****     }
 256:Drivers/STM32L4xx_HAL_Driver/Src/stm32l4xx_hal_flash_ex.c ****     else
 257:Drivers/STM32L4xx_HAL_Driver/Src/stm32l4xx_hal_flash_ex.c ****     {
 258:Drivers/STM32L4xx_HAL_Driver/Src/stm32l4xx_hal_flash_ex.c ****       pFlash.CacheToReactivate = FLASH_CACHE_ICACHE_ENABLED;
 259:Drivers/STM32L4xx_HAL_Driver/Src/stm32l4xx_hal_flash_ex.c ****     }
 260:Drivers/STM32L4xx_HAL_Driver/Src/stm32l4xx_hal_flash_ex.c ****   }
ARM GAS  C:\Users\hirot\AppData\Local\Temp\ccKvd7ca.s 			page 6


 261:Drivers/STM32L4xx_HAL_Driver/Src/stm32l4xx_hal_flash_ex.c ****   else if(READ_BIT(FLASH->ACR, FLASH_ACR_DCEN) != 0U)
 262:Drivers/STM32L4xx_HAL_Driver/Src/stm32l4xx_hal_flash_ex.c ****   {
 263:Drivers/STM32L4xx_HAL_Driver/Src/stm32l4xx_hal_flash_ex.c ****     /* Disable data cache  */
 264:Drivers/STM32L4xx_HAL_Driver/Src/stm32l4xx_hal_flash_ex.c ****     __HAL_FLASH_DATA_CACHE_DISABLE();
 265:Drivers/STM32L4xx_HAL_Driver/Src/stm32l4xx_hal_flash_ex.c ****     pFlash.CacheToReactivate = FLASH_CACHE_DCACHE_ENABLED;
 266:Drivers/STM32L4xx_HAL_Driver/Src/stm32l4xx_hal_flash_ex.c ****   }
 267:Drivers/STM32L4xx_HAL_Driver/Src/stm32l4xx_hal_flash_ex.c ****   else
 268:Drivers/STM32L4xx_HAL_Driver/Src/stm32l4xx_hal_flash_ex.c ****   {
 269:Drivers/STM32L4xx_HAL_Driver/Src/stm32l4xx_hal_flash_ex.c ****     pFlash.CacheToReactivate = FLASH_CACHE_DISABLED;
 270:Drivers/STM32L4xx_HAL_Driver/Src/stm32l4xx_hal_flash_ex.c ****   }
 271:Drivers/STM32L4xx_HAL_Driver/Src/stm32l4xx_hal_flash_ex.c **** 
 272:Drivers/STM32L4xx_HAL_Driver/Src/stm32l4xx_hal_flash_ex.c ****   /* Enable End of Operation and Error interrupts */
 273:Drivers/STM32L4xx_HAL_Driver/Src/stm32l4xx_hal_flash_ex.c ****   __HAL_FLASH_ENABLE_IT(FLASH_IT_EOP | FLASH_IT_OPERR);
 274:Drivers/STM32L4xx_HAL_Driver/Src/stm32l4xx_hal_flash_ex.c **** 
 275:Drivers/STM32L4xx_HAL_Driver/Src/stm32l4xx_hal_flash_ex.c ****   pFlash.Bank = pEraseInit->Banks;
 276:Drivers/STM32L4xx_HAL_Driver/Src/stm32l4xx_hal_flash_ex.c **** 
 277:Drivers/STM32L4xx_HAL_Driver/Src/stm32l4xx_hal_flash_ex.c ****   if (pEraseInit->TypeErase == FLASH_TYPEERASE_MASSERASE)
 278:Drivers/STM32L4xx_HAL_Driver/Src/stm32l4xx_hal_flash_ex.c ****   {
 279:Drivers/STM32L4xx_HAL_Driver/Src/stm32l4xx_hal_flash_ex.c ****     /* Mass erase to be done */
 280:Drivers/STM32L4xx_HAL_Driver/Src/stm32l4xx_hal_flash_ex.c ****     pFlash.ProcedureOnGoing = FLASH_PROC_MASS_ERASE;
 281:Drivers/STM32L4xx_HAL_Driver/Src/stm32l4xx_hal_flash_ex.c ****     FLASH_MassErase(pEraseInit->Banks);
 282:Drivers/STM32L4xx_HAL_Driver/Src/stm32l4xx_hal_flash_ex.c ****   }
 283:Drivers/STM32L4xx_HAL_Driver/Src/stm32l4xx_hal_flash_ex.c ****   else
 284:Drivers/STM32L4xx_HAL_Driver/Src/stm32l4xx_hal_flash_ex.c ****   {
 285:Drivers/STM32L4xx_HAL_Driver/Src/stm32l4xx_hal_flash_ex.c ****     /* Erase by page to be done */
 286:Drivers/STM32L4xx_HAL_Driver/Src/stm32l4xx_hal_flash_ex.c ****     pFlash.ProcedureOnGoing = FLASH_PROC_PAGE_ERASE;
 287:Drivers/STM32L4xx_HAL_Driver/Src/stm32l4xx_hal_flash_ex.c ****     pFlash.NbPagesToErase = pEraseInit->NbPages;
 288:Drivers/STM32L4xx_HAL_Driver/Src/stm32l4xx_hal_flash_ex.c ****     pFlash.Page = pEraseInit->Page;
 289:Drivers/STM32L4xx_HAL_Driver/Src/stm32l4xx_hal_flash_ex.c **** 
 290:Drivers/STM32L4xx_HAL_Driver/Src/stm32l4xx_hal_flash_ex.c ****     /*Erase 1st page and wait for IT */
 291:Drivers/STM32L4xx_HAL_Driver/Src/stm32l4xx_hal_flash_ex.c ****     FLASH_PageErase(pEraseInit->Page, pEraseInit->Banks);
 292:Drivers/STM32L4xx_HAL_Driver/Src/stm32l4xx_hal_flash_ex.c ****   }
 293:Drivers/STM32L4xx_HAL_Driver/Src/stm32l4xx_hal_flash_ex.c **** 
 294:Drivers/STM32L4xx_HAL_Driver/Src/stm32l4xx_hal_flash_ex.c ****   return status;
 295:Drivers/STM32L4xx_HAL_Driver/Src/stm32l4xx_hal_flash_ex.c **** }
 296:Drivers/STM32L4xx_HAL_Driver/Src/stm32l4xx_hal_flash_ex.c **** 
 297:Drivers/STM32L4xx_HAL_Driver/Src/stm32l4xx_hal_flash_ex.c **** /**
 298:Drivers/STM32L4xx_HAL_Driver/Src/stm32l4xx_hal_flash_ex.c ****   * @brief  Program Option bytes.
 299:Drivers/STM32L4xx_HAL_Driver/Src/stm32l4xx_hal_flash_ex.c ****   * @param  pOBInit: pointer to an FLASH_OBInitStruct structure that
 300:Drivers/STM32L4xx_HAL_Driver/Src/stm32l4xx_hal_flash_ex.c ****   *         contains the configuration information for the programming.
 301:Drivers/STM32L4xx_HAL_Driver/Src/stm32l4xx_hal_flash_ex.c ****   *
 302:Drivers/STM32L4xx_HAL_Driver/Src/stm32l4xx_hal_flash_ex.c ****   * @retval HAL Status
 303:Drivers/STM32L4xx_HAL_Driver/Src/stm32l4xx_hal_flash_ex.c ****   */
 304:Drivers/STM32L4xx_HAL_Driver/Src/stm32l4xx_hal_flash_ex.c **** HAL_StatusTypeDef HAL_FLASHEx_OBProgram(FLASH_OBProgramInitTypeDef *pOBInit)
 305:Drivers/STM32L4xx_HAL_Driver/Src/stm32l4xx_hal_flash_ex.c **** {
 306:Drivers/STM32L4xx_HAL_Driver/Src/stm32l4xx_hal_flash_ex.c ****   HAL_StatusTypeDef status = HAL_OK;
 307:Drivers/STM32L4xx_HAL_Driver/Src/stm32l4xx_hal_flash_ex.c **** 
 308:Drivers/STM32L4xx_HAL_Driver/Src/stm32l4xx_hal_flash_ex.c ****   /* Process Locked */
 309:Drivers/STM32L4xx_HAL_Driver/Src/stm32l4xx_hal_flash_ex.c ****   __HAL_LOCK(&pFlash);
 310:Drivers/STM32L4xx_HAL_Driver/Src/stm32l4xx_hal_flash_ex.c **** 
 311:Drivers/STM32L4xx_HAL_Driver/Src/stm32l4xx_hal_flash_ex.c ****   /* Check the parameters */
 312:Drivers/STM32L4xx_HAL_Driver/Src/stm32l4xx_hal_flash_ex.c ****   assert_param(IS_OPTIONBYTE(pOBInit->OptionType));
 313:Drivers/STM32L4xx_HAL_Driver/Src/stm32l4xx_hal_flash_ex.c **** 
 314:Drivers/STM32L4xx_HAL_Driver/Src/stm32l4xx_hal_flash_ex.c ****   pFlash.ErrorCode = HAL_FLASH_ERROR_NONE;
 315:Drivers/STM32L4xx_HAL_Driver/Src/stm32l4xx_hal_flash_ex.c **** 
 316:Drivers/STM32L4xx_HAL_Driver/Src/stm32l4xx_hal_flash_ex.c ****   /* Write protection configuration */
 317:Drivers/STM32L4xx_HAL_Driver/Src/stm32l4xx_hal_flash_ex.c ****   if((pOBInit->OptionType & OPTIONBYTE_WRP) != 0U)
ARM GAS  C:\Users\hirot\AppData\Local\Temp\ccKvd7ca.s 			page 7


 318:Drivers/STM32L4xx_HAL_Driver/Src/stm32l4xx_hal_flash_ex.c ****   {
 319:Drivers/STM32L4xx_HAL_Driver/Src/stm32l4xx_hal_flash_ex.c ****     /* Configure of Write protection on the selected area */
 320:Drivers/STM32L4xx_HAL_Driver/Src/stm32l4xx_hal_flash_ex.c ****     if(FLASH_OB_WRPConfig(pOBInit->WRPArea, pOBInit->WRPStartOffset, pOBInit->WRPEndOffset) != HAL_
 321:Drivers/STM32L4xx_HAL_Driver/Src/stm32l4xx_hal_flash_ex.c ****     {
 322:Drivers/STM32L4xx_HAL_Driver/Src/stm32l4xx_hal_flash_ex.c ****       status = HAL_ERROR;
 323:Drivers/STM32L4xx_HAL_Driver/Src/stm32l4xx_hal_flash_ex.c ****     }
 324:Drivers/STM32L4xx_HAL_Driver/Src/stm32l4xx_hal_flash_ex.c **** 
 325:Drivers/STM32L4xx_HAL_Driver/Src/stm32l4xx_hal_flash_ex.c ****   }
 326:Drivers/STM32L4xx_HAL_Driver/Src/stm32l4xx_hal_flash_ex.c **** 
 327:Drivers/STM32L4xx_HAL_Driver/Src/stm32l4xx_hal_flash_ex.c ****   /* Read protection configuration */
 328:Drivers/STM32L4xx_HAL_Driver/Src/stm32l4xx_hal_flash_ex.c ****   if((pOBInit->OptionType & OPTIONBYTE_RDP) != 0U)
 329:Drivers/STM32L4xx_HAL_Driver/Src/stm32l4xx_hal_flash_ex.c ****   {
 330:Drivers/STM32L4xx_HAL_Driver/Src/stm32l4xx_hal_flash_ex.c ****     /* Configure the Read protection level */
 331:Drivers/STM32L4xx_HAL_Driver/Src/stm32l4xx_hal_flash_ex.c ****     if(FLASH_OB_RDPConfig(pOBInit->RDPLevel) != HAL_OK)
 332:Drivers/STM32L4xx_HAL_Driver/Src/stm32l4xx_hal_flash_ex.c ****     {
 333:Drivers/STM32L4xx_HAL_Driver/Src/stm32l4xx_hal_flash_ex.c ****       status = HAL_ERROR;
 334:Drivers/STM32L4xx_HAL_Driver/Src/stm32l4xx_hal_flash_ex.c ****     }
 335:Drivers/STM32L4xx_HAL_Driver/Src/stm32l4xx_hal_flash_ex.c ****   }
 336:Drivers/STM32L4xx_HAL_Driver/Src/stm32l4xx_hal_flash_ex.c **** 
 337:Drivers/STM32L4xx_HAL_Driver/Src/stm32l4xx_hal_flash_ex.c ****   /* User Configuration */
 338:Drivers/STM32L4xx_HAL_Driver/Src/stm32l4xx_hal_flash_ex.c ****   if((pOBInit->OptionType & OPTIONBYTE_USER) != 0U)
 339:Drivers/STM32L4xx_HAL_Driver/Src/stm32l4xx_hal_flash_ex.c ****   {
 340:Drivers/STM32L4xx_HAL_Driver/Src/stm32l4xx_hal_flash_ex.c ****     /* Configure the user option bytes */
 341:Drivers/STM32L4xx_HAL_Driver/Src/stm32l4xx_hal_flash_ex.c ****     if(FLASH_OB_UserConfig(pOBInit->USERType, pOBInit->USERConfig) != HAL_OK)
 342:Drivers/STM32L4xx_HAL_Driver/Src/stm32l4xx_hal_flash_ex.c ****     {
 343:Drivers/STM32L4xx_HAL_Driver/Src/stm32l4xx_hal_flash_ex.c ****       status = HAL_ERROR;
 344:Drivers/STM32L4xx_HAL_Driver/Src/stm32l4xx_hal_flash_ex.c ****     }
 345:Drivers/STM32L4xx_HAL_Driver/Src/stm32l4xx_hal_flash_ex.c ****   }
 346:Drivers/STM32L4xx_HAL_Driver/Src/stm32l4xx_hal_flash_ex.c **** 
 347:Drivers/STM32L4xx_HAL_Driver/Src/stm32l4xx_hal_flash_ex.c ****   /* PCROP Configuration */
 348:Drivers/STM32L4xx_HAL_Driver/Src/stm32l4xx_hal_flash_ex.c ****   if((pOBInit->OptionType & OPTIONBYTE_PCROP) != 0U)
 349:Drivers/STM32L4xx_HAL_Driver/Src/stm32l4xx_hal_flash_ex.c ****   {
 350:Drivers/STM32L4xx_HAL_Driver/Src/stm32l4xx_hal_flash_ex.c ****     if (pOBInit->PCROPStartAddr != pOBInit->PCROPEndAddr)
 351:Drivers/STM32L4xx_HAL_Driver/Src/stm32l4xx_hal_flash_ex.c ****     {
 352:Drivers/STM32L4xx_HAL_Driver/Src/stm32l4xx_hal_flash_ex.c ****       /* Configure the Proprietary code readout protection */
 353:Drivers/STM32L4xx_HAL_Driver/Src/stm32l4xx_hal_flash_ex.c ****       if(FLASH_OB_PCROPConfig(pOBInit->PCROPConfig, pOBInit->PCROPStartAddr, pOBInit->PCROPEndAddr)
 354:Drivers/STM32L4xx_HAL_Driver/Src/stm32l4xx_hal_flash_ex.c ****       {
 355:Drivers/STM32L4xx_HAL_Driver/Src/stm32l4xx_hal_flash_ex.c ****         status = HAL_ERROR;
 356:Drivers/STM32L4xx_HAL_Driver/Src/stm32l4xx_hal_flash_ex.c ****       }
 357:Drivers/STM32L4xx_HAL_Driver/Src/stm32l4xx_hal_flash_ex.c ****     }
 358:Drivers/STM32L4xx_HAL_Driver/Src/stm32l4xx_hal_flash_ex.c ****   }
 359:Drivers/STM32L4xx_HAL_Driver/Src/stm32l4xx_hal_flash_ex.c **** 
 360:Drivers/STM32L4xx_HAL_Driver/Src/stm32l4xx_hal_flash_ex.c ****   /* Process Unlocked */
 361:Drivers/STM32L4xx_HAL_Driver/Src/stm32l4xx_hal_flash_ex.c ****   __HAL_UNLOCK(&pFlash);
 362:Drivers/STM32L4xx_HAL_Driver/Src/stm32l4xx_hal_flash_ex.c **** 
 363:Drivers/STM32L4xx_HAL_Driver/Src/stm32l4xx_hal_flash_ex.c ****   return status;
 364:Drivers/STM32L4xx_HAL_Driver/Src/stm32l4xx_hal_flash_ex.c **** }
 365:Drivers/STM32L4xx_HAL_Driver/Src/stm32l4xx_hal_flash_ex.c **** 
 366:Drivers/STM32L4xx_HAL_Driver/Src/stm32l4xx_hal_flash_ex.c **** /**
 367:Drivers/STM32L4xx_HAL_Driver/Src/stm32l4xx_hal_flash_ex.c ****   * @brief  Get the Option bytes configuration.
 368:Drivers/STM32L4xx_HAL_Driver/Src/stm32l4xx_hal_flash_ex.c ****   * @param  pOBInit: pointer to an FLASH_OBInitStruct structure that contains the
 369:Drivers/STM32L4xx_HAL_Driver/Src/stm32l4xx_hal_flash_ex.c ****   *                  configuration information.
 370:Drivers/STM32L4xx_HAL_Driver/Src/stm32l4xx_hal_flash_ex.c ****   * @note   The fields pOBInit->WRPArea and pOBInit->PCROPConfig should indicate
 371:Drivers/STM32L4xx_HAL_Driver/Src/stm32l4xx_hal_flash_ex.c ****   *         which area is requested for the WRP and PCROP, else no information will be returned
 372:Drivers/STM32L4xx_HAL_Driver/Src/stm32l4xx_hal_flash_ex.c ****   *
 373:Drivers/STM32L4xx_HAL_Driver/Src/stm32l4xx_hal_flash_ex.c ****   * @retval None
 374:Drivers/STM32L4xx_HAL_Driver/Src/stm32l4xx_hal_flash_ex.c ****   */
ARM GAS  C:\Users\hirot\AppData\Local\Temp\ccKvd7ca.s 			page 8


 375:Drivers/STM32L4xx_HAL_Driver/Src/stm32l4xx_hal_flash_ex.c **** void HAL_FLASHEx_OBGetConfig(FLASH_OBProgramInitTypeDef *pOBInit)
 376:Drivers/STM32L4xx_HAL_Driver/Src/stm32l4xx_hal_flash_ex.c **** {
 377:Drivers/STM32L4xx_HAL_Driver/Src/stm32l4xx_hal_flash_ex.c ****   pOBInit->OptionType = (OPTIONBYTE_RDP | OPTIONBYTE_USER);
 378:Drivers/STM32L4xx_HAL_Driver/Src/stm32l4xx_hal_flash_ex.c **** 
 379:Drivers/STM32L4xx_HAL_Driver/Src/stm32l4xx_hal_flash_ex.c **** #if defined (STM32L471xx) || defined (STM32L475xx) || defined (STM32L476xx) || defined (STM32L485xx
 380:Drivers/STM32L4xx_HAL_Driver/Src/stm32l4xx_hal_flash_ex.c ****     defined (STM32L496xx) || defined (STM32L4A6xx) || \
 381:Drivers/STM32L4xx_HAL_Driver/Src/stm32l4xx_hal_flash_ex.c ****     defined (STM32L4R5xx) || defined (STM32L4R7xx) || defined (STM32L4R9xx) || defined (STM32L4S5xx
 382:Drivers/STM32L4xx_HAL_Driver/Src/stm32l4xx_hal_flash_ex.c ****   if((pOBInit->WRPArea == OB_WRPAREA_BANK1_AREAA) || (pOBInit->WRPArea == OB_WRPAREA_BANK1_AREAB) |
 383:Drivers/STM32L4xx_HAL_Driver/Src/stm32l4xx_hal_flash_ex.c ****      (pOBInit->WRPArea == OB_WRPAREA_BANK2_AREAA) || (pOBInit->WRPArea == OB_WRPAREA_BANK2_AREAB))
 384:Drivers/STM32L4xx_HAL_Driver/Src/stm32l4xx_hal_flash_ex.c **** #else
 385:Drivers/STM32L4xx_HAL_Driver/Src/stm32l4xx_hal_flash_ex.c ****   if((pOBInit->WRPArea == OB_WRPAREA_BANK1_AREAA) || (pOBInit->WRPArea == OB_WRPAREA_BANK1_AREAB))
 386:Drivers/STM32L4xx_HAL_Driver/Src/stm32l4xx_hal_flash_ex.c **** #endif
 387:Drivers/STM32L4xx_HAL_Driver/Src/stm32l4xx_hal_flash_ex.c ****   {
 388:Drivers/STM32L4xx_HAL_Driver/Src/stm32l4xx_hal_flash_ex.c ****     pOBInit->OptionType |= OPTIONBYTE_WRP;
 389:Drivers/STM32L4xx_HAL_Driver/Src/stm32l4xx_hal_flash_ex.c ****     /* Get write protection on the selected area */
 390:Drivers/STM32L4xx_HAL_Driver/Src/stm32l4xx_hal_flash_ex.c ****     FLASH_OB_GetWRP(pOBInit->WRPArea, &(pOBInit->WRPStartOffset), &(pOBInit->WRPEndOffset));
 391:Drivers/STM32L4xx_HAL_Driver/Src/stm32l4xx_hal_flash_ex.c ****   }
 392:Drivers/STM32L4xx_HAL_Driver/Src/stm32l4xx_hal_flash_ex.c **** 
 393:Drivers/STM32L4xx_HAL_Driver/Src/stm32l4xx_hal_flash_ex.c ****   /* Get Read protection level */
 394:Drivers/STM32L4xx_HAL_Driver/Src/stm32l4xx_hal_flash_ex.c ****   pOBInit->RDPLevel = FLASH_OB_GetRDP();
 395:Drivers/STM32L4xx_HAL_Driver/Src/stm32l4xx_hal_flash_ex.c **** 
 396:Drivers/STM32L4xx_HAL_Driver/Src/stm32l4xx_hal_flash_ex.c ****   /* Get the user option bytes */
 397:Drivers/STM32L4xx_HAL_Driver/Src/stm32l4xx_hal_flash_ex.c ****   pOBInit->USERConfig = FLASH_OB_GetUser();
 398:Drivers/STM32L4xx_HAL_Driver/Src/stm32l4xx_hal_flash_ex.c **** 
 399:Drivers/STM32L4xx_HAL_Driver/Src/stm32l4xx_hal_flash_ex.c **** #if defined (STM32L471xx) || defined (STM32L475xx) || defined (STM32L476xx) || defined (STM32L485xx
 400:Drivers/STM32L4xx_HAL_Driver/Src/stm32l4xx_hal_flash_ex.c ****     defined (STM32L496xx) || defined (STM32L4A6xx) || \
 401:Drivers/STM32L4xx_HAL_Driver/Src/stm32l4xx_hal_flash_ex.c ****     defined (STM32L4R5xx) || defined (STM32L4R7xx) || defined (STM32L4R9xx) || defined (STM32L4S5xx
 402:Drivers/STM32L4xx_HAL_Driver/Src/stm32l4xx_hal_flash_ex.c ****   if((pOBInit->PCROPConfig == FLASH_BANK_1) || (pOBInit->PCROPConfig == FLASH_BANK_2))
 403:Drivers/STM32L4xx_HAL_Driver/Src/stm32l4xx_hal_flash_ex.c **** #else
 404:Drivers/STM32L4xx_HAL_Driver/Src/stm32l4xx_hal_flash_ex.c ****   if(pOBInit->PCROPConfig == FLASH_BANK_1)
 405:Drivers/STM32L4xx_HAL_Driver/Src/stm32l4xx_hal_flash_ex.c **** #endif
 406:Drivers/STM32L4xx_HAL_Driver/Src/stm32l4xx_hal_flash_ex.c ****   {
 407:Drivers/STM32L4xx_HAL_Driver/Src/stm32l4xx_hal_flash_ex.c ****     pOBInit->OptionType |= OPTIONBYTE_PCROP;
 408:Drivers/STM32L4xx_HAL_Driver/Src/stm32l4xx_hal_flash_ex.c ****     /* Get the Proprietary code readout protection */
 409:Drivers/STM32L4xx_HAL_Driver/Src/stm32l4xx_hal_flash_ex.c ****     FLASH_OB_GetPCROP(&(pOBInit->PCROPConfig), &(pOBInit->PCROPStartAddr), &(pOBInit->PCROPEndAddr)
 410:Drivers/STM32L4xx_HAL_Driver/Src/stm32l4xx_hal_flash_ex.c ****   }
 411:Drivers/STM32L4xx_HAL_Driver/Src/stm32l4xx_hal_flash_ex.c **** }
 412:Drivers/STM32L4xx_HAL_Driver/Src/stm32l4xx_hal_flash_ex.c **** 
 413:Drivers/STM32L4xx_HAL_Driver/Src/stm32l4xx_hal_flash_ex.c **** /**
 414:Drivers/STM32L4xx_HAL_Driver/Src/stm32l4xx_hal_flash_ex.c ****   * @}
 415:Drivers/STM32L4xx_HAL_Driver/Src/stm32l4xx_hal_flash_ex.c ****   */
 416:Drivers/STM32L4xx_HAL_Driver/Src/stm32l4xx_hal_flash_ex.c **** 
 417:Drivers/STM32L4xx_HAL_Driver/Src/stm32l4xx_hal_flash_ex.c **** #if defined (FLASH_CFGR_LVEN)
 418:Drivers/STM32L4xx_HAL_Driver/Src/stm32l4xx_hal_flash_ex.c **** /** @defgroup FLASHEx_Exported_Functions_Group2 Extended specific configuration functions
 419:Drivers/STM32L4xx_HAL_Driver/Src/stm32l4xx_hal_flash_ex.c ****  *  @brief   Extended specific configuration functions
 420:Drivers/STM32L4xx_HAL_Driver/Src/stm32l4xx_hal_flash_ex.c ****  *
 421:Drivers/STM32L4xx_HAL_Driver/Src/stm32l4xx_hal_flash_ex.c **** @verbatim
 422:Drivers/STM32L4xx_HAL_Driver/Src/stm32l4xx_hal_flash_ex.c ****  ===============================================================================
 423:Drivers/STM32L4xx_HAL_Driver/Src/stm32l4xx_hal_flash_ex.c ****                 ##### Extended specific configuration functions #####
 424:Drivers/STM32L4xx_HAL_Driver/Src/stm32l4xx_hal_flash_ex.c ****  ===============================================================================
 425:Drivers/STM32L4xx_HAL_Driver/Src/stm32l4xx_hal_flash_ex.c ****     [..]
 426:Drivers/STM32L4xx_HAL_Driver/Src/stm32l4xx_hal_flash_ex.c ****     This subsection provides a set of functions allowing to manage the Extended FLASH
 427:Drivers/STM32L4xx_HAL_Driver/Src/stm32l4xx_hal_flash_ex.c ****     specific configurations.
 428:Drivers/STM32L4xx_HAL_Driver/Src/stm32l4xx_hal_flash_ex.c **** 
 429:Drivers/STM32L4xx_HAL_Driver/Src/stm32l4xx_hal_flash_ex.c **** @endverbatim
 430:Drivers/STM32L4xx_HAL_Driver/Src/stm32l4xx_hal_flash_ex.c ****   * @{
 431:Drivers/STM32L4xx_HAL_Driver/Src/stm32l4xx_hal_flash_ex.c ****   */
ARM GAS  C:\Users\hirot\AppData\Local\Temp\ccKvd7ca.s 			page 9


 432:Drivers/STM32L4xx_HAL_Driver/Src/stm32l4xx_hal_flash_ex.c **** 
 433:Drivers/STM32L4xx_HAL_Driver/Src/stm32l4xx_hal_flash_ex.c **** /**
 434:Drivers/STM32L4xx_HAL_Driver/Src/stm32l4xx_hal_flash_ex.c ****   * @brief  Configuration of the LVE pin of the Flash (managed by power controller
 435:Drivers/STM32L4xx_HAL_Driver/Src/stm32l4xx_hal_flash_ex.c ****   *         or forced to low in order to use an external SMPS)
 436:Drivers/STM32L4xx_HAL_Driver/Src/stm32l4xx_hal_flash_ex.c ****   * @param  ConfigLVE: Configuration of the LVE pin,
 437:Drivers/STM32L4xx_HAL_Driver/Src/stm32l4xx_hal_flash_ex.c ****   *              This parameter can be one of the following values:
 438:Drivers/STM32L4xx_HAL_Driver/Src/stm32l4xx_hal_flash_ex.c ****   *                @arg FLASH_LVE_PIN_CTRL: LVE FLASH pin controlled by power controller
 439:Drivers/STM32L4xx_HAL_Driver/Src/stm32l4xx_hal_flash_ex.c ****   *                @arg FLASH_LVE_PIN_FORCED: LVE FLASH pin enforced to low (external SMPS used)
 440:Drivers/STM32L4xx_HAL_Driver/Src/stm32l4xx_hal_flash_ex.c ****   *
 441:Drivers/STM32L4xx_HAL_Driver/Src/stm32l4xx_hal_flash_ex.c ****   * @note   Before enforcing the LVE pin to low, the SOC should be in low voltage
 442:Drivers/STM32L4xx_HAL_Driver/Src/stm32l4xx_hal_flash_ex.c ****   *         range 2 and the voltage VDD12 should be higher than 1.08V and SMPS is ON.
 443:Drivers/STM32L4xx_HAL_Driver/Src/stm32l4xx_hal_flash_ex.c ****   *
 444:Drivers/STM32L4xx_HAL_Driver/Src/stm32l4xx_hal_flash_ex.c ****   * @retval HAL Status
 445:Drivers/STM32L4xx_HAL_Driver/Src/stm32l4xx_hal_flash_ex.c ****   */
 446:Drivers/STM32L4xx_HAL_Driver/Src/stm32l4xx_hal_flash_ex.c **** HAL_StatusTypeDef HAL_FLASHEx_ConfigLVEPin(uint32_t ConfigLVE)
 447:Drivers/STM32L4xx_HAL_Driver/Src/stm32l4xx_hal_flash_ex.c **** {
 448:Drivers/STM32L4xx_HAL_Driver/Src/stm32l4xx_hal_flash_ex.c ****   HAL_StatusTypeDef status;
 449:Drivers/STM32L4xx_HAL_Driver/Src/stm32l4xx_hal_flash_ex.c **** 
 450:Drivers/STM32L4xx_HAL_Driver/Src/stm32l4xx_hal_flash_ex.c ****   /* Process Locked */
 451:Drivers/STM32L4xx_HAL_Driver/Src/stm32l4xx_hal_flash_ex.c ****   __HAL_LOCK(&pFlash);
 452:Drivers/STM32L4xx_HAL_Driver/Src/stm32l4xx_hal_flash_ex.c **** 
 453:Drivers/STM32L4xx_HAL_Driver/Src/stm32l4xx_hal_flash_ex.c ****   /* Check the parameters */
 454:Drivers/STM32L4xx_HAL_Driver/Src/stm32l4xx_hal_flash_ex.c ****   assert_param(IS_FLASH_LVE_PIN(ConfigLVE));
 455:Drivers/STM32L4xx_HAL_Driver/Src/stm32l4xx_hal_flash_ex.c **** 
 456:Drivers/STM32L4xx_HAL_Driver/Src/stm32l4xx_hal_flash_ex.c ****   /* Wait for last operation to be completed */
 457:Drivers/STM32L4xx_HAL_Driver/Src/stm32l4xx_hal_flash_ex.c ****   status = FLASH_WaitForLastOperation((uint32_t)FLASH_TIMEOUT_VALUE);
 458:Drivers/STM32L4xx_HAL_Driver/Src/stm32l4xx_hal_flash_ex.c **** 
 459:Drivers/STM32L4xx_HAL_Driver/Src/stm32l4xx_hal_flash_ex.c ****   if (status == HAL_OK)
 460:Drivers/STM32L4xx_HAL_Driver/Src/stm32l4xx_hal_flash_ex.c ****   {
 461:Drivers/STM32L4xx_HAL_Driver/Src/stm32l4xx_hal_flash_ex.c ****     /* Check that the voltage scaling is range 2 */
 462:Drivers/STM32L4xx_HAL_Driver/Src/stm32l4xx_hal_flash_ex.c ****     if (HAL_PWREx_GetVoltageRange() == PWR_REGULATOR_VOLTAGE_SCALE2)
 463:Drivers/STM32L4xx_HAL_Driver/Src/stm32l4xx_hal_flash_ex.c ****     {
 464:Drivers/STM32L4xx_HAL_Driver/Src/stm32l4xx_hal_flash_ex.c ****       /* Configure the LVEN bit */
 465:Drivers/STM32L4xx_HAL_Driver/Src/stm32l4xx_hal_flash_ex.c ****       MODIFY_REG(FLASH->CFGR, FLASH_CFGR_LVEN, ConfigLVE);
 466:Drivers/STM32L4xx_HAL_Driver/Src/stm32l4xx_hal_flash_ex.c **** 
 467:Drivers/STM32L4xx_HAL_Driver/Src/stm32l4xx_hal_flash_ex.c ****       /* Check that the bit has been correctly configured */
 468:Drivers/STM32L4xx_HAL_Driver/Src/stm32l4xx_hal_flash_ex.c ****       if (READ_BIT(FLASH->CFGR, FLASH_CFGR_LVEN) != ConfigLVE)
 469:Drivers/STM32L4xx_HAL_Driver/Src/stm32l4xx_hal_flash_ex.c ****       {
 470:Drivers/STM32L4xx_HAL_Driver/Src/stm32l4xx_hal_flash_ex.c ****         status = HAL_ERROR;
 471:Drivers/STM32L4xx_HAL_Driver/Src/stm32l4xx_hal_flash_ex.c ****       }
 472:Drivers/STM32L4xx_HAL_Driver/Src/stm32l4xx_hal_flash_ex.c ****     }
 473:Drivers/STM32L4xx_HAL_Driver/Src/stm32l4xx_hal_flash_ex.c ****     else
 474:Drivers/STM32L4xx_HAL_Driver/Src/stm32l4xx_hal_flash_ex.c ****     {
 475:Drivers/STM32L4xx_HAL_Driver/Src/stm32l4xx_hal_flash_ex.c ****       /* Not allow to force Flash LVE pin if not in voltage range 2 */
 476:Drivers/STM32L4xx_HAL_Driver/Src/stm32l4xx_hal_flash_ex.c ****       status = HAL_ERROR;
 477:Drivers/STM32L4xx_HAL_Driver/Src/stm32l4xx_hal_flash_ex.c ****     }
 478:Drivers/STM32L4xx_HAL_Driver/Src/stm32l4xx_hal_flash_ex.c ****   }
 479:Drivers/STM32L4xx_HAL_Driver/Src/stm32l4xx_hal_flash_ex.c **** 
 480:Drivers/STM32L4xx_HAL_Driver/Src/stm32l4xx_hal_flash_ex.c ****   /* Process Unlocked */
 481:Drivers/STM32L4xx_HAL_Driver/Src/stm32l4xx_hal_flash_ex.c ****   __HAL_UNLOCK(&pFlash);
 482:Drivers/STM32L4xx_HAL_Driver/Src/stm32l4xx_hal_flash_ex.c **** 
 483:Drivers/STM32L4xx_HAL_Driver/Src/stm32l4xx_hal_flash_ex.c ****   return status;
 484:Drivers/STM32L4xx_HAL_Driver/Src/stm32l4xx_hal_flash_ex.c **** }
 485:Drivers/STM32L4xx_HAL_Driver/Src/stm32l4xx_hal_flash_ex.c **** 
 486:Drivers/STM32L4xx_HAL_Driver/Src/stm32l4xx_hal_flash_ex.c **** /**
 487:Drivers/STM32L4xx_HAL_Driver/Src/stm32l4xx_hal_flash_ex.c ****   * @}
 488:Drivers/STM32L4xx_HAL_Driver/Src/stm32l4xx_hal_flash_ex.c ****   */
ARM GAS  C:\Users\hirot\AppData\Local\Temp\ccKvd7ca.s 			page 10


 489:Drivers/STM32L4xx_HAL_Driver/Src/stm32l4xx_hal_flash_ex.c **** #endif /* FLASH_CFGR_LVEN */
 490:Drivers/STM32L4xx_HAL_Driver/Src/stm32l4xx_hal_flash_ex.c **** 
 491:Drivers/STM32L4xx_HAL_Driver/Src/stm32l4xx_hal_flash_ex.c **** /**
 492:Drivers/STM32L4xx_HAL_Driver/Src/stm32l4xx_hal_flash_ex.c ****   * @}
 493:Drivers/STM32L4xx_HAL_Driver/Src/stm32l4xx_hal_flash_ex.c ****   */
 494:Drivers/STM32L4xx_HAL_Driver/Src/stm32l4xx_hal_flash_ex.c **** 
 495:Drivers/STM32L4xx_HAL_Driver/Src/stm32l4xx_hal_flash_ex.c **** /* Private functions ---------------------------------------------------------*/
 496:Drivers/STM32L4xx_HAL_Driver/Src/stm32l4xx_hal_flash_ex.c **** 
 497:Drivers/STM32L4xx_HAL_Driver/Src/stm32l4xx_hal_flash_ex.c **** /** @addtogroup FLASHEx_Private_Functions
 498:Drivers/STM32L4xx_HAL_Driver/Src/stm32l4xx_hal_flash_ex.c ****   * @{
 499:Drivers/STM32L4xx_HAL_Driver/Src/stm32l4xx_hal_flash_ex.c ****   */
 500:Drivers/STM32L4xx_HAL_Driver/Src/stm32l4xx_hal_flash_ex.c **** /**
 501:Drivers/STM32L4xx_HAL_Driver/Src/stm32l4xx_hal_flash_ex.c ****   * @brief  Mass erase of FLASH memory.
 502:Drivers/STM32L4xx_HAL_Driver/Src/stm32l4xx_hal_flash_ex.c ****   * @param  Banks: Banks to be erased
 503:Drivers/STM32L4xx_HAL_Driver/Src/stm32l4xx_hal_flash_ex.c ****   *          This parameter can be one of the following values:
 504:Drivers/STM32L4xx_HAL_Driver/Src/stm32l4xx_hal_flash_ex.c ****   *            @arg FLASH_BANK_1: Bank1 to be erased
 505:Drivers/STM32L4xx_HAL_Driver/Src/stm32l4xx_hal_flash_ex.c ****   *            @arg FLASH_BANK_2: Bank2 to be erased
 506:Drivers/STM32L4xx_HAL_Driver/Src/stm32l4xx_hal_flash_ex.c ****   *            @arg FLASH_BANK_BOTH: Bank1 and Bank2 to be erased
 507:Drivers/STM32L4xx_HAL_Driver/Src/stm32l4xx_hal_flash_ex.c ****   * @retval None
 508:Drivers/STM32L4xx_HAL_Driver/Src/stm32l4xx_hal_flash_ex.c ****   */
 509:Drivers/STM32L4xx_HAL_Driver/Src/stm32l4xx_hal_flash_ex.c **** static void FLASH_MassErase(uint32_t Banks)
 510:Drivers/STM32L4xx_HAL_Driver/Src/stm32l4xx_hal_flash_ex.c **** {
  27              		.loc 1 510 0
  28              		.cfi_startproc
  29              		@ args = 0, pretend = 0, frame = 0
  30              		@ frame_needed = 0, uses_anonymous_args = 0
  31              		@ link register save eliminated.
  32              	.LVL0:
 511:Drivers/STM32L4xx_HAL_Driver/Src/stm32l4xx_hal_flash_ex.c **** #if defined (STM32L4R5xx) || defined (STM32L4R7xx) || defined (STM32L4R9xx) || defined (STM32L4S5xx
 512:Drivers/STM32L4xx_HAL_Driver/Src/stm32l4xx_hal_flash_ex.c ****   if (READ_BIT(FLASH->OPTR, FLASH_OPTR_DBANK) != 0U)
 513:Drivers/STM32L4xx_HAL_Driver/Src/stm32l4xx_hal_flash_ex.c **** #endif
 514:Drivers/STM32L4xx_HAL_Driver/Src/stm32l4xx_hal_flash_ex.c ****   {
 515:Drivers/STM32L4xx_HAL_Driver/Src/stm32l4xx_hal_flash_ex.c ****     /* Check the parameters */
 516:Drivers/STM32L4xx_HAL_Driver/Src/stm32l4xx_hal_flash_ex.c ****     assert_param(IS_FLASH_BANK(Banks));
 517:Drivers/STM32L4xx_HAL_Driver/Src/stm32l4xx_hal_flash_ex.c **** 
 518:Drivers/STM32L4xx_HAL_Driver/Src/stm32l4xx_hal_flash_ex.c ****     /* Set the Mass Erase Bit for the bank 1 if requested */
 519:Drivers/STM32L4xx_HAL_Driver/Src/stm32l4xx_hal_flash_ex.c ****     if((Banks & FLASH_BANK_1) != 0U)
  33              		.loc 1 519 0
  34 0000 10F0010F 		tst	r0, #1
  35 0004 04D0     		beq	.L2
 520:Drivers/STM32L4xx_HAL_Driver/Src/stm32l4xx_hal_flash_ex.c ****     {
 521:Drivers/STM32L4xx_HAL_Driver/Src/stm32l4xx_hal_flash_ex.c ****       SET_BIT(FLASH->CR, FLASH_CR_MER1);
  36              		.loc 1 521 0
  37 0006 094A     		ldr	r2, .L4
  38 0008 5369     		ldr	r3, [r2, #20]
  39 000a 43F00403 		orr	r3, r3, #4
  40 000e 5361     		str	r3, [r2, #20]
  41              	.L2:
 522:Drivers/STM32L4xx_HAL_Driver/Src/stm32l4xx_hal_flash_ex.c ****     }
 523:Drivers/STM32L4xx_HAL_Driver/Src/stm32l4xx_hal_flash_ex.c **** 
 524:Drivers/STM32L4xx_HAL_Driver/Src/stm32l4xx_hal_flash_ex.c **** #if defined (STM32L471xx) || defined (STM32L475xx) || defined (STM32L476xx) || defined (STM32L485xx
 525:Drivers/STM32L4xx_HAL_Driver/Src/stm32l4xx_hal_flash_ex.c ****     defined (STM32L496xx) || defined (STM32L4A6xx) || \
 526:Drivers/STM32L4xx_HAL_Driver/Src/stm32l4xx_hal_flash_ex.c ****     defined (STM32L4R5xx) || defined (STM32L4R7xx) || defined (STM32L4R9xx) || defined (STM32L4S5xx
 527:Drivers/STM32L4xx_HAL_Driver/Src/stm32l4xx_hal_flash_ex.c ****     /* Set the Mass Erase Bit for the bank 2 if requested */
 528:Drivers/STM32L4xx_HAL_Driver/Src/stm32l4xx_hal_flash_ex.c ****     if((Banks & FLASH_BANK_2) != 0U)
  42              		.loc 1 528 0
  43 0010 10F0020F 		tst	r0, #2
ARM GAS  C:\Users\hirot\AppData\Local\Temp\ccKvd7ca.s 			page 11


  44 0014 04D0     		beq	.L3
 529:Drivers/STM32L4xx_HAL_Driver/Src/stm32l4xx_hal_flash_ex.c ****     {
 530:Drivers/STM32L4xx_HAL_Driver/Src/stm32l4xx_hal_flash_ex.c ****       SET_BIT(FLASH->CR, FLASH_CR_MER2);
  45              		.loc 1 530 0
  46 0016 054A     		ldr	r2, .L4
  47 0018 5369     		ldr	r3, [r2, #20]
  48 001a 43F40043 		orr	r3, r3, #32768
  49 001e 5361     		str	r3, [r2, #20]
  50              	.L3:
 531:Drivers/STM32L4xx_HAL_Driver/Src/stm32l4xx_hal_flash_ex.c ****     }
 532:Drivers/STM32L4xx_HAL_Driver/Src/stm32l4xx_hal_flash_ex.c **** #endif
 533:Drivers/STM32L4xx_HAL_Driver/Src/stm32l4xx_hal_flash_ex.c ****   }
 534:Drivers/STM32L4xx_HAL_Driver/Src/stm32l4xx_hal_flash_ex.c **** #if defined (STM32L4R5xx) || defined (STM32L4R7xx) || defined (STM32L4R9xx) || defined (STM32L4S5xx
 535:Drivers/STM32L4xx_HAL_Driver/Src/stm32l4xx_hal_flash_ex.c ****   else
 536:Drivers/STM32L4xx_HAL_Driver/Src/stm32l4xx_hal_flash_ex.c ****   {
 537:Drivers/STM32L4xx_HAL_Driver/Src/stm32l4xx_hal_flash_ex.c ****     SET_BIT(FLASH->CR, (FLASH_CR_MER1 | FLASH_CR_MER2));
 538:Drivers/STM32L4xx_HAL_Driver/Src/stm32l4xx_hal_flash_ex.c ****   }
 539:Drivers/STM32L4xx_HAL_Driver/Src/stm32l4xx_hal_flash_ex.c **** #endif
 540:Drivers/STM32L4xx_HAL_Driver/Src/stm32l4xx_hal_flash_ex.c **** 
 541:Drivers/STM32L4xx_HAL_Driver/Src/stm32l4xx_hal_flash_ex.c ****   /* Proceed to erase all sectors */
 542:Drivers/STM32L4xx_HAL_Driver/Src/stm32l4xx_hal_flash_ex.c ****   SET_BIT(FLASH->CR, FLASH_CR_STRT);
  51              		.loc 1 542 0
  52 0020 024A     		ldr	r2, .L4
  53 0022 5369     		ldr	r3, [r2, #20]
  54 0024 43F48033 		orr	r3, r3, #65536
  55 0028 5361     		str	r3, [r2, #20]
  56 002a 7047     		bx	lr
  57              	.L5:
  58              		.align	2
  59              	.L4:
  60 002c 00200240 		.word	1073881088
  61              		.cfi_endproc
  62              	.LFE134:
  64              		.section	.text.FLASH_OB_GetWRP,"ax",%progbits
  65              		.align	1
  66              		.syntax unified
  67              		.thumb
  68              		.thumb_func
  69              		.fpu fpv4-sp-d16
  71              	FLASH_OB_GetWRP:
  72              	.LFB141:
 543:Drivers/STM32L4xx_HAL_Driver/Src/stm32l4xx_hal_flash_ex.c **** }
 544:Drivers/STM32L4xx_HAL_Driver/Src/stm32l4xx_hal_flash_ex.c **** 
 545:Drivers/STM32L4xx_HAL_Driver/Src/stm32l4xx_hal_flash_ex.c **** /**
 546:Drivers/STM32L4xx_HAL_Driver/Src/stm32l4xx_hal_flash_ex.c ****   * @brief  Erase the specified FLASH memory page.
 547:Drivers/STM32L4xx_HAL_Driver/Src/stm32l4xx_hal_flash_ex.c ****   * @param  Page: FLASH page to erase
 548:Drivers/STM32L4xx_HAL_Driver/Src/stm32l4xx_hal_flash_ex.c ****   *         This parameter must be a value between 0 and (max number of pages in the bank - 1)
 549:Drivers/STM32L4xx_HAL_Driver/Src/stm32l4xx_hal_flash_ex.c ****   * @param  Banks: Bank(s) where the page will be erased
 550:Drivers/STM32L4xx_HAL_Driver/Src/stm32l4xx_hal_flash_ex.c ****   *          This parameter can be one of the following values:
 551:Drivers/STM32L4xx_HAL_Driver/Src/stm32l4xx_hal_flash_ex.c ****   *            @arg FLASH_BANK_1: Page in bank 1 to be erased
 552:Drivers/STM32L4xx_HAL_Driver/Src/stm32l4xx_hal_flash_ex.c ****   *            @arg FLASH_BANK_2: Page in bank 2 to be erased
 553:Drivers/STM32L4xx_HAL_Driver/Src/stm32l4xx_hal_flash_ex.c ****   * @retval None
 554:Drivers/STM32L4xx_HAL_Driver/Src/stm32l4xx_hal_flash_ex.c ****   */
 555:Drivers/STM32L4xx_HAL_Driver/Src/stm32l4xx_hal_flash_ex.c **** void FLASH_PageErase(uint32_t Page, uint32_t Banks)
 556:Drivers/STM32L4xx_HAL_Driver/Src/stm32l4xx_hal_flash_ex.c **** {
 557:Drivers/STM32L4xx_HAL_Driver/Src/stm32l4xx_hal_flash_ex.c ****   /* Check the parameters */
 558:Drivers/STM32L4xx_HAL_Driver/Src/stm32l4xx_hal_flash_ex.c ****   assert_param(IS_FLASH_PAGE(Page));
ARM GAS  C:\Users\hirot\AppData\Local\Temp\ccKvd7ca.s 			page 12


 559:Drivers/STM32L4xx_HAL_Driver/Src/stm32l4xx_hal_flash_ex.c **** 
 560:Drivers/STM32L4xx_HAL_Driver/Src/stm32l4xx_hal_flash_ex.c **** #if defined (STM32L471xx) || defined (STM32L475xx) || defined (STM32L476xx) || defined (STM32L485xx
 561:Drivers/STM32L4xx_HAL_Driver/Src/stm32l4xx_hal_flash_ex.c ****     defined (STM32L496xx) || defined (STM32L4A6xx) || \
 562:Drivers/STM32L4xx_HAL_Driver/Src/stm32l4xx_hal_flash_ex.c ****     defined (STM32L4R5xx) || defined (STM32L4R7xx) || defined (STM32L4R9xx) || defined (STM32L4S5xx
 563:Drivers/STM32L4xx_HAL_Driver/Src/stm32l4xx_hal_flash_ex.c **** #if defined (STM32L4R5xx) || defined (STM32L4R7xx) || defined (STM32L4R9xx) || defined (STM32L4S5xx
 564:Drivers/STM32L4xx_HAL_Driver/Src/stm32l4xx_hal_flash_ex.c ****   if(READ_BIT(FLASH->OPTR, FLASH_OPTR_DBANK) == 0U)
 565:Drivers/STM32L4xx_HAL_Driver/Src/stm32l4xx_hal_flash_ex.c ****   {
 566:Drivers/STM32L4xx_HAL_Driver/Src/stm32l4xx_hal_flash_ex.c ****     CLEAR_BIT(FLASH->CR, FLASH_CR_BKER);
 567:Drivers/STM32L4xx_HAL_Driver/Src/stm32l4xx_hal_flash_ex.c ****   }
 568:Drivers/STM32L4xx_HAL_Driver/Src/stm32l4xx_hal_flash_ex.c ****   else
 569:Drivers/STM32L4xx_HAL_Driver/Src/stm32l4xx_hal_flash_ex.c **** #endif
 570:Drivers/STM32L4xx_HAL_Driver/Src/stm32l4xx_hal_flash_ex.c ****   {
 571:Drivers/STM32L4xx_HAL_Driver/Src/stm32l4xx_hal_flash_ex.c ****     assert_param(IS_FLASH_BANK_EXCLUSIVE(Banks));
 572:Drivers/STM32L4xx_HAL_Driver/Src/stm32l4xx_hal_flash_ex.c **** 
 573:Drivers/STM32L4xx_HAL_Driver/Src/stm32l4xx_hal_flash_ex.c ****     if((Banks & FLASH_BANK_1) != 0U)
 574:Drivers/STM32L4xx_HAL_Driver/Src/stm32l4xx_hal_flash_ex.c ****     {
 575:Drivers/STM32L4xx_HAL_Driver/Src/stm32l4xx_hal_flash_ex.c ****       CLEAR_BIT(FLASH->CR, FLASH_CR_BKER);
 576:Drivers/STM32L4xx_HAL_Driver/Src/stm32l4xx_hal_flash_ex.c ****     }
 577:Drivers/STM32L4xx_HAL_Driver/Src/stm32l4xx_hal_flash_ex.c ****     else
 578:Drivers/STM32L4xx_HAL_Driver/Src/stm32l4xx_hal_flash_ex.c ****     {
 579:Drivers/STM32L4xx_HAL_Driver/Src/stm32l4xx_hal_flash_ex.c ****       SET_BIT(FLASH->CR, FLASH_CR_BKER);
 580:Drivers/STM32L4xx_HAL_Driver/Src/stm32l4xx_hal_flash_ex.c ****     }
 581:Drivers/STM32L4xx_HAL_Driver/Src/stm32l4xx_hal_flash_ex.c ****   }
 582:Drivers/STM32L4xx_HAL_Driver/Src/stm32l4xx_hal_flash_ex.c **** #else
 583:Drivers/STM32L4xx_HAL_Driver/Src/stm32l4xx_hal_flash_ex.c ****   /* Prevent unused argument(s) compilation warning */
 584:Drivers/STM32L4xx_HAL_Driver/Src/stm32l4xx_hal_flash_ex.c ****   UNUSED(Banks);
 585:Drivers/STM32L4xx_HAL_Driver/Src/stm32l4xx_hal_flash_ex.c **** #endif
 586:Drivers/STM32L4xx_HAL_Driver/Src/stm32l4xx_hal_flash_ex.c **** 
 587:Drivers/STM32L4xx_HAL_Driver/Src/stm32l4xx_hal_flash_ex.c ****   /* Proceed to erase the page */
 588:Drivers/STM32L4xx_HAL_Driver/Src/stm32l4xx_hal_flash_ex.c ****   MODIFY_REG(FLASH->CR, FLASH_CR_PNB, ((Page & 0xFFU) << FLASH_CR_PNB_Pos));
 589:Drivers/STM32L4xx_HAL_Driver/Src/stm32l4xx_hal_flash_ex.c ****   SET_BIT(FLASH->CR, FLASH_CR_PER);
 590:Drivers/STM32L4xx_HAL_Driver/Src/stm32l4xx_hal_flash_ex.c ****   SET_BIT(FLASH->CR, FLASH_CR_STRT);
 591:Drivers/STM32L4xx_HAL_Driver/Src/stm32l4xx_hal_flash_ex.c **** }
 592:Drivers/STM32L4xx_HAL_Driver/Src/stm32l4xx_hal_flash_ex.c **** 
 593:Drivers/STM32L4xx_HAL_Driver/Src/stm32l4xx_hal_flash_ex.c **** /**
 594:Drivers/STM32L4xx_HAL_Driver/Src/stm32l4xx_hal_flash_ex.c ****   * @brief  Flush the instruction and data caches.
 595:Drivers/STM32L4xx_HAL_Driver/Src/stm32l4xx_hal_flash_ex.c ****   * @retval None
 596:Drivers/STM32L4xx_HAL_Driver/Src/stm32l4xx_hal_flash_ex.c ****   */
 597:Drivers/STM32L4xx_HAL_Driver/Src/stm32l4xx_hal_flash_ex.c **** void FLASH_FlushCaches(void)
 598:Drivers/STM32L4xx_HAL_Driver/Src/stm32l4xx_hal_flash_ex.c **** {
 599:Drivers/STM32L4xx_HAL_Driver/Src/stm32l4xx_hal_flash_ex.c ****   FLASH_CacheTypeDef cache = pFlash.CacheToReactivate;
 600:Drivers/STM32L4xx_HAL_Driver/Src/stm32l4xx_hal_flash_ex.c **** 
 601:Drivers/STM32L4xx_HAL_Driver/Src/stm32l4xx_hal_flash_ex.c ****   /* Flush instruction cache  */
 602:Drivers/STM32L4xx_HAL_Driver/Src/stm32l4xx_hal_flash_ex.c ****   if((cache == FLASH_CACHE_ICACHE_ENABLED) ||
 603:Drivers/STM32L4xx_HAL_Driver/Src/stm32l4xx_hal_flash_ex.c ****      (cache == FLASH_CACHE_ICACHE_DCACHE_ENABLED))
 604:Drivers/STM32L4xx_HAL_Driver/Src/stm32l4xx_hal_flash_ex.c ****   {
 605:Drivers/STM32L4xx_HAL_Driver/Src/stm32l4xx_hal_flash_ex.c ****     /* Reset instruction cache */
 606:Drivers/STM32L4xx_HAL_Driver/Src/stm32l4xx_hal_flash_ex.c ****     __HAL_FLASH_INSTRUCTION_CACHE_RESET();
 607:Drivers/STM32L4xx_HAL_Driver/Src/stm32l4xx_hal_flash_ex.c ****     /* Enable instruction cache */
 608:Drivers/STM32L4xx_HAL_Driver/Src/stm32l4xx_hal_flash_ex.c ****     __HAL_FLASH_INSTRUCTION_CACHE_ENABLE();
 609:Drivers/STM32L4xx_HAL_Driver/Src/stm32l4xx_hal_flash_ex.c ****   }
 610:Drivers/STM32L4xx_HAL_Driver/Src/stm32l4xx_hal_flash_ex.c **** 
 611:Drivers/STM32L4xx_HAL_Driver/Src/stm32l4xx_hal_flash_ex.c ****   /* Flush data cache */
 612:Drivers/STM32L4xx_HAL_Driver/Src/stm32l4xx_hal_flash_ex.c ****   if((cache == FLASH_CACHE_DCACHE_ENABLED) ||
 613:Drivers/STM32L4xx_HAL_Driver/Src/stm32l4xx_hal_flash_ex.c ****      (cache == FLASH_CACHE_ICACHE_DCACHE_ENABLED))
 614:Drivers/STM32L4xx_HAL_Driver/Src/stm32l4xx_hal_flash_ex.c ****   {
 615:Drivers/STM32L4xx_HAL_Driver/Src/stm32l4xx_hal_flash_ex.c ****     /* Reset data cache */
ARM GAS  C:\Users\hirot\AppData\Local\Temp\ccKvd7ca.s 			page 13


 616:Drivers/STM32L4xx_HAL_Driver/Src/stm32l4xx_hal_flash_ex.c ****     __HAL_FLASH_DATA_CACHE_RESET();
 617:Drivers/STM32L4xx_HAL_Driver/Src/stm32l4xx_hal_flash_ex.c ****     /* Enable data cache */
 618:Drivers/STM32L4xx_HAL_Driver/Src/stm32l4xx_hal_flash_ex.c ****     __HAL_FLASH_DATA_CACHE_ENABLE();
 619:Drivers/STM32L4xx_HAL_Driver/Src/stm32l4xx_hal_flash_ex.c ****   }
 620:Drivers/STM32L4xx_HAL_Driver/Src/stm32l4xx_hal_flash_ex.c **** 
 621:Drivers/STM32L4xx_HAL_Driver/Src/stm32l4xx_hal_flash_ex.c ****   /* Reset internal variable */
 622:Drivers/STM32L4xx_HAL_Driver/Src/stm32l4xx_hal_flash_ex.c ****   pFlash.CacheToReactivate = FLASH_CACHE_DISABLED;
 623:Drivers/STM32L4xx_HAL_Driver/Src/stm32l4xx_hal_flash_ex.c **** }
 624:Drivers/STM32L4xx_HAL_Driver/Src/stm32l4xx_hal_flash_ex.c **** 
 625:Drivers/STM32L4xx_HAL_Driver/Src/stm32l4xx_hal_flash_ex.c **** /**
 626:Drivers/STM32L4xx_HAL_Driver/Src/stm32l4xx_hal_flash_ex.c ****   * @brief  Configure the write protection of the desired pages.
 627:Drivers/STM32L4xx_HAL_Driver/Src/stm32l4xx_hal_flash_ex.c ****   *
 628:Drivers/STM32L4xx_HAL_Driver/Src/stm32l4xx_hal_flash_ex.c ****   * @note   When the memory read protection level is selected (RDP level = 1),
 629:Drivers/STM32L4xx_HAL_Driver/Src/stm32l4xx_hal_flash_ex.c ****   *         it is not possible to program or erase Flash memory if the CPU debug
 630:Drivers/STM32L4xx_HAL_Driver/Src/stm32l4xx_hal_flash_ex.c ****   *         features are connected (JTAG or single wire) or boot code is being
 631:Drivers/STM32L4xx_HAL_Driver/Src/stm32l4xx_hal_flash_ex.c ****   *         executed from RAM or System flash, even if WRP is not activated.
 632:Drivers/STM32L4xx_HAL_Driver/Src/stm32l4xx_hal_flash_ex.c ****   * @note   To configure the WRP options, the option lock bit OPTLOCK must be
 633:Drivers/STM32L4xx_HAL_Driver/Src/stm32l4xx_hal_flash_ex.c ****   *         cleared with the call of the HAL_FLASH_OB_Unlock() function.
 634:Drivers/STM32L4xx_HAL_Driver/Src/stm32l4xx_hal_flash_ex.c ****   * @note   To validate the WRP options, the option bytes must be reloaded
 635:Drivers/STM32L4xx_HAL_Driver/Src/stm32l4xx_hal_flash_ex.c ****   *         through the call of the HAL_FLASH_OB_Launch() function.
 636:Drivers/STM32L4xx_HAL_Driver/Src/stm32l4xx_hal_flash_ex.c ****   *
 637:Drivers/STM32L4xx_HAL_Driver/Src/stm32l4xx_hal_flash_ex.c ****   * @param  WRPArea: specifies the area to be configured.
 638:Drivers/STM32L4xx_HAL_Driver/Src/stm32l4xx_hal_flash_ex.c ****   *          This parameter can be one of the following values:
 639:Drivers/STM32L4xx_HAL_Driver/Src/stm32l4xx_hal_flash_ex.c ****   *            @arg OB_WRPAREA_BANK1_AREAA: Flash Bank 1 Area A
 640:Drivers/STM32L4xx_HAL_Driver/Src/stm32l4xx_hal_flash_ex.c ****   *            @arg OB_WRPAREA_BANK1_AREAB: Flash Bank 1 Area B
 641:Drivers/STM32L4xx_HAL_Driver/Src/stm32l4xx_hal_flash_ex.c ****   *            @arg OB_WRPAREA_BANK2_AREAA: Flash Bank 2 Area A  (don't apply for STM32L43x/STM32L4
 642:Drivers/STM32L4xx_HAL_Driver/Src/stm32l4xx_hal_flash_ex.c ****   *            @arg OB_WRPAREA_BANK2_AREAB: Flash Bank 2 Area B  (don't apply for STM32L43x/STM32L4
 643:Drivers/STM32L4xx_HAL_Driver/Src/stm32l4xx_hal_flash_ex.c ****   *
 644:Drivers/STM32L4xx_HAL_Driver/Src/stm32l4xx_hal_flash_ex.c ****   * @param  WRPStartOffset: specifies the start page of the write protected area
 645:Drivers/STM32L4xx_HAL_Driver/Src/stm32l4xx_hal_flash_ex.c ****   *          This parameter can be page number between 0 and (max number of pages in the bank - 1)
 646:Drivers/STM32L4xx_HAL_Driver/Src/stm32l4xx_hal_flash_ex.c ****   *
 647:Drivers/STM32L4xx_HAL_Driver/Src/stm32l4xx_hal_flash_ex.c ****   * @param  WRDPEndOffset: specifies the end page of the write protected area
 648:Drivers/STM32L4xx_HAL_Driver/Src/stm32l4xx_hal_flash_ex.c ****   *          This parameter can be page number between WRPStartOffset and (max number of pages in t
 649:Drivers/STM32L4xx_HAL_Driver/Src/stm32l4xx_hal_flash_ex.c ****   *
 650:Drivers/STM32L4xx_HAL_Driver/Src/stm32l4xx_hal_flash_ex.c ****   * @retval HAL Status
 651:Drivers/STM32L4xx_HAL_Driver/Src/stm32l4xx_hal_flash_ex.c ****   */
 652:Drivers/STM32L4xx_HAL_Driver/Src/stm32l4xx_hal_flash_ex.c **** static HAL_StatusTypeDef FLASH_OB_WRPConfig(uint32_t WRPArea, uint32_t WRPStartOffset, uint32_t WRD
 653:Drivers/STM32L4xx_HAL_Driver/Src/stm32l4xx_hal_flash_ex.c **** {
 654:Drivers/STM32L4xx_HAL_Driver/Src/stm32l4xx_hal_flash_ex.c ****   HAL_StatusTypeDef status;
 655:Drivers/STM32L4xx_HAL_Driver/Src/stm32l4xx_hal_flash_ex.c **** 
 656:Drivers/STM32L4xx_HAL_Driver/Src/stm32l4xx_hal_flash_ex.c ****   /* Check the parameters */
 657:Drivers/STM32L4xx_HAL_Driver/Src/stm32l4xx_hal_flash_ex.c ****   assert_param(IS_OB_WRPAREA(WRPArea));
 658:Drivers/STM32L4xx_HAL_Driver/Src/stm32l4xx_hal_flash_ex.c ****   assert_param(IS_FLASH_PAGE(WRPStartOffset));
 659:Drivers/STM32L4xx_HAL_Driver/Src/stm32l4xx_hal_flash_ex.c ****   assert_param(IS_FLASH_PAGE(WRDPEndOffset));
 660:Drivers/STM32L4xx_HAL_Driver/Src/stm32l4xx_hal_flash_ex.c **** 
 661:Drivers/STM32L4xx_HAL_Driver/Src/stm32l4xx_hal_flash_ex.c ****   /* Wait for last operation to be completed */
 662:Drivers/STM32L4xx_HAL_Driver/Src/stm32l4xx_hal_flash_ex.c ****   status = FLASH_WaitForLastOperation((uint32_t)FLASH_TIMEOUT_VALUE);
 663:Drivers/STM32L4xx_HAL_Driver/Src/stm32l4xx_hal_flash_ex.c **** 
 664:Drivers/STM32L4xx_HAL_Driver/Src/stm32l4xx_hal_flash_ex.c ****   if(status == HAL_OK)
 665:Drivers/STM32L4xx_HAL_Driver/Src/stm32l4xx_hal_flash_ex.c ****   {
 666:Drivers/STM32L4xx_HAL_Driver/Src/stm32l4xx_hal_flash_ex.c ****     /* Configure the write protected area */
 667:Drivers/STM32L4xx_HAL_Driver/Src/stm32l4xx_hal_flash_ex.c ****     if(WRPArea == OB_WRPAREA_BANK1_AREAA)
 668:Drivers/STM32L4xx_HAL_Driver/Src/stm32l4xx_hal_flash_ex.c ****     {
 669:Drivers/STM32L4xx_HAL_Driver/Src/stm32l4xx_hal_flash_ex.c ****       MODIFY_REG(FLASH->WRP1AR, (FLASH_WRP1AR_WRP1A_STRT | FLASH_WRP1AR_WRP1A_END),
 670:Drivers/STM32L4xx_HAL_Driver/Src/stm32l4xx_hal_flash_ex.c ****                  (WRPStartOffset | (WRDPEndOffset << 16)));
 671:Drivers/STM32L4xx_HAL_Driver/Src/stm32l4xx_hal_flash_ex.c ****     }
 672:Drivers/STM32L4xx_HAL_Driver/Src/stm32l4xx_hal_flash_ex.c ****     else if(WRPArea == OB_WRPAREA_BANK1_AREAB)
ARM GAS  C:\Users\hirot\AppData\Local\Temp\ccKvd7ca.s 			page 14


 673:Drivers/STM32L4xx_HAL_Driver/Src/stm32l4xx_hal_flash_ex.c ****     {
 674:Drivers/STM32L4xx_HAL_Driver/Src/stm32l4xx_hal_flash_ex.c ****       MODIFY_REG(FLASH->WRP1BR, (FLASH_WRP1BR_WRP1B_STRT | FLASH_WRP1BR_WRP1B_END),
 675:Drivers/STM32L4xx_HAL_Driver/Src/stm32l4xx_hal_flash_ex.c ****                  (WRPStartOffset | (WRDPEndOffset << 16)));
 676:Drivers/STM32L4xx_HAL_Driver/Src/stm32l4xx_hal_flash_ex.c ****     }
 677:Drivers/STM32L4xx_HAL_Driver/Src/stm32l4xx_hal_flash_ex.c **** #if defined (STM32L471xx) || defined (STM32L475xx) || defined (STM32L476xx) || defined (STM32L485xx
 678:Drivers/STM32L4xx_HAL_Driver/Src/stm32l4xx_hal_flash_ex.c ****     defined (STM32L496xx) || defined (STM32L4A6xx) || \
 679:Drivers/STM32L4xx_HAL_Driver/Src/stm32l4xx_hal_flash_ex.c ****     defined (STM32L4R5xx) || defined (STM32L4R7xx) || defined (STM32L4R9xx) || defined (STM32L4S5xx
 680:Drivers/STM32L4xx_HAL_Driver/Src/stm32l4xx_hal_flash_ex.c ****     else if(WRPArea == OB_WRPAREA_BANK2_AREAA)
 681:Drivers/STM32L4xx_HAL_Driver/Src/stm32l4xx_hal_flash_ex.c ****     {
 682:Drivers/STM32L4xx_HAL_Driver/Src/stm32l4xx_hal_flash_ex.c ****       MODIFY_REG(FLASH->WRP2AR, (FLASH_WRP2AR_WRP2A_STRT | FLASH_WRP2AR_WRP2A_END),
 683:Drivers/STM32L4xx_HAL_Driver/Src/stm32l4xx_hal_flash_ex.c ****                  (WRPStartOffset | (WRDPEndOffset << 16)));
 684:Drivers/STM32L4xx_HAL_Driver/Src/stm32l4xx_hal_flash_ex.c ****     }
 685:Drivers/STM32L4xx_HAL_Driver/Src/stm32l4xx_hal_flash_ex.c ****     else if(WRPArea == OB_WRPAREA_BANK2_AREAB)
 686:Drivers/STM32L4xx_HAL_Driver/Src/stm32l4xx_hal_flash_ex.c ****     {
 687:Drivers/STM32L4xx_HAL_Driver/Src/stm32l4xx_hal_flash_ex.c ****       MODIFY_REG(FLASH->WRP2BR, (FLASH_WRP2BR_WRP2B_STRT | FLASH_WRP2BR_WRP2B_END),
 688:Drivers/STM32L4xx_HAL_Driver/Src/stm32l4xx_hal_flash_ex.c ****                  (WRPStartOffset | (WRDPEndOffset << 16)));
 689:Drivers/STM32L4xx_HAL_Driver/Src/stm32l4xx_hal_flash_ex.c ****     }
 690:Drivers/STM32L4xx_HAL_Driver/Src/stm32l4xx_hal_flash_ex.c **** #endif
 691:Drivers/STM32L4xx_HAL_Driver/Src/stm32l4xx_hal_flash_ex.c ****     else
 692:Drivers/STM32L4xx_HAL_Driver/Src/stm32l4xx_hal_flash_ex.c ****     {
 693:Drivers/STM32L4xx_HAL_Driver/Src/stm32l4xx_hal_flash_ex.c ****       /* Nothing to do */
 694:Drivers/STM32L4xx_HAL_Driver/Src/stm32l4xx_hal_flash_ex.c ****     }
 695:Drivers/STM32L4xx_HAL_Driver/Src/stm32l4xx_hal_flash_ex.c **** 
 696:Drivers/STM32L4xx_HAL_Driver/Src/stm32l4xx_hal_flash_ex.c ****     /* Set OPTSTRT Bit */
 697:Drivers/STM32L4xx_HAL_Driver/Src/stm32l4xx_hal_flash_ex.c ****     SET_BIT(FLASH->CR, FLASH_CR_OPTSTRT);
 698:Drivers/STM32L4xx_HAL_Driver/Src/stm32l4xx_hal_flash_ex.c **** 
 699:Drivers/STM32L4xx_HAL_Driver/Src/stm32l4xx_hal_flash_ex.c ****     /* Wait for last operation to be completed */
 700:Drivers/STM32L4xx_HAL_Driver/Src/stm32l4xx_hal_flash_ex.c ****     status = FLASH_WaitForLastOperation((uint32_t)FLASH_TIMEOUT_VALUE);
 701:Drivers/STM32L4xx_HAL_Driver/Src/stm32l4xx_hal_flash_ex.c **** 
 702:Drivers/STM32L4xx_HAL_Driver/Src/stm32l4xx_hal_flash_ex.c ****     /* If the option byte program operation is completed, disable the OPTSTRT Bit */
 703:Drivers/STM32L4xx_HAL_Driver/Src/stm32l4xx_hal_flash_ex.c ****     CLEAR_BIT(FLASH->CR, FLASH_CR_OPTSTRT);
 704:Drivers/STM32L4xx_HAL_Driver/Src/stm32l4xx_hal_flash_ex.c ****   }
 705:Drivers/STM32L4xx_HAL_Driver/Src/stm32l4xx_hal_flash_ex.c **** 
 706:Drivers/STM32L4xx_HAL_Driver/Src/stm32l4xx_hal_flash_ex.c ****   return status;
 707:Drivers/STM32L4xx_HAL_Driver/Src/stm32l4xx_hal_flash_ex.c **** }
 708:Drivers/STM32L4xx_HAL_Driver/Src/stm32l4xx_hal_flash_ex.c **** 
 709:Drivers/STM32L4xx_HAL_Driver/Src/stm32l4xx_hal_flash_ex.c **** /**
 710:Drivers/STM32L4xx_HAL_Driver/Src/stm32l4xx_hal_flash_ex.c ****   * @brief  Set the read protection level.
 711:Drivers/STM32L4xx_HAL_Driver/Src/stm32l4xx_hal_flash_ex.c ****   *
 712:Drivers/STM32L4xx_HAL_Driver/Src/stm32l4xx_hal_flash_ex.c ****   * @note   To configure the RDP level, the option lock bit OPTLOCK must be
 713:Drivers/STM32L4xx_HAL_Driver/Src/stm32l4xx_hal_flash_ex.c ****   *         cleared with the call of the HAL_FLASH_OB_Unlock() function.
 714:Drivers/STM32L4xx_HAL_Driver/Src/stm32l4xx_hal_flash_ex.c ****   * @note   To validate the RDP level, the option bytes must be reloaded
 715:Drivers/STM32L4xx_HAL_Driver/Src/stm32l4xx_hal_flash_ex.c ****   *         through the call of the HAL_FLASH_OB_Launch() function.
 716:Drivers/STM32L4xx_HAL_Driver/Src/stm32l4xx_hal_flash_ex.c ****   * @note   !!! Warning : When enabling OB_RDP level 2 it's no more possible
 717:Drivers/STM32L4xx_HAL_Driver/Src/stm32l4xx_hal_flash_ex.c ****   *         to go back to level 1 or 0 !!!
 718:Drivers/STM32L4xx_HAL_Driver/Src/stm32l4xx_hal_flash_ex.c ****   *
 719:Drivers/STM32L4xx_HAL_Driver/Src/stm32l4xx_hal_flash_ex.c ****   * @param  RDPLevel: specifies the read protection level.
 720:Drivers/STM32L4xx_HAL_Driver/Src/stm32l4xx_hal_flash_ex.c ****   *         This parameter can be one of the following values:
 721:Drivers/STM32L4xx_HAL_Driver/Src/stm32l4xx_hal_flash_ex.c ****   *            @arg OB_RDP_LEVEL_0: No protection
 722:Drivers/STM32L4xx_HAL_Driver/Src/stm32l4xx_hal_flash_ex.c ****   *            @arg OB_RDP_LEVEL_1: Read protection of the memory
 723:Drivers/STM32L4xx_HAL_Driver/Src/stm32l4xx_hal_flash_ex.c ****   *            @arg OB_RDP_LEVEL_2: Full chip protection
 724:Drivers/STM32L4xx_HAL_Driver/Src/stm32l4xx_hal_flash_ex.c ****   *
 725:Drivers/STM32L4xx_HAL_Driver/Src/stm32l4xx_hal_flash_ex.c ****   * @retval HAL status
 726:Drivers/STM32L4xx_HAL_Driver/Src/stm32l4xx_hal_flash_ex.c ****   */
 727:Drivers/STM32L4xx_HAL_Driver/Src/stm32l4xx_hal_flash_ex.c **** static HAL_StatusTypeDef FLASH_OB_RDPConfig(uint32_t RDPLevel)
 728:Drivers/STM32L4xx_HAL_Driver/Src/stm32l4xx_hal_flash_ex.c **** {
 729:Drivers/STM32L4xx_HAL_Driver/Src/stm32l4xx_hal_flash_ex.c ****   HAL_StatusTypeDef status;
ARM GAS  C:\Users\hirot\AppData\Local\Temp\ccKvd7ca.s 			page 15


 730:Drivers/STM32L4xx_HAL_Driver/Src/stm32l4xx_hal_flash_ex.c **** 
 731:Drivers/STM32L4xx_HAL_Driver/Src/stm32l4xx_hal_flash_ex.c ****   /* Check the parameters */
 732:Drivers/STM32L4xx_HAL_Driver/Src/stm32l4xx_hal_flash_ex.c ****   assert_param(IS_OB_RDP_LEVEL(RDPLevel));
 733:Drivers/STM32L4xx_HAL_Driver/Src/stm32l4xx_hal_flash_ex.c **** 
 734:Drivers/STM32L4xx_HAL_Driver/Src/stm32l4xx_hal_flash_ex.c ****   /* Wait for last operation to be completed */
 735:Drivers/STM32L4xx_HAL_Driver/Src/stm32l4xx_hal_flash_ex.c ****   status = FLASH_WaitForLastOperation((uint32_t)FLASH_TIMEOUT_VALUE);
 736:Drivers/STM32L4xx_HAL_Driver/Src/stm32l4xx_hal_flash_ex.c **** 
 737:Drivers/STM32L4xx_HAL_Driver/Src/stm32l4xx_hal_flash_ex.c ****   if(status == HAL_OK)
 738:Drivers/STM32L4xx_HAL_Driver/Src/stm32l4xx_hal_flash_ex.c ****   {
 739:Drivers/STM32L4xx_HAL_Driver/Src/stm32l4xx_hal_flash_ex.c ****     /* Configure the RDP level in the option bytes register */
 740:Drivers/STM32L4xx_HAL_Driver/Src/stm32l4xx_hal_flash_ex.c ****     MODIFY_REG(FLASH->OPTR, FLASH_OPTR_RDP, RDPLevel);
 741:Drivers/STM32L4xx_HAL_Driver/Src/stm32l4xx_hal_flash_ex.c **** 
 742:Drivers/STM32L4xx_HAL_Driver/Src/stm32l4xx_hal_flash_ex.c ****     /* Set OPTSTRT Bit */
 743:Drivers/STM32L4xx_HAL_Driver/Src/stm32l4xx_hal_flash_ex.c ****     SET_BIT(FLASH->CR, FLASH_CR_OPTSTRT);
 744:Drivers/STM32L4xx_HAL_Driver/Src/stm32l4xx_hal_flash_ex.c **** 
 745:Drivers/STM32L4xx_HAL_Driver/Src/stm32l4xx_hal_flash_ex.c ****     /* Wait for last operation to be completed */
 746:Drivers/STM32L4xx_HAL_Driver/Src/stm32l4xx_hal_flash_ex.c ****     status = FLASH_WaitForLastOperation((uint32_t)FLASH_TIMEOUT_VALUE);
 747:Drivers/STM32L4xx_HAL_Driver/Src/stm32l4xx_hal_flash_ex.c **** 
 748:Drivers/STM32L4xx_HAL_Driver/Src/stm32l4xx_hal_flash_ex.c ****     /* If the option byte program operation is completed, disable the OPTSTRT Bit */
 749:Drivers/STM32L4xx_HAL_Driver/Src/stm32l4xx_hal_flash_ex.c ****     CLEAR_BIT(FLASH->CR, FLASH_CR_OPTSTRT);
 750:Drivers/STM32L4xx_HAL_Driver/Src/stm32l4xx_hal_flash_ex.c ****   }
 751:Drivers/STM32L4xx_HAL_Driver/Src/stm32l4xx_hal_flash_ex.c **** 
 752:Drivers/STM32L4xx_HAL_Driver/Src/stm32l4xx_hal_flash_ex.c ****   return status;
 753:Drivers/STM32L4xx_HAL_Driver/Src/stm32l4xx_hal_flash_ex.c **** }
 754:Drivers/STM32L4xx_HAL_Driver/Src/stm32l4xx_hal_flash_ex.c **** 
 755:Drivers/STM32L4xx_HAL_Driver/Src/stm32l4xx_hal_flash_ex.c **** /**
 756:Drivers/STM32L4xx_HAL_Driver/Src/stm32l4xx_hal_flash_ex.c ****   * @brief  Program the FLASH User Option Byte.
 757:Drivers/STM32L4xx_HAL_Driver/Src/stm32l4xx_hal_flash_ex.c ****   *
 758:Drivers/STM32L4xx_HAL_Driver/Src/stm32l4xx_hal_flash_ex.c ****   * @note   To configure the user option bytes, the option lock bit OPTLOCK must
 759:Drivers/STM32L4xx_HAL_Driver/Src/stm32l4xx_hal_flash_ex.c ****   *         be cleared with the call of the HAL_FLASH_OB_Unlock() function.
 760:Drivers/STM32L4xx_HAL_Driver/Src/stm32l4xx_hal_flash_ex.c ****   * @note   To validate the user option bytes, the option bytes must be reloaded
 761:Drivers/STM32L4xx_HAL_Driver/Src/stm32l4xx_hal_flash_ex.c ****   *         through the call of the HAL_FLASH_OB_Launch() function.
 762:Drivers/STM32L4xx_HAL_Driver/Src/stm32l4xx_hal_flash_ex.c ****   *
 763:Drivers/STM32L4xx_HAL_Driver/Src/stm32l4xx_hal_flash_ex.c ****   * @param  UserType: The FLASH User Option Bytes to be modified
 764:Drivers/STM32L4xx_HAL_Driver/Src/stm32l4xx_hal_flash_ex.c ****   * @param  UserConfig: The FLASH User Option Bytes values:
 765:Drivers/STM32L4xx_HAL_Driver/Src/stm32l4xx_hal_flash_ex.c ****   *         BOR_LEV(Bit8-10), nRST_STOP(Bit12), nRST_STDBY(Bit13), IWDG_SW(Bit16),
 766:Drivers/STM32L4xx_HAL_Driver/Src/stm32l4xx_hal_flash_ex.c ****   *         IWDG_STOP(Bit17), IWDG_STDBY(Bit18), WWDG_SW(Bit19), BFB2(Bit20),
 767:Drivers/STM32L4xx_HAL_Driver/Src/stm32l4xx_hal_flash_ex.c ****   *         DUALBANK(Bit21), nBOOT1(Bit23), SRAM2_PE(Bit24) and SRAM2_RST(Bit25).
 768:Drivers/STM32L4xx_HAL_Driver/Src/stm32l4xx_hal_flash_ex.c ****   *
 769:Drivers/STM32L4xx_HAL_Driver/Src/stm32l4xx_hal_flash_ex.c ****   * @retval HAL status
 770:Drivers/STM32L4xx_HAL_Driver/Src/stm32l4xx_hal_flash_ex.c ****   */
 771:Drivers/STM32L4xx_HAL_Driver/Src/stm32l4xx_hal_flash_ex.c **** static HAL_StatusTypeDef FLASH_OB_UserConfig(uint32_t UserType, uint32_t UserConfig)
 772:Drivers/STM32L4xx_HAL_Driver/Src/stm32l4xx_hal_flash_ex.c **** {
 773:Drivers/STM32L4xx_HAL_Driver/Src/stm32l4xx_hal_flash_ex.c ****   uint32_t optr_reg_val = 0;
 774:Drivers/STM32L4xx_HAL_Driver/Src/stm32l4xx_hal_flash_ex.c ****   uint32_t optr_reg_mask = 0;
 775:Drivers/STM32L4xx_HAL_Driver/Src/stm32l4xx_hal_flash_ex.c ****   HAL_StatusTypeDef status;
 776:Drivers/STM32L4xx_HAL_Driver/Src/stm32l4xx_hal_flash_ex.c **** 
 777:Drivers/STM32L4xx_HAL_Driver/Src/stm32l4xx_hal_flash_ex.c ****   /* Check the parameters */
 778:Drivers/STM32L4xx_HAL_Driver/Src/stm32l4xx_hal_flash_ex.c ****   assert_param(IS_OB_USER_TYPE(UserType));
 779:Drivers/STM32L4xx_HAL_Driver/Src/stm32l4xx_hal_flash_ex.c **** 
 780:Drivers/STM32L4xx_HAL_Driver/Src/stm32l4xx_hal_flash_ex.c ****   /* Wait for last operation to be completed */
 781:Drivers/STM32L4xx_HAL_Driver/Src/stm32l4xx_hal_flash_ex.c ****   status = FLASH_WaitForLastOperation((uint32_t)FLASH_TIMEOUT_VALUE);
 782:Drivers/STM32L4xx_HAL_Driver/Src/stm32l4xx_hal_flash_ex.c **** 
 783:Drivers/STM32L4xx_HAL_Driver/Src/stm32l4xx_hal_flash_ex.c ****   if(status == HAL_OK)
 784:Drivers/STM32L4xx_HAL_Driver/Src/stm32l4xx_hal_flash_ex.c ****   {
 785:Drivers/STM32L4xx_HAL_Driver/Src/stm32l4xx_hal_flash_ex.c ****     if((UserType & OB_USER_BOR_LEV) != 0U)
 786:Drivers/STM32L4xx_HAL_Driver/Src/stm32l4xx_hal_flash_ex.c ****     {
ARM GAS  C:\Users\hirot\AppData\Local\Temp\ccKvd7ca.s 			page 16


 787:Drivers/STM32L4xx_HAL_Driver/Src/stm32l4xx_hal_flash_ex.c ****       /* BOR level option byte should be modified */
 788:Drivers/STM32L4xx_HAL_Driver/Src/stm32l4xx_hal_flash_ex.c ****       assert_param(IS_OB_USER_BOR_LEVEL(UserConfig & FLASH_OPTR_BOR_LEV));
 789:Drivers/STM32L4xx_HAL_Driver/Src/stm32l4xx_hal_flash_ex.c **** 
 790:Drivers/STM32L4xx_HAL_Driver/Src/stm32l4xx_hal_flash_ex.c ****       /* Set value and mask for BOR level option byte */
 791:Drivers/STM32L4xx_HAL_Driver/Src/stm32l4xx_hal_flash_ex.c ****       optr_reg_val |= (UserConfig & FLASH_OPTR_BOR_LEV);
 792:Drivers/STM32L4xx_HAL_Driver/Src/stm32l4xx_hal_flash_ex.c ****       optr_reg_mask |= FLASH_OPTR_BOR_LEV;
 793:Drivers/STM32L4xx_HAL_Driver/Src/stm32l4xx_hal_flash_ex.c ****     }
 794:Drivers/STM32L4xx_HAL_Driver/Src/stm32l4xx_hal_flash_ex.c **** 
 795:Drivers/STM32L4xx_HAL_Driver/Src/stm32l4xx_hal_flash_ex.c ****     if((UserType & OB_USER_nRST_STOP) != 0U)
 796:Drivers/STM32L4xx_HAL_Driver/Src/stm32l4xx_hal_flash_ex.c ****     {
 797:Drivers/STM32L4xx_HAL_Driver/Src/stm32l4xx_hal_flash_ex.c ****       /* nRST_STOP option byte should be modified */
 798:Drivers/STM32L4xx_HAL_Driver/Src/stm32l4xx_hal_flash_ex.c ****       assert_param(IS_OB_USER_STOP(UserConfig & FLASH_OPTR_nRST_STOP));
 799:Drivers/STM32L4xx_HAL_Driver/Src/stm32l4xx_hal_flash_ex.c **** 
 800:Drivers/STM32L4xx_HAL_Driver/Src/stm32l4xx_hal_flash_ex.c ****       /* Set value and mask for nRST_STOP option byte */
 801:Drivers/STM32L4xx_HAL_Driver/Src/stm32l4xx_hal_flash_ex.c ****       optr_reg_val |= (UserConfig & FLASH_OPTR_nRST_STOP);
 802:Drivers/STM32L4xx_HAL_Driver/Src/stm32l4xx_hal_flash_ex.c ****       optr_reg_mask |= FLASH_OPTR_nRST_STOP;
 803:Drivers/STM32L4xx_HAL_Driver/Src/stm32l4xx_hal_flash_ex.c ****     }
 804:Drivers/STM32L4xx_HAL_Driver/Src/stm32l4xx_hal_flash_ex.c **** 
 805:Drivers/STM32L4xx_HAL_Driver/Src/stm32l4xx_hal_flash_ex.c ****     if((UserType & OB_USER_nRST_STDBY) != 0U)
 806:Drivers/STM32L4xx_HAL_Driver/Src/stm32l4xx_hal_flash_ex.c ****     {
 807:Drivers/STM32L4xx_HAL_Driver/Src/stm32l4xx_hal_flash_ex.c ****       /* nRST_STDBY option byte should be modified */
 808:Drivers/STM32L4xx_HAL_Driver/Src/stm32l4xx_hal_flash_ex.c ****       assert_param(IS_OB_USER_STANDBY(UserConfig & FLASH_OPTR_nRST_STDBY));
 809:Drivers/STM32L4xx_HAL_Driver/Src/stm32l4xx_hal_flash_ex.c **** 
 810:Drivers/STM32L4xx_HAL_Driver/Src/stm32l4xx_hal_flash_ex.c ****       /* Set value and mask for nRST_STDBY option byte */
 811:Drivers/STM32L4xx_HAL_Driver/Src/stm32l4xx_hal_flash_ex.c ****       optr_reg_val |= (UserConfig & FLASH_OPTR_nRST_STDBY);
 812:Drivers/STM32L4xx_HAL_Driver/Src/stm32l4xx_hal_flash_ex.c ****       optr_reg_mask |= FLASH_OPTR_nRST_STDBY;
 813:Drivers/STM32L4xx_HAL_Driver/Src/stm32l4xx_hal_flash_ex.c ****     }
 814:Drivers/STM32L4xx_HAL_Driver/Src/stm32l4xx_hal_flash_ex.c **** 
 815:Drivers/STM32L4xx_HAL_Driver/Src/stm32l4xx_hal_flash_ex.c ****     if((UserType & OB_USER_nRST_SHDW) != 0U)
 816:Drivers/STM32L4xx_HAL_Driver/Src/stm32l4xx_hal_flash_ex.c ****     {
 817:Drivers/STM32L4xx_HAL_Driver/Src/stm32l4xx_hal_flash_ex.c ****       /* nRST_SHDW option byte should be modified */
 818:Drivers/STM32L4xx_HAL_Driver/Src/stm32l4xx_hal_flash_ex.c ****       assert_param(IS_OB_USER_SHUTDOWN(UserConfig & FLASH_OPTR_nRST_SHDW));
 819:Drivers/STM32L4xx_HAL_Driver/Src/stm32l4xx_hal_flash_ex.c **** 
 820:Drivers/STM32L4xx_HAL_Driver/Src/stm32l4xx_hal_flash_ex.c ****       /* Set value and mask for nRST_SHDW option byte */
 821:Drivers/STM32L4xx_HAL_Driver/Src/stm32l4xx_hal_flash_ex.c ****       optr_reg_val |= (UserConfig & FLASH_OPTR_nRST_SHDW);
 822:Drivers/STM32L4xx_HAL_Driver/Src/stm32l4xx_hal_flash_ex.c ****       optr_reg_mask |= FLASH_OPTR_nRST_SHDW;
 823:Drivers/STM32L4xx_HAL_Driver/Src/stm32l4xx_hal_flash_ex.c ****     }
 824:Drivers/STM32L4xx_HAL_Driver/Src/stm32l4xx_hal_flash_ex.c **** 
 825:Drivers/STM32L4xx_HAL_Driver/Src/stm32l4xx_hal_flash_ex.c ****     if((UserType & OB_USER_IWDG_SW) != 0U)
 826:Drivers/STM32L4xx_HAL_Driver/Src/stm32l4xx_hal_flash_ex.c ****     {
 827:Drivers/STM32L4xx_HAL_Driver/Src/stm32l4xx_hal_flash_ex.c ****       /* IWDG_SW option byte should be modified */
 828:Drivers/STM32L4xx_HAL_Driver/Src/stm32l4xx_hal_flash_ex.c ****       assert_param(IS_OB_USER_IWDG(UserConfig & FLASH_OPTR_IWDG_SW));
 829:Drivers/STM32L4xx_HAL_Driver/Src/stm32l4xx_hal_flash_ex.c **** 
 830:Drivers/STM32L4xx_HAL_Driver/Src/stm32l4xx_hal_flash_ex.c ****       /* Set value and mask for IWDG_SW option byte */
 831:Drivers/STM32L4xx_HAL_Driver/Src/stm32l4xx_hal_flash_ex.c ****       optr_reg_val |= (UserConfig & FLASH_OPTR_IWDG_SW);
 832:Drivers/STM32L4xx_HAL_Driver/Src/stm32l4xx_hal_flash_ex.c ****       optr_reg_mask |= FLASH_OPTR_IWDG_SW;
 833:Drivers/STM32L4xx_HAL_Driver/Src/stm32l4xx_hal_flash_ex.c ****     }
 834:Drivers/STM32L4xx_HAL_Driver/Src/stm32l4xx_hal_flash_ex.c **** 
 835:Drivers/STM32L4xx_HAL_Driver/Src/stm32l4xx_hal_flash_ex.c ****     if((UserType & OB_USER_IWDG_STOP) != 0U)
 836:Drivers/STM32L4xx_HAL_Driver/Src/stm32l4xx_hal_flash_ex.c ****     {
 837:Drivers/STM32L4xx_HAL_Driver/Src/stm32l4xx_hal_flash_ex.c ****       /* IWDG_STOP option byte should be modified */
 838:Drivers/STM32L4xx_HAL_Driver/Src/stm32l4xx_hal_flash_ex.c ****       assert_param(IS_OB_USER_IWDG_STOP(UserConfig & FLASH_OPTR_IWDG_STOP));
 839:Drivers/STM32L4xx_HAL_Driver/Src/stm32l4xx_hal_flash_ex.c **** 
 840:Drivers/STM32L4xx_HAL_Driver/Src/stm32l4xx_hal_flash_ex.c ****       /* Set value and mask for IWDG_STOP option byte */
 841:Drivers/STM32L4xx_HAL_Driver/Src/stm32l4xx_hal_flash_ex.c ****       optr_reg_val |= (UserConfig & FLASH_OPTR_IWDG_STOP);
 842:Drivers/STM32L4xx_HAL_Driver/Src/stm32l4xx_hal_flash_ex.c ****       optr_reg_mask |= FLASH_OPTR_IWDG_STOP;
 843:Drivers/STM32L4xx_HAL_Driver/Src/stm32l4xx_hal_flash_ex.c ****     }
ARM GAS  C:\Users\hirot\AppData\Local\Temp\ccKvd7ca.s 			page 17


 844:Drivers/STM32L4xx_HAL_Driver/Src/stm32l4xx_hal_flash_ex.c **** 
 845:Drivers/STM32L4xx_HAL_Driver/Src/stm32l4xx_hal_flash_ex.c ****     if((UserType & OB_USER_IWDG_STDBY) != 0U)
 846:Drivers/STM32L4xx_HAL_Driver/Src/stm32l4xx_hal_flash_ex.c ****     {
 847:Drivers/STM32L4xx_HAL_Driver/Src/stm32l4xx_hal_flash_ex.c ****       /* IWDG_STDBY option byte should be modified */
 848:Drivers/STM32L4xx_HAL_Driver/Src/stm32l4xx_hal_flash_ex.c ****       assert_param(IS_OB_USER_IWDG_STDBY(UserConfig & FLASH_OPTR_IWDG_STDBY));
 849:Drivers/STM32L4xx_HAL_Driver/Src/stm32l4xx_hal_flash_ex.c **** 
 850:Drivers/STM32L4xx_HAL_Driver/Src/stm32l4xx_hal_flash_ex.c ****       /* Set value and mask for IWDG_STDBY option byte */
 851:Drivers/STM32L4xx_HAL_Driver/Src/stm32l4xx_hal_flash_ex.c ****       optr_reg_val |= (UserConfig & FLASH_OPTR_IWDG_STDBY);
 852:Drivers/STM32L4xx_HAL_Driver/Src/stm32l4xx_hal_flash_ex.c ****       optr_reg_mask |= FLASH_OPTR_IWDG_STDBY;
 853:Drivers/STM32L4xx_HAL_Driver/Src/stm32l4xx_hal_flash_ex.c ****     }
 854:Drivers/STM32L4xx_HAL_Driver/Src/stm32l4xx_hal_flash_ex.c **** 
 855:Drivers/STM32L4xx_HAL_Driver/Src/stm32l4xx_hal_flash_ex.c ****     if((UserType & OB_USER_WWDG_SW) != 0U)
 856:Drivers/STM32L4xx_HAL_Driver/Src/stm32l4xx_hal_flash_ex.c ****     {
 857:Drivers/STM32L4xx_HAL_Driver/Src/stm32l4xx_hal_flash_ex.c ****       /* WWDG_SW option byte should be modified */
 858:Drivers/STM32L4xx_HAL_Driver/Src/stm32l4xx_hal_flash_ex.c ****       assert_param(IS_OB_USER_WWDG(UserConfig & FLASH_OPTR_WWDG_SW));
 859:Drivers/STM32L4xx_HAL_Driver/Src/stm32l4xx_hal_flash_ex.c **** 
 860:Drivers/STM32L4xx_HAL_Driver/Src/stm32l4xx_hal_flash_ex.c ****       /* Set value and mask for WWDG_SW option byte */
 861:Drivers/STM32L4xx_HAL_Driver/Src/stm32l4xx_hal_flash_ex.c ****       optr_reg_val |= (UserConfig & FLASH_OPTR_WWDG_SW);
 862:Drivers/STM32L4xx_HAL_Driver/Src/stm32l4xx_hal_flash_ex.c ****       optr_reg_mask |= FLASH_OPTR_WWDG_SW;
 863:Drivers/STM32L4xx_HAL_Driver/Src/stm32l4xx_hal_flash_ex.c ****     }
 864:Drivers/STM32L4xx_HAL_Driver/Src/stm32l4xx_hal_flash_ex.c **** 
 865:Drivers/STM32L4xx_HAL_Driver/Src/stm32l4xx_hal_flash_ex.c **** #if defined (STM32L471xx) || defined (STM32L475xx) || defined (STM32L476xx) || defined (STM32L485xx
 866:Drivers/STM32L4xx_HAL_Driver/Src/stm32l4xx_hal_flash_ex.c ****     defined (STM32L496xx) || defined (STM32L4A6xx) || \
 867:Drivers/STM32L4xx_HAL_Driver/Src/stm32l4xx_hal_flash_ex.c ****     defined (STM32L4R5xx) || defined (STM32L4R7xx) || defined (STM32L4R9xx) || defined (STM32L4S5xx
 868:Drivers/STM32L4xx_HAL_Driver/Src/stm32l4xx_hal_flash_ex.c ****     if((UserType & OB_USER_BFB2) != 0U)
 869:Drivers/STM32L4xx_HAL_Driver/Src/stm32l4xx_hal_flash_ex.c ****     {
 870:Drivers/STM32L4xx_HAL_Driver/Src/stm32l4xx_hal_flash_ex.c ****       /* BFB2 option byte should be modified */
 871:Drivers/STM32L4xx_HAL_Driver/Src/stm32l4xx_hal_flash_ex.c ****       assert_param(IS_OB_USER_BFB2(UserConfig & FLASH_OPTR_BFB2));
 872:Drivers/STM32L4xx_HAL_Driver/Src/stm32l4xx_hal_flash_ex.c **** 
 873:Drivers/STM32L4xx_HAL_Driver/Src/stm32l4xx_hal_flash_ex.c ****       /* Set value and mask for BFB2 option byte */
 874:Drivers/STM32L4xx_HAL_Driver/Src/stm32l4xx_hal_flash_ex.c ****       optr_reg_val |= (UserConfig & FLASH_OPTR_BFB2);
 875:Drivers/STM32L4xx_HAL_Driver/Src/stm32l4xx_hal_flash_ex.c ****       optr_reg_mask |= FLASH_OPTR_BFB2;
 876:Drivers/STM32L4xx_HAL_Driver/Src/stm32l4xx_hal_flash_ex.c ****     }
 877:Drivers/STM32L4xx_HAL_Driver/Src/stm32l4xx_hal_flash_ex.c **** 
 878:Drivers/STM32L4xx_HAL_Driver/Src/stm32l4xx_hal_flash_ex.c ****     if((UserType & OB_USER_DUALBANK) != 0U)
 879:Drivers/STM32L4xx_HAL_Driver/Src/stm32l4xx_hal_flash_ex.c ****     {
 880:Drivers/STM32L4xx_HAL_Driver/Src/stm32l4xx_hal_flash_ex.c **** #if defined (STM32L4R5xx) || defined (STM32L4R7xx) || defined (STM32L4R9xx) || defined (STM32L4S5xx
 881:Drivers/STM32L4xx_HAL_Driver/Src/stm32l4xx_hal_flash_ex.c ****       /* DUALBANK option byte should be modified */
 882:Drivers/STM32L4xx_HAL_Driver/Src/stm32l4xx_hal_flash_ex.c ****       assert_param(IS_OB_USER_DUALBANK(UserConfig & FLASH_OPTR_DB1M));
 883:Drivers/STM32L4xx_HAL_Driver/Src/stm32l4xx_hal_flash_ex.c **** 
 884:Drivers/STM32L4xx_HAL_Driver/Src/stm32l4xx_hal_flash_ex.c ****       /* Set value and mask for DUALBANK option byte */
 885:Drivers/STM32L4xx_HAL_Driver/Src/stm32l4xx_hal_flash_ex.c ****       optr_reg_val |= (UserConfig & FLASH_OPTR_DB1M);
 886:Drivers/STM32L4xx_HAL_Driver/Src/stm32l4xx_hal_flash_ex.c ****       optr_reg_mask |= FLASH_OPTR_DB1M;
 887:Drivers/STM32L4xx_HAL_Driver/Src/stm32l4xx_hal_flash_ex.c **** #else
 888:Drivers/STM32L4xx_HAL_Driver/Src/stm32l4xx_hal_flash_ex.c ****       /* DUALBANK option byte should be modified */
 889:Drivers/STM32L4xx_HAL_Driver/Src/stm32l4xx_hal_flash_ex.c ****       assert_param(IS_OB_USER_DUALBANK(UserConfig & FLASH_OPTR_DUALBANK));
 890:Drivers/STM32L4xx_HAL_Driver/Src/stm32l4xx_hal_flash_ex.c **** 
 891:Drivers/STM32L4xx_HAL_Driver/Src/stm32l4xx_hal_flash_ex.c ****       /* Set value and mask for DUALBANK option byte */
 892:Drivers/STM32L4xx_HAL_Driver/Src/stm32l4xx_hal_flash_ex.c ****       optr_reg_val |= (UserConfig & FLASH_OPTR_DUALBANK);
 893:Drivers/STM32L4xx_HAL_Driver/Src/stm32l4xx_hal_flash_ex.c ****       optr_reg_mask |= FLASH_OPTR_DUALBANK;
 894:Drivers/STM32L4xx_HAL_Driver/Src/stm32l4xx_hal_flash_ex.c **** #endif
 895:Drivers/STM32L4xx_HAL_Driver/Src/stm32l4xx_hal_flash_ex.c ****     }
 896:Drivers/STM32L4xx_HAL_Driver/Src/stm32l4xx_hal_flash_ex.c **** #endif
 897:Drivers/STM32L4xx_HAL_Driver/Src/stm32l4xx_hal_flash_ex.c **** 
 898:Drivers/STM32L4xx_HAL_Driver/Src/stm32l4xx_hal_flash_ex.c ****     if((UserType & OB_USER_nBOOT1) != 0U)
 899:Drivers/STM32L4xx_HAL_Driver/Src/stm32l4xx_hal_flash_ex.c ****     {
 900:Drivers/STM32L4xx_HAL_Driver/Src/stm32l4xx_hal_flash_ex.c ****       /* nBOOT1 option byte should be modified */
ARM GAS  C:\Users\hirot\AppData\Local\Temp\ccKvd7ca.s 			page 18


 901:Drivers/STM32L4xx_HAL_Driver/Src/stm32l4xx_hal_flash_ex.c ****       assert_param(IS_OB_USER_BOOT1(UserConfig & FLASH_OPTR_nBOOT1));
 902:Drivers/STM32L4xx_HAL_Driver/Src/stm32l4xx_hal_flash_ex.c **** 
 903:Drivers/STM32L4xx_HAL_Driver/Src/stm32l4xx_hal_flash_ex.c ****       /* Set value and mask for nBOOT1 option byte */
 904:Drivers/STM32L4xx_HAL_Driver/Src/stm32l4xx_hal_flash_ex.c ****       optr_reg_val |= (UserConfig & FLASH_OPTR_nBOOT1);
 905:Drivers/STM32L4xx_HAL_Driver/Src/stm32l4xx_hal_flash_ex.c ****       optr_reg_mask |= FLASH_OPTR_nBOOT1;
 906:Drivers/STM32L4xx_HAL_Driver/Src/stm32l4xx_hal_flash_ex.c ****     }
 907:Drivers/STM32L4xx_HAL_Driver/Src/stm32l4xx_hal_flash_ex.c **** 
 908:Drivers/STM32L4xx_HAL_Driver/Src/stm32l4xx_hal_flash_ex.c ****     if((UserType & OB_USER_SRAM2_PE) != 0U)
 909:Drivers/STM32L4xx_HAL_Driver/Src/stm32l4xx_hal_flash_ex.c ****     {
 910:Drivers/STM32L4xx_HAL_Driver/Src/stm32l4xx_hal_flash_ex.c ****       /* SRAM2_PE option byte should be modified */
 911:Drivers/STM32L4xx_HAL_Driver/Src/stm32l4xx_hal_flash_ex.c ****       assert_param(IS_OB_USER_SRAM2_PARITY(UserConfig & FLASH_OPTR_SRAM2_PE));
 912:Drivers/STM32L4xx_HAL_Driver/Src/stm32l4xx_hal_flash_ex.c **** 
 913:Drivers/STM32L4xx_HAL_Driver/Src/stm32l4xx_hal_flash_ex.c ****       /* Set value and mask for SRAM2_PE option byte */
 914:Drivers/STM32L4xx_HAL_Driver/Src/stm32l4xx_hal_flash_ex.c ****       optr_reg_val |= (UserConfig & FLASH_OPTR_SRAM2_PE);
 915:Drivers/STM32L4xx_HAL_Driver/Src/stm32l4xx_hal_flash_ex.c ****       optr_reg_mask |= FLASH_OPTR_SRAM2_PE;
 916:Drivers/STM32L4xx_HAL_Driver/Src/stm32l4xx_hal_flash_ex.c ****     }
 917:Drivers/STM32L4xx_HAL_Driver/Src/stm32l4xx_hal_flash_ex.c **** 
 918:Drivers/STM32L4xx_HAL_Driver/Src/stm32l4xx_hal_flash_ex.c ****     if((UserType & OB_USER_SRAM2_RST) != 0U)
 919:Drivers/STM32L4xx_HAL_Driver/Src/stm32l4xx_hal_flash_ex.c ****     {
 920:Drivers/STM32L4xx_HAL_Driver/Src/stm32l4xx_hal_flash_ex.c ****       /* SRAM2_RST option byte should be modified */
 921:Drivers/STM32L4xx_HAL_Driver/Src/stm32l4xx_hal_flash_ex.c ****       assert_param(IS_OB_USER_SRAM2_RST(UserConfig & FLASH_OPTR_SRAM2_RST));
 922:Drivers/STM32L4xx_HAL_Driver/Src/stm32l4xx_hal_flash_ex.c **** 
 923:Drivers/STM32L4xx_HAL_Driver/Src/stm32l4xx_hal_flash_ex.c ****       /* Set value and mask for SRAM2_RST option byte */
 924:Drivers/STM32L4xx_HAL_Driver/Src/stm32l4xx_hal_flash_ex.c ****       optr_reg_val |= (UserConfig & FLASH_OPTR_SRAM2_RST);
 925:Drivers/STM32L4xx_HAL_Driver/Src/stm32l4xx_hal_flash_ex.c ****       optr_reg_mask |= FLASH_OPTR_SRAM2_RST;
 926:Drivers/STM32L4xx_HAL_Driver/Src/stm32l4xx_hal_flash_ex.c ****     }
 927:Drivers/STM32L4xx_HAL_Driver/Src/stm32l4xx_hal_flash_ex.c **** 
 928:Drivers/STM32L4xx_HAL_Driver/Src/stm32l4xx_hal_flash_ex.c **** #if defined (STM32L412xx) || defined (STM32L422xx) || defined (STM32L431xx) || defined (STM32L432xx
 929:Drivers/STM32L4xx_HAL_Driver/Src/stm32l4xx_hal_flash_ex.c ****     defined (STM32L442xx) || defined (STM32L443xx) || defined (STM32L451xx) || defined (STM32L452xx
 930:Drivers/STM32L4xx_HAL_Driver/Src/stm32l4xx_hal_flash_ex.c ****     defined (STM32L496xx) || defined (STM32L4A6xx) || \
 931:Drivers/STM32L4xx_HAL_Driver/Src/stm32l4xx_hal_flash_ex.c ****     defined (STM32L4R5xx) || defined (STM32L4R7xx) || defined (STM32L4R9xx) || defined (STM32L4S5xx
 932:Drivers/STM32L4xx_HAL_Driver/Src/stm32l4xx_hal_flash_ex.c ****     if((UserType & OB_USER_nSWBOOT0) != 0U)
 933:Drivers/STM32L4xx_HAL_Driver/Src/stm32l4xx_hal_flash_ex.c ****     {
 934:Drivers/STM32L4xx_HAL_Driver/Src/stm32l4xx_hal_flash_ex.c ****       /* nSWBOOT0 option byte should be modified */
 935:Drivers/STM32L4xx_HAL_Driver/Src/stm32l4xx_hal_flash_ex.c ****       assert_param(IS_OB_USER_SWBOOT0(UserConfig & FLASH_OPTR_nSWBOOT0));
 936:Drivers/STM32L4xx_HAL_Driver/Src/stm32l4xx_hal_flash_ex.c **** 
 937:Drivers/STM32L4xx_HAL_Driver/Src/stm32l4xx_hal_flash_ex.c ****       /* Set value and mask for nSWBOOT0 option byte */
 938:Drivers/STM32L4xx_HAL_Driver/Src/stm32l4xx_hal_flash_ex.c ****       optr_reg_val |= (UserConfig & FLASH_OPTR_nSWBOOT0);
 939:Drivers/STM32L4xx_HAL_Driver/Src/stm32l4xx_hal_flash_ex.c ****       optr_reg_mask |= FLASH_OPTR_nSWBOOT0;
 940:Drivers/STM32L4xx_HAL_Driver/Src/stm32l4xx_hal_flash_ex.c ****     }
 941:Drivers/STM32L4xx_HAL_Driver/Src/stm32l4xx_hal_flash_ex.c **** 
 942:Drivers/STM32L4xx_HAL_Driver/Src/stm32l4xx_hal_flash_ex.c ****     if((UserType & OB_USER_nBOOT0) != 0U)
 943:Drivers/STM32L4xx_HAL_Driver/Src/stm32l4xx_hal_flash_ex.c ****     {
 944:Drivers/STM32L4xx_HAL_Driver/Src/stm32l4xx_hal_flash_ex.c ****       /* nBOOT0 option byte should be modified */
 945:Drivers/STM32L4xx_HAL_Driver/Src/stm32l4xx_hal_flash_ex.c ****       assert_param(IS_OB_USER_BOOT0(UserConfig & FLASH_OPTR_nBOOT0));
 946:Drivers/STM32L4xx_HAL_Driver/Src/stm32l4xx_hal_flash_ex.c **** 
 947:Drivers/STM32L4xx_HAL_Driver/Src/stm32l4xx_hal_flash_ex.c ****       /* Set value and mask for nBOOT0 option byte */
 948:Drivers/STM32L4xx_HAL_Driver/Src/stm32l4xx_hal_flash_ex.c ****       optr_reg_val |= (UserConfig & FLASH_OPTR_nBOOT0);
 949:Drivers/STM32L4xx_HAL_Driver/Src/stm32l4xx_hal_flash_ex.c ****       optr_reg_mask |= FLASH_OPTR_nBOOT0;
 950:Drivers/STM32L4xx_HAL_Driver/Src/stm32l4xx_hal_flash_ex.c ****     }
 951:Drivers/STM32L4xx_HAL_Driver/Src/stm32l4xx_hal_flash_ex.c **** #endif
 952:Drivers/STM32L4xx_HAL_Driver/Src/stm32l4xx_hal_flash_ex.c **** 
 953:Drivers/STM32L4xx_HAL_Driver/Src/stm32l4xx_hal_flash_ex.c ****     /* Configure the option bytes register */
 954:Drivers/STM32L4xx_HAL_Driver/Src/stm32l4xx_hal_flash_ex.c ****     MODIFY_REG(FLASH->OPTR, optr_reg_mask, optr_reg_val);
 955:Drivers/STM32L4xx_HAL_Driver/Src/stm32l4xx_hal_flash_ex.c **** 
 956:Drivers/STM32L4xx_HAL_Driver/Src/stm32l4xx_hal_flash_ex.c ****     /* Set OPTSTRT Bit */
 957:Drivers/STM32L4xx_HAL_Driver/Src/stm32l4xx_hal_flash_ex.c ****     SET_BIT(FLASH->CR, FLASH_CR_OPTSTRT);
ARM GAS  C:\Users\hirot\AppData\Local\Temp\ccKvd7ca.s 			page 19


 958:Drivers/STM32L4xx_HAL_Driver/Src/stm32l4xx_hal_flash_ex.c **** 
 959:Drivers/STM32L4xx_HAL_Driver/Src/stm32l4xx_hal_flash_ex.c ****     /* Wait for last operation to be completed */
 960:Drivers/STM32L4xx_HAL_Driver/Src/stm32l4xx_hal_flash_ex.c ****     status = FLASH_WaitForLastOperation((uint32_t)FLASH_TIMEOUT_VALUE);
 961:Drivers/STM32L4xx_HAL_Driver/Src/stm32l4xx_hal_flash_ex.c **** 
 962:Drivers/STM32L4xx_HAL_Driver/Src/stm32l4xx_hal_flash_ex.c ****     /* If the option byte program operation is completed, disable the OPTSTRT Bit */
 963:Drivers/STM32L4xx_HAL_Driver/Src/stm32l4xx_hal_flash_ex.c ****     CLEAR_BIT(FLASH->CR, FLASH_CR_OPTSTRT);
 964:Drivers/STM32L4xx_HAL_Driver/Src/stm32l4xx_hal_flash_ex.c ****   }
 965:Drivers/STM32L4xx_HAL_Driver/Src/stm32l4xx_hal_flash_ex.c **** 
 966:Drivers/STM32L4xx_HAL_Driver/Src/stm32l4xx_hal_flash_ex.c ****   return status;
 967:Drivers/STM32L4xx_HAL_Driver/Src/stm32l4xx_hal_flash_ex.c **** }
 968:Drivers/STM32L4xx_HAL_Driver/Src/stm32l4xx_hal_flash_ex.c **** 
 969:Drivers/STM32L4xx_HAL_Driver/Src/stm32l4xx_hal_flash_ex.c **** /**
 970:Drivers/STM32L4xx_HAL_Driver/Src/stm32l4xx_hal_flash_ex.c ****   * @brief  Configure the Proprietary code readout protection of the desired addresses.
 971:Drivers/STM32L4xx_HAL_Driver/Src/stm32l4xx_hal_flash_ex.c ****   *
 972:Drivers/STM32L4xx_HAL_Driver/Src/stm32l4xx_hal_flash_ex.c ****   * @note   To configure the PCROP options, the option lock bit OPTLOCK must be
 973:Drivers/STM32L4xx_HAL_Driver/Src/stm32l4xx_hal_flash_ex.c ****   *         cleared with the call of the HAL_FLASH_OB_Unlock() function.
 974:Drivers/STM32L4xx_HAL_Driver/Src/stm32l4xx_hal_flash_ex.c ****   * @note   To validate the PCROP options, the option bytes must be reloaded
 975:Drivers/STM32L4xx_HAL_Driver/Src/stm32l4xx_hal_flash_ex.c ****   *         through the call of the HAL_FLASH_OB_Launch() function.
 976:Drivers/STM32L4xx_HAL_Driver/Src/stm32l4xx_hal_flash_ex.c ****   *
 977:Drivers/STM32L4xx_HAL_Driver/Src/stm32l4xx_hal_flash_ex.c ****   * @param  PCROPConfig: specifies the configuration (Bank to be configured and PCROP_RDP option).
 978:Drivers/STM32L4xx_HAL_Driver/Src/stm32l4xx_hal_flash_ex.c ****   *          This parameter must be a combination of FLASH_BANK_1 or FLASH_BANK_2
 979:Drivers/STM32L4xx_HAL_Driver/Src/stm32l4xx_hal_flash_ex.c ****   *          with OB_PCROP_RDP_NOT_ERASE or OB_PCROP_RDP_ERASE
 980:Drivers/STM32L4xx_HAL_Driver/Src/stm32l4xx_hal_flash_ex.c ****   *
 981:Drivers/STM32L4xx_HAL_Driver/Src/stm32l4xx_hal_flash_ex.c ****   * @param  PCROPStartAddr: specifies the start address of the Proprietary code readout protection
 982:Drivers/STM32L4xx_HAL_Driver/Src/stm32l4xx_hal_flash_ex.c ****   *          This parameter can be an address between begin and end of the bank
 983:Drivers/STM32L4xx_HAL_Driver/Src/stm32l4xx_hal_flash_ex.c ****   *
 984:Drivers/STM32L4xx_HAL_Driver/Src/stm32l4xx_hal_flash_ex.c ****   * @param  PCROPEndAddr: specifies the end address of the Proprietary code readout protection
 985:Drivers/STM32L4xx_HAL_Driver/Src/stm32l4xx_hal_flash_ex.c ****   *          This parameter can be an address between PCROPStartAddr and end of the bank
 986:Drivers/STM32L4xx_HAL_Driver/Src/stm32l4xx_hal_flash_ex.c ****   *
 987:Drivers/STM32L4xx_HAL_Driver/Src/stm32l4xx_hal_flash_ex.c ****   * @retval HAL Status
 988:Drivers/STM32L4xx_HAL_Driver/Src/stm32l4xx_hal_flash_ex.c ****   */
 989:Drivers/STM32L4xx_HAL_Driver/Src/stm32l4xx_hal_flash_ex.c **** static HAL_StatusTypeDef FLASH_OB_PCROPConfig(uint32_t PCROPConfig, uint32_t PCROPStartAddr, uint32
 990:Drivers/STM32L4xx_HAL_Driver/Src/stm32l4xx_hal_flash_ex.c **** {
 991:Drivers/STM32L4xx_HAL_Driver/Src/stm32l4xx_hal_flash_ex.c ****   HAL_StatusTypeDef status;
 992:Drivers/STM32L4xx_HAL_Driver/Src/stm32l4xx_hal_flash_ex.c ****   uint32_t reg_value;
 993:Drivers/STM32L4xx_HAL_Driver/Src/stm32l4xx_hal_flash_ex.c ****   uint32_t bank1_addr;
 994:Drivers/STM32L4xx_HAL_Driver/Src/stm32l4xx_hal_flash_ex.c **** #if defined (STM32L471xx) || defined (STM32L475xx) || defined (STM32L476xx) || defined (STM32L485xx
 995:Drivers/STM32L4xx_HAL_Driver/Src/stm32l4xx_hal_flash_ex.c ****     defined (STM32L496xx) || defined (STM32L4A6xx) || \
 996:Drivers/STM32L4xx_HAL_Driver/Src/stm32l4xx_hal_flash_ex.c ****     defined (STM32L4R5xx) || defined (STM32L4R7xx) || defined (STM32L4R9xx) || defined (STM32L4S5xx
 997:Drivers/STM32L4xx_HAL_Driver/Src/stm32l4xx_hal_flash_ex.c ****   uint32_t bank2_addr;
 998:Drivers/STM32L4xx_HAL_Driver/Src/stm32l4xx_hal_flash_ex.c **** #endif
 999:Drivers/STM32L4xx_HAL_Driver/Src/stm32l4xx_hal_flash_ex.c **** 
1000:Drivers/STM32L4xx_HAL_Driver/Src/stm32l4xx_hal_flash_ex.c ****   /* Check the parameters */
1001:Drivers/STM32L4xx_HAL_Driver/Src/stm32l4xx_hal_flash_ex.c ****   assert_param(IS_FLASH_BANK_EXCLUSIVE(PCROPConfig & FLASH_BANK_BOTH));
1002:Drivers/STM32L4xx_HAL_Driver/Src/stm32l4xx_hal_flash_ex.c ****   assert_param(IS_OB_PCROP_RDP(PCROPConfig & FLASH_PCROP1ER_PCROP_RDP));
1003:Drivers/STM32L4xx_HAL_Driver/Src/stm32l4xx_hal_flash_ex.c ****   assert_param(IS_FLASH_MAIN_MEM_ADDRESS(PCROPStartAddr));
1004:Drivers/STM32L4xx_HAL_Driver/Src/stm32l4xx_hal_flash_ex.c ****   assert_param(IS_FLASH_MAIN_MEM_ADDRESS(PCROPEndAddr));
1005:Drivers/STM32L4xx_HAL_Driver/Src/stm32l4xx_hal_flash_ex.c **** 
1006:Drivers/STM32L4xx_HAL_Driver/Src/stm32l4xx_hal_flash_ex.c ****   /* Wait for last operation to be completed */
1007:Drivers/STM32L4xx_HAL_Driver/Src/stm32l4xx_hal_flash_ex.c ****   status = FLASH_WaitForLastOperation((uint32_t)FLASH_TIMEOUT_VALUE);
1008:Drivers/STM32L4xx_HAL_Driver/Src/stm32l4xx_hal_flash_ex.c **** 
1009:Drivers/STM32L4xx_HAL_Driver/Src/stm32l4xx_hal_flash_ex.c ****   if(status == HAL_OK)
1010:Drivers/STM32L4xx_HAL_Driver/Src/stm32l4xx_hal_flash_ex.c ****   {
1011:Drivers/STM32L4xx_HAL_Driver/Src/stm32l4xx_hal_flash_ex.c **** #if defined (STM32L471xx) || defined (STM32L475xx) || defined (STM32L476xx) || defined (STM32L485xx
1012:Drivers/STM32L4xx_HAL_Driver/Src/stm32l4xx_hal_flash_ex.c ****     defined (STM32L496xx) || defined (STM32L4A6xx) || \
1013:Drivers/STM32L4xx_HAL_Driver/Src/stm32l4xx_hal_flash_ex.c ****     defined (STM32L4R5xx) || defined (STM32L4R7xx) || defined (STM32L4R9xx) || defined (STM32L4S5xx
1014:Drivers/STM32L4xx_HAL_Driver/Src/stm32l4xx_hal_flash_ex.c ****     /* Get the information about the bank swapping */
ARM GAS  C:\Users\hirot\AppData\Local\Temp\ccKvd7ca.s 			page 20


1015:Drivers/STM32L4xx_HAL_Driver/Src/stm32l4xx_hal_flash_ex.c ****     if (READ_BIT(SYSCFG->MEMRMP, SYSCFG_MEMRMP_FB_MODE) == 0U)
1016:Drivers/STM32L4xx_HAL_Driver/Src/stm32l4xx_hal_flash_ex.c ****     {
1017:Drivers/STM32L4xx_HAL_Driver/Src/stm32l4xx_hal_flash_ex.c ****       bank1_addr = FLASH_BASE;
1018:Drivers/STM32L4xx_HAL_Driver/Src/stm32l4xx_hal_flash_ex.c ****       bank2_addr = FLASH_BASE + FLASH_BANK_SIZE;
1019:Drivers/STM32L4xx_HAL_Driver/Src/stm32l4xx_hal_flash_ex.c ****     }
1020:Drivers/STM32L4xx_HAL_Driver/Src/stm32l4xx_hal_flash_ex.c ****     else
1021:Drivers/STM32L4xx_HAL_Driver/Src/stm32l4xx_hal_flash_ex.c ****     {
1022:Drivers/STM32L4xx_HAL_Driver/Src/stm32l4xx_hal_flash_ex.c ****       bank1_addr = FLASH_BASE + FLASH_BANK_SIZE;
1023:Drivers/STM32L4xx_HAL_Driver/Src/stm32l4xx_hal_flash_ex.c ****       bank2_addr = FLASH_BASE;
1024:Drivers/STM32L4xx_HAL_Driver/Src/stm32l4xx_hal_flash_ex.c ****     }
1025:Drivers/STM32L4xx_HAL_Driver/Src/stm32l4xx_hal_flash_ex.c **** #else
1026:Drivers/STM32L4xx_HAL_Driver/Src/stm32l4xx_hal_flash_ex.c ****     bank1_addr = FLASH_BASE;
1027:Drivers/STM32L4xx_HAL_Driver/Src/stm32l4xx_hal_flash_ex.c **** #endif
1028:Drivers/STM32L4xx_HAL_Driver/Src/stm32l4xx_hal_flash_ex.c **** 
1029:Drivers/STM32L4xx_HAL_Driver/Src/stm32l4xx_hal_flash_ex.c **** #if defined (STM32L4R5xx) || defined (STM32L4R7xx) || defined (STM32L4R9xx) || defined (STM32L4S5xx
1030:Drivers/STM32L4xx_HAL_Driver/Src/stm32l4xx_hal_flash_ex.c ****     if (READ_BIT(FLASH->OPTR, FLASH_OPTR_DBANK) == 0U)
1031:Drivers/STM32L4xx_HAL_Driver/Src/stm32l4xx_hal_flash_ex.c ****     {
1032:Drivers/STM32L4xx_HAL_Driver/Src/stm32l4xx_hal_flash_ex.c ****       /* Configure the Proprietary code readout protection */
1033:Drivers/STM32L4xx_HAL_Driver/Src/stm32l4xx_hal_flash_ex.c ****       if((PCROPConfig & FLASH_BANK_BOTH) == FLASH_BANK_1)
1034:Drivers/STM32L4xx_HAL_Driver/Src/stm32l4xx_hal_flash_ex.c ****       {
1035:Drivers/STM32L4xx_HAL_Driver/Src/stm32l4xx_hal_flash_ex.c ****         reg_value = ((PCROPStartAddr - FLASH_BASE) >> 4);
1036:Drivers/STM32L4xx_HAL_Driver/Src/stm32l4xx_hal_flash_ex.c ****         MODIFY_REG(FLASH->PCROP1SR, FLASH_PCROP1SR_PCROP1_STRT, reg_value);
1037:Drivers/STM32L4xx_HAL_Driver/Src/stm32l4xx_hal_flash_ex.c **** 
1038:Drivers/STM32L4xx_HAL_Driver/Src/stm32l4xx_hal_flash_ex.c ****         reg_value = ((PCROPEndAddr - FLASH_BASE) >> 4);
1039:Drivers/STM32L4xx_HAL_Driver/Src/stm32l4xx_hal_flash_ex.c ****         MODIFY_REG(FLASH->PCROP1ER, FLASH_PCROP1ER_PCROP1_END, reg_value);
1040:Drivers/STM32L4xx_HAL_Driver/Src/stm32l4xx_hal_flash_ex.c ****       }
1041:Drivers/STM32L4xx_HAL_Driver/Src/stm32l4xx_hal_flash_ex.c ****       else if((PCROPConfig & FLASH_BANK_BOTH) == FLASH_BANK_2)
1042:Drivers/STM32L4xx_HAL_Driver/Src/stm32l4xx_hal_flash_ex.c ****       {
1043:Drivers/STM32L4xx_HAL_Driver/Src/stm32l4xx_hal_flash_ex.c ****         reg_value = ((PCROPStartAddr - FLASH_BASE) >> 4);
1044:Drivers/STM32L4xx_HAL_Driver/Src/stm32l4xx_hal_flash_ex.c ****         MODIFY_REG(FLASH->PCROP2SR, FLASH_PCROP2SR_PCROP2_STRT, reg_value);
1045:Drivers/STM32L4xx_HAL_Driver/Src/stm32l4xx_hal_flash_ex.c **** 
1046:Drivers/STM32L4xx_HAL_Driver/Src/stm32l4xx_hal_flash_ex.c ****         reg_value = ((PCROPEndAddr - FLASH_BASE) >> 4);
1047:Drivers/STM32L4xx_HAL_Driver/Src/stm32l4xx_hal_flash_ex.c ****         MODIFY_REG(FLASH->PCROP2ER, FLASH_PCROP2ER_PCROP2_END, reg_value);
1048:Drivers/STM32L4xx_HAL_Driver/Src/stm32l4xx_hal_flash_ex.c ****       }
1049:Drivers/STM32L4xx_HAL_Driver/Src/stm32l4xx_hal_flash_ex.c ****       else
1050:Drivers/STM32L4xx_HAL_Driver/Src/stm32l4xx_hal_flash_ex.c ****       {
1051:Drivers/STM32L4xx_HAL_Driver/Src/stm32l4xx_hal_flash_ex.c ****         /* Nothing to do */
1052:Drivers/STM32L4xx_HAL_Driver/Src/stm32l4xx_hal_flash_ex.c ****       }
1053:Drivers/STM32L4xx_HAL_Driver/Src/stm32l4xx_hal_flash_ex.c ****     }
1054:Drivers/STM32L4xx_HAL_Driver/Src/stm32l4xx_hal_flash_ex.c ****     else
1055:Drivers/STM32L4xx_HAL_Driver/Src/stm32l4xx_hal_flash_ex.c **** #endif
1056:Drivers/STM32L4xx_HAL_Driver/Src/stm32l4xx_hal_flash_ex.c ****     {
1057:Drivers/STM32L4xx_HAL_Driver/Src/stm32l4xx_hal_flash_ex.c ****       /* Configure the Proprietary code readout protection */
1058:Drivers/STM32L4xx_HAL_Driver/Src/stm32l4xx_hal_flash_ex.c ****       if((PCROPConfig & FLASH_BANK_BOTH) == FLASH_BANK_1)
1059:Drivers/STM32L4xx_HAL_Driver/Src/stm32l4xx_hal_flash_ex.c ****       {
1060:Drivers/STM32L4xx_HAL_Driver/Src/stm32l4xx_hal_flash_ex.c ****         reg_value = ((PCROPStartAddr - bank1_addr) >> 3);
1061:Drivers/STM32L4xx_HAL_Driver/Src/stm32l4xx_hal_flash_ex.c ****         MODIFY_REG(FLASH->PCROP1SR, FLASH_PCROP1SR_PCROP1_STRT, reg_value);
1062:Drivers/STM32L4xx_HAL_Driver/Src/stm32l4xx_hal_flash_ex.c **** 
1063:Drivers/STM32L4xx_HAL_Driver/Src/stm32l4xx_hal_flash_ex.c ****         reg_value = ((PCROPEndAddr - bank1_addr) >> 3);
1064:Drivers/STM32L4xx_HAL_Driver/Src/stm32l4xx_hal_flash_ex.c ****         MODIFY_REG(FLASH->PCROP1ER, FLASH_PCROP1ER_PCROP1_END, reg_value);
1065:Drivers/STM32L4xx_HAL_Driver/Src/stm32l4xx_hal_flash_ex.c ****       }
1066:Drivers/STM32L4xx_HAL_Driver/Src/stm32l4xx_hal_flash_ex.c **** #if defined (STM32L471xx) || defined (STM32L475xx) || defined (STM32L476xx) || defined (STM32L485xx
1067:Drivers/STM32L4xx_HAL_Driver/Src/stm32l4xx_hal_flash_ex.c ****     defined (STM32L496xx) || defined (STM32L4A6xx) || \
1068:Drivers/STM32L4xx_HAL_Driver/Src/stm32l4xx_hal_flash_ex.c ****     defined (STM32L4R5xx) || defined (STM32L4R7xx) || defined (STM32L4R9xx) || defined (STM32L4S5xx
1069:Drivers/STM32L4xx_HAL_Driver/Src/stm32l4xx_hal_flash_ex.c ****       else if((PCROPConfig & FLASH_BANK_BOTH) == FLASH_BANK_2)
1070:Drivers/STM32L4xx_HAL_Driver/Src/stm32l4xx_hal_flash_ex.c ****       {
1071:Drivers/STM32L4xx_HAL_Driver/Src/stm32l4xx_hal_flash_ex.c ****         reg_value = ((PCROPStartAddr - bank2_addr) >> 3);
ARM GAS  C:\Users\hirot\AppData\Local\Temp\ccKvd7ca.s 			page 21


1072:Drivers/STM32L4xx_HAL_Driver/Src/stm32l4xx_hal_flash_ex.c ****         MODIFY_REG(FLASH->PCROP2SR, FLASH_PCROP2SR_PCROP2_STRT, reg_value);
1073:Drivers/STM32L4xx_HAL_Driver/Src/stm32l4xx_hal_flash_ex.c **** 
1074:Drivers/STM32L4xx_HAL_Driver/Src/stm32l4xx_hal_flash_ex.c ****         reg_value = ((PCROPEndAddr - bank2_addr) >> 3);
1075:Drivers/STM32L4xx_HAL_Driver/Src/stm32l4xx_hal_flash_ex.c ****         MODIFY_REG(FLASH->PCROP2ER, FLASH_PCROP2ER_PCROP2_END, reg_value);
1076:Drivers/STM32L4xx_HAL_Driver/Src/stm32l4xx_hal_flash_ex.c ****       }
1077:Drivers/STM32L4xx_HAL_Driver/Src/stm32l4xx_hal_flash_ex.c **** #endif
1078:Drivers/STM32L4xx_HAL_Driver/Src/stm32l4xx_hal_flash_ex.c ****       else
1079:Drivers/STM32L4xx_HAL_Driver/Src/stm32l4xx_hal_flash_ex.c ****       {
1080:Drivers/STM32L4xx_HAL_Driver/Src/stm32l4xx_hal_flash_ex.c ****         /* Nothing to do */
1081:Drivers/STM32L4xx_HAL_Driver/Src/stm32l4xx_hal_flash_ex.c ****       }
1082:Drivers/STM32L4xx_HAL_Driver/Src/stm32l4xx_hal_flash_ex.c ****     }
1083:Drivers/STM32L4xx_HAL_Driver/Src/stm32l4xx_hal_flash_ex.c **** 
1084:Drivers/STM32L4xx_HAL_Driver/Src/stm32l4xx_hal_flash_ex.c ****     MODIFY_REG(FLASH->PCROP1ER, FLASH_PCROP1ER_PCROP_RDP, (PCROPConfig & FLASH_PCROP1ER_PCROP_RDP))
1085:Drivers/STM32L4xx_HAL_Driver/Src/stm32l4xx_hal_flash_ex.c **** 
1086:Drivers/STM32L4xx_HAL_Driver/Src/stm32l4xx_hal_flash_ex.c ****     /* Set OPTSTRT Bit */
1087:Drivers/STM32L4xx_HAL_Driver/Src/stm32l4xx_hal_flash_ex.c ****     SET_BIT(FLASH->CR, FLASH_CR_OPTSTRT);
1088:Drivers/STM32L4xx_HAL_Driver/Src/stm32l4xx_hal_flash_ex.c **** 
1089:Drivers/STM32L4xx_HAL_Driver/Src/stm32l4xx_hal_flash_ex.c ****     /* Wait for last operation to be completed */
1090:Drivers/STM32L4xx_HAL_Driver/Src/stm32l4xx_hal_flash_ex.c ****     status = FLASH_WaitForLastOperation((uint32_t)FLASH_TIMEOUT_VALUE);
1091:Drivers/STM32L4xx_HAL_Driver/Src/stm32l4xx_hal_flash_ex.c **** 
1092:Drivers/STM32L4xx_HAL_Driver/Src/stm32l4xx_hal_flash_ex.c ****     /* If the option byte program operation is completed, disable the OPTSTRT Bit */
1093:Drivers/STM32L4xx_HAL_Driver/Src/stm32l4xx_hal_flash_ex.c ****     CLEAR_BIT(FLASH->CR, FLASH_CR_OPTSTRT);
1094:Drivers/STM32L4xx_HAL_Driver/Src/stm32l4xx_hal_flash_ex.c ****   }
1095:Drivers/STM32L4xx_HAL_Driver/Src/stm32l4xx_hal_flash_ex.c **** 
1096:Drivers/STM32L4xx_HAL_Driver/Src/stm32l4xx_hal_flash_ex.c ****   return status;
1097:Drivers/STM32L4xx_HAL_Driver/Src/stm32l4xx_hal_flash_ex.c **** }
1098:Drivers/STM32L4xx_HAL_Driver/Src/stm32l4xx_hal_flash_ex.c **** 
1099:Drivers/STM32L4xx_HAL_Driver/Src/stm32l4xx_hal_flash_ex.c **** /**
1100:Drivers/STM32L4xx_HAL_Driver/Src/stm32l4xx_hal_flash_ex.c ****   * @brief  Return the FLASH Write Protection Option Bytes value.
1101:Drivers/STM32L4xx_HAL_Driver/Src/stm32l4xx_hal_flash_ex.c ****   *
1102:Drivers/STM32L4xx_HAL_Driver/Src/stm32l4xx_hal_flash_ex.c ****   * @param[in]  WRPArea: specifies the area to be returned.
1103:Drivers/STM32L4xx_HAL_Driver/Src/stm32l4xx_hal_flash_ex.c ****   *          This parameter can be one of the following values:
1104:Drivers/STM32L4xx_HAL_Driver/Src/stm32l4xx_hal_flash_ex.c ****   *            @arg OB_WRPAREA_BANK1_AREAA: Flash Bank 1 Area A
1105:Drivers/STM32L4xx_HAL_Driver/Src/stm32l4xx_hal_flash_ex.c ****   *            @arg OB_WRPAREA_BANK1_AREAB: Flash Bank 1 Area B
1106:Drivers/STM32L4xx_HAL_Driver/Src/stm32l4xx_hal_flash_ex.c ****   *            @arg OB_WRPAREA_BANK2_AREAA: Flash Bank 2 Area A (don't apply to STM32L43x/STM32L44x
1107:Drivers/STM32L4xx_HAL_Driver/Src/stm32l4xx_hal_flash_ex.c ****   *            @arg OB_WRPAREA_BANK2_AREAB: Flash Bank 2 Area B (don't apply to STM32L43x/STM32L44x
1108:Drivers/STM32L4xx_HAL_Driver/Src/stm32l4xx_hal_flash_ex.c ****   *
1109:Drivers/STM32L4xx_HAL_Driver/Src/stm32l4xx_hal_flash_ex.c ****   * @param[out]  WRPStartOffset: specifies the address where to copied the start page
1110:Drivers/STM32L4xx_HAL_Driver/Src/stm32l4xx_hal_flash_ex.c ****   *                         of the write protected area
1111:Drivers/STM32L4xx_HAL_Driver/Src/stm32l4xx_hal_flash_ex.c ****   *
1112:Drivers/STM32L4xx_HAL_Driver/Src/stm32l4xx_hal_flash_ex.c ****   * @param[out]  WRDPEndOffset: specifies the address where to copied the end page of
1113:Drivers/STM32L4xx_HAL_Driver/Src/stm32l4xx_hal_flash_ex.c ****   *                        the write protected area
1114:Drivers/STM32L4xx_HAL_Driver/Src/stm32l4xx_hal_flash_ex.c ****   *
1115:Drivers/STM32L4xx_HAL_Driver/Src/stm32l4xx_hal_flash_ex.c ****   * @retval None
1116:Drivers/STM32L4xx_HAL_Driver/Src/stm32l4xx_hal_flash_ex.c ****   */
1117:Drivers/STM32L4xx_HAL_Driver/Src/stm32l4xx_hal_flash_ex.c **** static void FLASH_OB_GetWRP(uint32_t WRPArea, uint32_t * WRPStartOffset, uint32_t * WRDPEndOffset)
1118:Drivers/STM32L4xx_HAL_Driver/Src/stm32l4xx_hal_flash_ex.c **** {
  73              		.loc 1 1118 0
  74              		.cfi_startproc
  75              		@ args = 0, pretend = 0, frame = 0
  76              		@ frame_needed = 0, uses_anonymous_args = 0
  77              		@ link register save eliminated.
  78              	.LVL1:
1119:Drivers/STM32L4xx_HAL_Driver/Src/stm32l4xx_hal_flash_ex.c ****   /* Get the configuration of the write protected area */
1120:Drivers/STM32L4xx_HAL_Driver/Src/stm32l4xx_hal_flash_ex.c ****   if(WRPArea == OB_WRPAREA_BANK1_AREAA)
  79              		.loc 1 1120 0
  80 0000 30B1     		cbz	r0, .L11
ARM GAS  C:\Users\hirot\AppData\Local\Temp\ccKvd7ca.s 			page 22


1121:Drivers/STM32L4xx_HAL_Driver/Src/stm32l4xx_hal_flash_ex.c ****   {
1122:Drivers/STM32L4xx_HAL_Driver/Src/stm32l4xx_hal_flash_ex.c ****     *WRPStartOffset = READ_BIT(FLASH->WRP1AR, FLASH_WRP1AR_WRP1A_STRT);
1123:Drivers/STM32L4xx_HAL_Driver/Src/stm32l4xx_hal_flash_ex.c ****     *WRDPEndOffset = (READ_BIT(FLASH->WRP1AR, FLASH_WRP1AR_WRP1A_END) >> 16);
1124:Drivers/STM32L4xx_HAL_Driver/Src/stm32l4xx_hal_flash_ex.c ****   }
1125:Drivers/STM32L4xx_HAL_Driver/Src/stm32l4xx_hal_flash_ex.c ****   else if(WRPArea == OB_WRPAREA_BANK1_AREAB)
  81              		.loc 1 1125 0
  82 0002 0128     		cmp	r0, #1
  83 0004 0DD0     		beq	.L12
1126:Drivers/STM32L4xx_HAL_Driver/Src/stm32l4xx_hal_flash_ex.c ****   {
1127:Drivers/STM32L4xx_HAL_Driver/Src/stm32l4xx_hal_flash_ex.c ****     *WRPStartOffset = READ_BIT(FLASH->WRP1BR, FLASH_WRP1BR_WRP1B_STRT);
1128:Drivers/STM32L4xx_HAL_Driver/Src/stm32l4xx_hal_flash_ex.c ****     *WRDPEndOffset = (READ_BIT(FLASH->WRP1BR, FLASH_WRP1BR_WRP1B_END) >> 16);
1129:Drivers/STM32L4xx_HAL_Driver/Src/stm32l4xx_hal_flash_ex.c ****   }
1130:Drivers/STM32L4xx_HAL_Driver/Src/stm32l4xx_hal_flash_ex.c **** #if defined (STM32L471xx) || defined (STM32L475xx) || defined (STM32L476xx) || defined (STM32L485xx
1131:Drivers/STM32L4xx_HAL_Driver/Src/stm32l4xx_hal_flash_ex.c ****     defined (STM32L496xx) || defined (STM32L4A6xx) || \
1132:Drivers/STM32L4xx_HAL_Driver/Src/stm32l4xx_hal_flash_ex.c ****     defined (STM32L4R5xx) || defined (STM32L4R7xx) || defined (STM32L4R9xx) || defined (STM32L4S5xx
1133:Drivers/STM32L4xx_HAL_Driver/Src/stm32l4xx_hal_flash_ex.c ****   else if(WRPArea == OB_WRPAREA_BANK2_AREAA)
  84              		.loc 1 1133 0
  85 0006 0228     		cmp	r0, #2
  86 0008 14D0     		beq	.L13
1134:Drivers/STM32L4xx_HAL_Driver/Src/stm32l4xx_hal_flash_ex.c ****   {
1135:Drivers/STM32L4xx_HAL_Driver/Src/stm32l4xx_hal_flash_ex.c ****     *WRPStartOffset = READ_BIT(FLASH->WRP2AR, FLASH_WRP2AR_WRP2A_STRT);
1136:Drivers/STM32L4xx_HAL_Driver/Src/stm32l4xx_hal_flash_ex.c ****     *WRDPEndOffset = (READ_BIT(FLASH->WRP2AR, FLASH_WRP2AR_WRP2A_END) >> 16);
1137:Drivers/STM32L4xx_HAL_Driver/Src/stm32l4xx_hal_flash_ex.c ****   }
1138:Drivers/STM32L4xx_HAL_Driver/Src/stm32l4xx_hal_flash_ex.c ****   else if(WRPArea == OB_WRPAREA_BANK2_AREAB)
  87              		.loc 1 1138 0
  88 000a 0428     		cmp	r0, #4
  89 000c 1BD0     		beq	.L14
  90              	.LVL2:
  91              	.L6:
  92 000e 7047     		bx	lr
  93              	.LVL3:
  94              	.L11:
1122:Drivers/STM32L4xx_HAL_Driver/Src/stm32l4xx_hal_flash_ex.c ****     *WRDPEndOffset = (READ_BIT(FLASH->WRP1AR, FLASH_WRP1AR_WRP1A_END) >> 16);
  95              		.loc 1 1122 0
  96 0010 1148     		ldr	r0, .L15
  97              	.LVL4:
  98 0012 C36A     		ldr	r3, [r0, #44]
  99 0014 DBB2     		uxtb	r3, r3
 100 0016 0B60     		str	r3, [r1]
1123:Drivers/STM32L4xx_HAL_Driver/Src/stm32l4xx_hal_flash_ex.c ****   }
 101              		.loc 1 1123 0
 102 0018 C36A     		ldr	r3, [r0, #44]
 103 001a C3F30743 		ubfx	r3, r3, #16, #8
 104 001e 1360     		str	r3, [r2]
 105 0020 7047     		bx	lr
 106              	.LVL5:
 107              	.L12:
1127:Drivers/STM32L4xx_HAL_Driver/Src/stm32l4xx_hal_flash_ex.c ****     *WRDPEndOffset = (READ_BIT(FLASH->WRP1BR, FLASH_WRP1BR_WRP1B_END) >> 16);
 108              		.loc 1 1127 0
 109 0022 0D48     		ldr	r0, .L15
 110              	.LVL6:
 111 0024 036B     		ldr	r3, [r0, #48]
 112 0026 DBB2     		uxtb	r3, r3
 113 0028 0B60     		str	r3, [r1]
1128:Drivers/STM32L4xx_HAL_Driver/Src/stm32l4xx_hal_flash_ex.c ****   }
 114              		.loc 1 1128 0
 115 002a 036B     		ldr	r3, [r0, #48]
ARM GAS  C:\Users\hirot\AppData\Local\Temp\ccKvd7ca.s 			page 23


 116 002c C3F30743 		ubfx	r3, r3, #16, #8
 117 0030 1360     		str	r3, [r2]
 118 0032 7047     		bx	lr
 119              	.LVL7:
 120              	.L13:
1135:Drivers/STM32L4xx_HAL_Driver/Src/stm32l4xx_hal_flash_ex.c ****     *WRDPEndOffset = (READ_BIT(FLASH->WRP2AR, FLASH_WRP2AR_WRP2A_END) >> 16);
 121              		.loc 1 1135 0
 122 0034 0848     		ldr	r0, .L15
 123              	.LVL8:
 124 0036 C36C     		ldr	r3, [r0, #76]
 125 0038 DBB2     		uxtb	r3, r3
 126 003a 0B60     		str	r3, [r1]
1136:Drivers/STM32L4xx_HAL_Driver/Src/stm32l4xx_hal_flash_ex.c ****   }
 127              		.loc 1 1136 0
 128 003c C36C     		ldr	r3, [r0, #76]
 129 003e C3F30743 		ubfx	r3, r3, #16, #8
 130 0042 1360     		str	r3, [r2]
 131 0044 7047     		bx	lr
 132              	.LVL9:
 133              	.L14:
1139:Drivers/STM32L4xx_HAL_Driver/Src/stm32l4xx_hal_flash_ex.c ****   {
1140:Drivers/STM32L4xx_HAL_Driver/Src/stm32l4xx_hal_flash_ex.c ****     *WRPStartOffset = READ_BIT(FLASH->WRP2BR, FLASH_WRP2BR_WRP2B_STRT);
 134              		.loc 1 1140 0
 135 0046 0448     		ldr	r0, .L15
 136              	.LVL10:
 137 0048 036D     		ldr	r3, [r0, #80]
 138 004a DBB2     		uxtb	r3, r3
 139 004c 0B60     		str	r3, [r1]
1141:Drivers/STM32L4xx_HAL_Driver/Src/stm32l4xx_hal_flash_ex.c ****     *WRDPEndOffset = (READ_BIT(FLASH->WRP2BR, FLASH_WRP2BR_WRP2B_END) >> 16);
 140              		.loc 1 1141 0
 141 004e 036D     		ldr	r3, [r0, #80]
 142 0050 C3F30743 		ubfx	r3, r3, #16, #8
 143 0054 1360     		str	r3, [r2]
1142:Drivers/STM32L4xx_HAL_Driver/Src/stm32l4xx_hal_flash_ex.c ****   }
1143:Drivers/STM32L4xx_HAL_Driver/Src/stm32l4xx_hal_flash_ex.c **** #endif
1144:Drivers/STM32L4xx_HAL_Driver/Src/stm32l4xx_hal_flash_ex.c ****   else
1145:Drivers/STM32L4xx_HAL_Driver/Src/stm32l4xx_hal_flash_ex.c ****   {
1146:Drivers/STM32L4xx_HAL_Driver/Src/stm32l4xx_hal_flash_ex.c ****     /* Nothing to do */
1147:Drivers/STM32L4xx_HAL_Driver/Src/stm32l4xx_hal_flash_ex.c ****   }
1148:Drivers/STM32L4xx_HAL_Driver/Src/stm32l4xx_hal_flash_ex.c **** }
 144              		.loc 1 1148 0
 145 0056 DAE7     		b	.L6
 146              	.L16:
 147              		.align	2
 148              	.L15:
 149 0058 00200240 		.word	1073881088
 150              		.cfi_endproc
 151              	.LFE141:
 153              		.section	.text.FLASH_OB_GetRDP,"ax",%progbits
 154              		.align	1
 155              		.syntax unified
 156              		.thumb
 157              		.thumb_func
 158              		.fpu fpv4-sp-d16
 160              	FLASH_OB_GetRDP:
 161              	.LFB142:
1149:Drivers/STM32L4xx_HAL_Driver/Src/stm32l4xx_hal_flash_ex.c **** 
ARM GAS  C:\Users\hirot\AppData\Local\Temp\ccKvd7ca.s 			page 24


1150:Drivers/STM32L4xx_HAL_Driver/Src/stm32l4xx_hal_flash_ex.c **** /**
1151:Drivers/STM32L4xx_HAL_Driver/Src/stm32l4xx_hal_flash_ex.c ****   * @brief  Return the FLASH Read Protection level.
1152:Drivers/STM32L4xx_HAL_Driver/Src/stm32l4xx_hal_flash_ex.c ****   * @retval FLASH ReadOut Protection Status:
1153:Drivers/STM32L4xx_HAL_Driver/Src/stm32l4xx_hal_flash_ex.c ****   *         This return value can be one of the following values:
1154:Drivers/STM32L4xx_HAL_Driver/Src/stm32l4xx_hal_flash_ex.c ****   *            @arg OB_RDP_LEVEL_0: No protection
1155:Drivers/STM32L4xx_HAL_Driver/Src/stm32l4xx_hal_flash_ex.c ****   *            @arg OB_RDP_LEVEL_1: Read protection of the memory
1156:Drivers/STM32L4xx_HAL_Driver/Src/stm32l4xx_hal_flash_ex.c ****   *            @arg OB_RDP_LEVEL_2: Full chip protection
1157:Drivers/STM32L4xx_HAL_Driver/Src/stm32l4xx_hal_flash_ex.c ****   */
1158:Drivers/STM32L4xx_HAL_Driver/Src/stm32l4xx_hal_flash_ex.c **** static uint32_t FLASH_OB_GetRDP(void)
1159:Drivers/STM32L4xx_HAL_Driver/Src/stm32l4xx_hal_flash_ex.c **** {
 162              		.loc 1 1159 0
 163              		.cfi_startproc
 164              		@ args = 0, pretend = 0, frame = 0
 165              		@ frame_needed = 0, uses_anonymous_args = 0
 166              		@ link register save eliminated.
1160:Drivers/STM32L4xx_HAL_Driver/Src/stm32l4xx_hal_flash_ex.c ****   uint32_t rdp_level = READ_BIT(FLASH->OPTR, FLASH_OPTR_RDP);
 167              		.loc 1 1160 0
 168 0000 064B     		ldr	r3, .L21
 169 0002 1B6A     		ldr	r3, [r3, #32]
 170 0004 DBB2     		uxtb	r3, r3
 171              	.LVL11:
1161:Drivers/STM32L4xx_HAL_Driver/Src/stm32l4xx_hal_flash_ex.c **** 
1162:Drivers/STM32L4xx_HAL_Driver/Src/stm32l4xx_hal_flash_ex.c ****   if ((rdp_level != OB_RDP_LEVEL_0) && (rdp_level != OB_RDP_LEVEL_2))
 172              		.loc 1 1162 0
 173 0006 AA2B     		cmp	r3, #170
 174 0008 03D0     		beq	.L18
 175              		.loc 1 1162 0 is_stmt 0 discriminator 1
 176 000a CC2B     		cmp	r3, #204
 177 000c 01D0     		beq	.L18
1163:Drivers/STM32L4xx_HAL_Driver/Src/stm32l4xx_hal_flash_ex.c ****   {
1164:Drivers/STM32L4xx_HAL_Driver/Src/stm32l4xx_hal_flash_ex.c ****     return (OB_RDP_LEVEL_1);
 178              		.loc 1 1164 0 is_stmt 1
 179 000e BB20     		movs	r0, #187
1165:Drivers/STM32L4xx_HAL_Driver/Src/stm32l4xx_hal_flash_ex.c ****   }
1166:Drivers/STM32L4xx_HAL_Driver/Src/stm32l4xx_hal_flash_ex.c ****   else
1167:Drivers/STM32L4xx_HAL_Driver/Src/stm32l4xx_hal_flash_ex.c ****   {
1168:Drivers/STM32L4xx_HAL_Driver/Src/stm32l4xx_hal_flash_ex.c ****     return (READ_BIT(FLASH->OPTR, FLASH_OPTR_RDP));
1169:Drivers/STM32L4xx_HAL_Driver/Src/stm32l4xx_hal_flash_ex.c ****   }
1170:Drivers/STM32L4xx_HAL_Driver/Src/stm32l4xx_hal_flash_ex.c **** }
 180              		.loc 1 1170 0
 181 0010 7047     		bx	lr
 182              	.L18:
1168:Drivers/STM32L4xx_HAL_Driver/Src/stm32l4xx_hal_flash_ex.c ****   }
 183              		.loc 1 1168 0
 184 0012 024B     		ldr	r3, .L21
 185              	.LVL12:
 186 0014 186A     		ldr	r0, [r3, #32]
 187 0016 C0B2     		uxtb	r0, r0
 188 0018 7047     		bx	lr
 189              	.L22:
 190 001a 00BF     		.align	2
 191              	.L21:
 192 001c 00200240 		.word	1073881088
 193              		.cfi_endproc
 194              	.LFE142:
 196              		.section	.text.FLASH_OB_GetUser,"ax",%progbits
 197              		.align	1
ARM GAS  C:\Users\hirot\AppData\Local\Temp\ccKvd7ca.s 			page 25


 198              		.syntax unified
 199              		.thumb
 200              		.thumb_func
 201              		.fpu fpv4-sp-d16
 203              	FLASH_OB_GetUser:
 204              	.LFB143:
1171:Drivers/STM32L4xx_HAL_Driver/Src/stm32l4xx_hal_flash_ex.c **** 
1172:Drivers/STM32L4xx_HAL_Driver/Src/stm32l4xx_hal_flash_ex.c **** /**
1173:Drivers/STM32L4xx_HAL_Driver/Src/stm32l4xx_hal_flash_ex.c ****   * @brief  Return the FLASH User Option Byte value.
1174:Drivers/STM32L4xx_HAL_Driver/Src/stm32l4xx_hal_flash_ex.c ****   * @retval The FLASH User Option Bytes values:
1175:Drivers/STM32L4xx_HAL_Driver/Src/stm32l4xx_hal_flash_ex.c ****   *      For STM32L47x/STM32L48x devices :
1176:Drivers/STM32L4xx_HAL_Driver/Src/stm32l4xx_hal_flash_ex.c ****   *         BOR_LEV(Bit8-10), nRST_STOP(Bit12), nRST_STDBY(Bit13), nRST_SHDW(Bit14),
1177:Drivers/STM32L4xx_HAL_Driver/Src/stm32l4xx_hal_flash_ex.c ****   *         IWDG_SW(Bit16), IWDG_STOP(Bit17), IWDG_STDBY(Bit18), WWDG_SW(Bit19),
1178:Drivers/STM32L4xx_HAL_Driver/Src/stm32l4xx_hal_flash_ex.c ****   *         BFB2(Bit20), DUALBANK(Bit21), nBOOT1(Bit23), SRAM2_PE(Bit24) and SRAM2_RST(Bit25).
1179:Drivers/STM32L4xx_HAL_Driver/Src/stm32l4xx_hal_flash_ex.c ****   *      For STM32L43x/STM32L44x devices :
1180:Drivers/STM32L4xx_HAL_Driver/Src/stm32l4xx_hal_flash_ex.c ****   *         BOR_LEV(Bit8-10), nRST_STOP(Bit12), nRST_STDBY(Bit13), nRST_SHDW(Bit14),
1181:Drivers/STM32L4xx_HAL_Driver/Src/stm32l4xx_hal_flash_ex.c ****   *         IWDG_SW(Bit16), IWDG_STOP(Bit17), IWDG_STDBY(Bit18), WWDG_SW(Bit19),
1182:Drivers/STM32L4xx_HAL_Driver/Src/stm32l4xx_hal_flash_ex.c ****   *         nBOOT1(Bit23), SRAM2_PE(Bit24), SRAM2_RST(Bit25), nSWBOOT0(Bit26) and nBOOT0(Bit27).
1183:Drivers/STM32L4xx_HAL_Driver/Src/stm32l4xx_hal_flash_ex.c ****   */
1184:Drivers/STM32L4xx_HAL_Driver/Src/stm32l4xx_hal_flash_ex.c **** static uint32_t FLASH_OB_GetUser(void)
1185:Drivers/STM32L4xx_HAL_Driver/Src/stm32l4xx_hal_flash_ex.c **** {
 205              		.loc 1 1185 0
 206              		.cfi_startproc
 207              		@ args = 0, pretend = 0, frame = 0
 208              		@ frame_needed = 0, uses_anonymous_args = 0
 209              		@ link register save eliminated.
1186:Drivers/STM32L4xx_HAL_Driver/Src/stm32l4xx_hal_flash_ex.c ****   uint32_t user_config = READ_REG(FLASH->OPTR);
 210              		.loc 1 1186 0
 211 0000 024B     		ldr	r3, .L24
 212 0002 186A     		ldr	r0, [r3, #32]
 213              	.LVL13:
1187:Drivers/STM32L4xx_HAL_Driver/Src/stm32l4xx_hal_flash_ex.c ****   CLEAR_BIT(user_config, FLASH_OPTR_RDP);
1188:Drivers/STM32L4xx_HAL_Driver/Src/stm32l4xx_hal_flash_ex.c **** 
1189:Drivers/STM32L4xx_HAL_Driver/Src/stm32l4xx_hal_flash_ex.c ****   return user_config;
1190:Drivers/STM32L4xx_HAL_Driver/Src/stm32l4xx_hal_flash_ex.c **** }
 214              		.loc 1 1190 0
 215 0004 20F0FF00 		bic	r0, r0, #255
 216              	.LVL14:
 217 0008 7047     		bx	lr
 218              	.L25:
 219 000a 00BF     		.align	2
 220              	.L24:
 221 000c 00200240 		.word	1073881088
 222              		.cfi_endproc
 223              	.LFE143:
 225              		.section	.text.FLASH_OB_GetPCROP,"ax",%progbits
 226              		.align	1
 227              		.syntax unified
 228              		.thumb
 229              		.thumb_func
 230              		.fpu fpv4-sp-d16
 232              	FLASH_OB_GetPCROP:
 233              	.LFB144:
1191:Drivers/STM32L4xx_HAL_Driver/Src/stm32l4xx_hal_flash_ex.c **** 
1192:Drivers/STM32L4xx_HAL_Driver/Src/stm32l4xx_hal_flash_ex.c **** /**
1193:Drivers/STM32L4xx_HAL_Driver/Src/stm32l4xx_hal_flash_ex.c ****   * @brief  Return the FLASH Write Protection Option Bytes value.
1194:Drivers/STM32L4xx_HAL_Driver/Src/stm32l4xx_hal_flash_ex.c ****   *
ARM GAS  C:\Users\hirot\AppData\Local\Temp\ccKvd7ca.s 			page 26


1195:Drivers/STM32L4xx_HAL_Driver/Src/stm32l4xx_hal_flash_ex.c ****   * @param PCROPConfig [inout]: specifies the configuration (Bank to be configured and PCROP_RDP op
1196:Drivers/STM32L4xx_HAL_Driver/Src/stm32l4xx_hal_flash_ex.c ****   *          This parameter must be a combination of FLASH_BANK_1 or FLASH_BANK_2
1197:Drivers/STM32L4xx_HAL_Driver/Src/stm32l4xx_hal_flash_ex.c ****   *          with OB_PCROP_RDP_NOT_ERASE or OB_PCROP_RDP_ERASE
1198:Drivers/STM32L4xx_HAL_Driver/Src/stm32l4xx_hal_flash_ex.c ****   *
1199:Drivers/STM32L4xx_HAL_Driver/Src/stm32l4xx_hal_flash_ex.c ****   * @param PCROPStartAddr [out]: specifies the address where to copied the start address
1200:Drivers/STM32L4xx_HAL_Driver/Src/stm32l4xx_hal_flash_ex.c ****   *                         of the Proprietary code readout protection
1201:Drivers/STM32L4xx_HAL_Driver/Src/stm32l4xx_hal_flash_ex.c ****   *
1202:Drivers/STM32L4xx_HAL_Driver/Src/stm32l4xx_hal_flash_ex.c ****   * @param PCROPEndAddr [out]: specifies the address where to copied the end address of
1203:Drivers/STM32L4xx_HAL_Driver/Src/stm32l4xx_hal_flash_ex.c ****   *                       the Proprietary code readout protection
1204:Drivers/STM32L4xx_HAL_Driver/Src/stm32l4xx_hal_flash_ex.c ****   *
1205:Drivers/STM32L4xx_HAL_Driver/Src/stm32l4xx_hal_flash_ex.c ****   * @retval None
1206:Drivers/STM32L4xx_HAL_Driver/Src/stm32l4xx_hal_flash_ex.c ****   */
1207:Drivers/STM32L4xx_HAL_Driver/Src/stm32l4xx_hal_flash_ex.c **** static void FLASH_OB_GetPCROP(uint32_t * PCROPConfig, uint32_t * PCROPStartAddr, uint32_t * PCROPEn
1208:Drivers/STM32L4xx_HAL_Driver/Src/stm32l4xx_hal_flash_ex.c **** {
 234              		.loc 1 1208 0
 235              		.cfi_startproc
 236              		@ args = 0, pretend = 0, frame = 0
 237              		@ frame_needed = 0, uses_anonymous_args = 0
 238              		@ link register save eliminated.
 239              	.LVL15:
 240 0000 70B4     		push	{r4, r5, r6}
 241              	.LCFI0:
 242              		.cfi_def_cfa_offset 12
 243              		.cfi_offset 4, -12
 244              		.cfi_offset 5, -8
 245              		.cfi_offset 6, -4
1209:Drivers/STM32L4xx_HAL_Driver/Src/stm32l4xx_hal_flash_ex.c ****   uint32_t reg_value;
1210:Drivers/STM32L4xx_HAL_Driver/Src/stm32l4xx_hal_flash_ex.c ****   uint32_t bank1_addr;
1211:Drivers/STM32L4xx_HAL_Driver/Src/stm32l4xx_hal_flash_ex.c **** #if defined (STM32L471xx) || defined (STM32L475xx) || defined (STM32L476xx) || defined (STM32L485xx
1212:Drivers/STM32L4xx_HAL_Driver/Src/stm32l4xx_hal_flash_ex.c ****     defined (STM32L496xx) || defined (STM32L4A6xx) || \
1213:Drivers/STM32L4xx_HAL_Driver/Src/stm32l4xx_hal_flash_ex.c ****     defined (STM32L4R5xx) || defined (STM32L4R7xx) || defined (STM32L4R9xx) || defined (STM32L4S5xx
1214:Drivers/STM32L4xx_HAL_Driver/Src/stm32l4xx_hal_flash_ex.c ****   uint32_t bank2_addr;
1215:Drivers/STM32L4xx_HAL_Driver/Src/stm32l4xx_hal_flash_ex.c **** #endif
1216:Drivers/STM32L4xx_HAL_Driver/Src/stm32l4xx_hal_flash_ex.c **** 
1217:Drivers/STM32L4xx_HAL_Driver/Src/stm32l4xx_hal_flash_ex.c **** #if defined (STM32L471xx) || defined (STM32L475xx) || defined (STM32L476xx) || defined (STM32L485xx
1218:Drivers/STM32L4xx_HAL_Driver/Src/stm32l4xx_hal_flash_ex.c ****     defined (STM32L496xx) || defined (STM32L4A6xx) || \
1219:Drivers/STM32L4xx_HAL_Driver/Src/stm32l4xx_hal_flash_ex.c ****     defined (STM32L4R5xx) || defined (STM32L4R7xx) || defined (STM32L4R9xx) || defined (STM32L4S5xx
1220:Drivers/STM32L4xx_HAL_Driver/Src/stm32l4xx_hal_flash_ex.c ****   /* Get the information about the bank swapping */
1221:Drivers/STM32L4xx_HAL_Driver/Src/stm32l4xx_hal_flash_ex.c ****   if (READ_BIT(SYSCFG->MEMRMP, SYSCFG_MEMRMP_FB_MODE) == 0U)
 246              		.loc 1 1221 0
 247 0002 2B4B     		ldr	r3, .L36
 248 0004 1B68     		ldr	r3, [r3]
 249 0006 13F4807F 		tst	r3, #256
 250 000a 1DD1     		bne	.L27
 251              	.LVL16:
1222:Drivers/STM32L4xx_HAL_Driver/Src/stm32l4xx_hal_flash_ex.c ****   {
1223:Drivers/STM32L4xx_HAL_Driver/Src/stm32l4xx_hal_flash_ex.c ****     bank1_addr = FLASH_BASE;
1224:Drivers/STM32L4xx_HAL_Driver/Src/stm32l4xx_hal_flash_ex.c ****     bank2_addr = FLASH_BASE + FLASH_BANK_SIZE;
 252              		.loc 1 1224 0
 253 000c 294B     		ldr	r3, .L36+4
 254 000e 1B68     		ldr	r3, [r3]
 255 0010 9DB2     		uxth	r5, r3
 256 0012 4FF6FF74 		movw	r4, #65535
 257 0016 A542     		cmp	r5, r4
 258 0018 25D0     		beq	.L31
 259              		.loc 1 1224 0 is_stmt 0 discriminator 1
 260 001a 274C     		ldr	r4, .L36+8
ARM GAS  C:\Users\hirot\AppData\Local\Temp\ccKvd7ca.s 			page 27


 261 001c 04EA4324 		and	r4, r4, r3, lsl #9
 262 0020 04F10064 		add	r4, r4, #134217728
1223:Drivers/STM32L4xx_HAL_Driver/Src/stm32l4xx_hal_flash_ex.c ****     bank2_addr = FLASH_BASE + FLASH_BANK_SIZE;
 263              		.loc 1 1223 0 is_stmt 1 discriminator 1
 264 0024 4FF00065 		mov	r5, #134217728
 265              	.LVL17:
 266              	.L28:
1225:Drivers/STM32L4xx_HAL_Driver/Src/stm32l4xx_hal_flash_ex.c ****   }
1226:Drivers/STM32L4xx_HAL_Driver/Src/stm32l4xx_hal_flash_ex.c ****   else
1227:Drivers/STM32L4xx_HAL_Driver/Src/stm32l4xx_hal_flash_ex.c ****   {
1228:Drivers/STM32L4xx_HAL_Driver/Src/stm32l4xx_hal_flash_ex.c ****     bank1_addr = FLASH_BASE + FLASH_BANK_SIZE;
1229:Drivers/STM32L4xx_HAL_Driver/Src/stm32l4xx_hal_flash_ex.c ****     bank2_addr = FLASH_BASE;
1230:Drivers/STM32L4xx_HAL_Driver/Src/stm32l4xx_hal_flash_ex.c ****   }
1231:Drivers/STM32L4xx_HAL_Driver/Src/stm32l4xx_hal_flash_ex.c **** #else
1232:Drivers/STM32L4xx_HAL_Driver/Src/stm32l4xx_hal_flash_ex.c ****   bank1_addr = FLASH_BASE;
1233:Drivers/STM32L4xx_HAL_Driver/Src/stm32l4xx_hal_flash_ex.c **** #endif
1234:Drivers/STM32L4xx_HAL_Driver/Src/stm32l4xx_hal_flash_ex.c **** 
1235:Drivers/STM32L4xx_HAL_Driver/Src/stm32l4xx_hal_flash_ex.c **** #if defined (STM32L4R5xx) || defined (STM32L4R7xx) || defined (STM32L4R9xx) || defined (STM32L4S5xx
1236:Drivers/STM32L4xx_HAL_Driver/Src/stm32l4xx_hal_flash_ex.c ****   if (READ_BIT(FLASH->OPTR, FLASH_OPTR_DBANK) == 0U)
1237:Drivers/STM32L4xx_HAL_Driver/Src/stm32l4xx_hal_flash_ex.c ****   {
1238:Drivers/STM32L4xx_HAL_Driver/Src/stm32l4xx_hal_flash_ex.c ****     if(((*PCROPConfig) & FLASH_BANK_BOTH) == FLASH_BANK_1)
1239:Drivers/STM32L4xx_HAL_Driver/Src/stm32l4xx_hal_flash_ex.c ****     {
1240:Drivers/STM32L4xx_HAL_Driver/Src/stm32l4xx_hal_flash_ex.c ****       reg_value       = (READ_REG(FLASH->PCROP1SR) & FLASH_PCROP1SR_PCROP1_STRT);
1241:Drivers/STM32L4xx_HAL_Driver/Src/stm32l4xx_hal_flash_ex.c ****       *PCROPStartAddr = (reg_value << 4) + FLASH_BASE;
1242:Drivers/STM32L4xx_HAL_Driver/Src/stm32l4xx_hal_flash_ex.c **** 
1243:Drivers/STM32L4xx_HAL_Driver/Src/stm32l4xx_hal_flash_ex.c ****       reg_value     = (READ_REG(FLASH->PCROP1ER) & FLASH_PCROP1ER_PCROP1_END);
1244:Drivers/STM32L4xx_HAL_Driver/Src/stm32l4xx_hal_flash_ex.c ****       *PCROPEndAddr = (reg_value << 4) + FLASH_BASE + 0xFU;
1245:Drivers/STM32L4xx_HAL_Driver/Src/stm32l4xx_hal_flash_ex.c ****     }
1246:Drivers/STM32L4xx_HAL_Driver/Src/stm32l4xx_hal_flash_ex.c ****     else if(((*PCROPConfig) & FLASH_BANK_BOTH) == FLASH_BANK_2)
1247:Drivers/STM32L4xx_HAL_Driver/Src/stm32l4xx_hal_flash_ex.c ****     {
1248:Drivers/STM32L4xx_HAL_Driver/Src/stm32l4xx_hal_flash_ex.c ****       reg_value       = (READ_REG(FLASH->PCROP2SR) & FLASH_PCROP2SR_PCROP2_STRT);
1249:Drivers/STM32L4xx_HAL_Driver/Src/stm32l4xx_hal_flash_ex.c ****       *PCROPStartAddr = (reg_value << 4) + FLASH_BASE;
1250:Drivers/STM32L4xx_HAL_Driver/Src/stm32l4xx_hal_flash_ex.c **** 
1251:Drivers/STM32L4xx_HAL_Driver/Src/stm32l4xx_hal_flash_ex.c ****       reg_value     = (READ_REG(FLASH->PCROP2ER) & FLASH_PCROP2ER_PCROP2_END);
1252:Drivers/STM32L4xx_HAL_Driver/Src/stm32l4xx_hal_flash_ex.c ****       *PCROPEndAddr = (reg_value << 4) + FLASH_BASE + 0xFU;;
1253:Drivers/STM32L4xx_HAL_Driver/Src/stm32l4xx_hal_flash_ex.c ****     }
1254:Drivers/STM32L4xx_HAL_Driver/Src/stm32l4xx_hal_flash_ex.c ****     else
1255:Drivers/STM32L4xx_HAL_Driver/Src/stm32l4xx_hal_flash_ex.c ****     {
1256:Drivers/STM32L4xx_HAL_Driver/Src/stm32l4xx_hal_flash_ex.c ****       /* Nothing to do */
1257:Drivers/STM32L4xx_HAL_Driver/Src/stm32l4xx_hal_flash_ex.c ****     }
1258:Drivers/STM32L4xx_HAL_Driver/Src/stm32l4xx_hal_flash_ex.c ****   }
1259:Drivers/STM32L4xx_HAL_Driver/Src/stm32l4xx_hal_flash_ex.c ****   else
1260:Drivers/STM32L4xx_HAL_Driver/Src/stm32l4xx_hal_flash_ex.c **** #endif
1261:Drivers/STM32L4xx_HAL_Driver/Src/stm32l4xx_hal_flash_ex.c ****   {
1262:Drivers/STM32L4xx_HAL_Driver/Src/stm32l4xx_hal_flash_ex.c ****     if(((*PCROPConfig) & FLASH_BANK_BOTH) == FLASH_BANK_1)
 267              		.loc 1 1262 0
 268 0028 0368     		ldr	r3, [r0]
 269 002a 03F00303 		and	r3, r3, #3
 270 002e 012B     		cmp	r3, #1
 271 0030 21D0     		beq	.L34
1263:Drivers/STM32L4xx_HAL_Driver/Src/stm32l4xx_hal_flash_ex.c ****     {
1264:Drivers/STM32L4xx_HAL_Driver/Src/stm32l4xx_hal_flash_ex.c ****       reg_value       = (READ_REG(FLASH->PCROP1SR) & FLASH_PCROP1SR_PCROP1_STRT);
1265:Drivers/STM32L4xx_HAL_Driver/Src/stm32l4xx_hal_flash_ex.c ****       *PCROPStartAddr = (reg_value << 3) + bank1_addr;
1266:Drivers/STM32L4xx_HAL_Driver/Src/stm32l4xx_hal_flash_ex.c **** 
1267:Drivers/STM32L4xx_HAL_Driver/Src/stm32l4xx_hal_flash_ex.c ****       reg_value     = (READ_REG(FLASH->PCROP1ER) & FLASH_PCROP1ER_PCROP1_END);
1268:Drivers/STM32L4xx_HAL_Driver/Src/stm32l4xx_hal_flash_ex.c ****       *PCROPEndAddr = (reg_value << 3) + bank1_addr + 0x7U;
1269:Drivers/STM32L4xx_HAL_Driver/Src/stm32l4xx_hal_flash_ex.c ****     }
ARM GAS  C:\Users\hirot\AppData\Local\Temp\ccKvd7ca.s 			page 28


1270:Drivers/STM32L4xx_HAL_Driver/Src/stm32l4xx_hal_flash_ex.c **** #if defined (STM32L471xx) || defined (STM32L475xx) || defined (STM32L476xx) || defined (STM32L485xx
1271:Drivers/STM32L4xx_HAL_Driver/Src/stm32l4xx_hal_flash_ex.c ****     defined (STM32L496xx) || defined (STM32L4A6xx) || \
1272:Drivers/STM32L4xx_HAL_Driver/Src/stm32l4xx_hal_flash_ex.c ****     defined (STM32L4R5xx) || defined (STM32L4R7xx) || defined (STM32L4R9xx) || defined (STM32L4S5xx
1273:Drivers/STM32L4xx_HAL_Driver/Src/stm32l4xx_hal_flash_ex.c ****     else if(((*PCROPConfig) & FLASH_BANK_BOTH) == FLASH_BANK_2)
 272              		.loc 1 1273 0
 273 0032 022B     		cmp	r3, #2
 274 0034 2DD0     		beq	.L35
 275              	.LVL18:
 276              	.L30:
1274:Drivers/STM32L4xx_HAL_Driver/Src/stm32l4xx_hal_flash_ex.c ****     {
1275:Drivers/STM32L4xx_HAL_Driver/Src/stm32l4xx_hal_flash_ex.c ****       reg_value       = (READ_REG(FLASH->PCROP2SR) & FLASH_PCROP2SR_PCROP2_STRT);
1276:Drivers/STM32L4xx_HAL_Driver/Src/stm32l4xx_hal_flash_ex.c ****       *PCROPStartAddr = (reg_value << 3) + bank2_addr;
1277:Drivers/STM32L4xx_HAL_Driver/Src/stm32l4xx_hal_flash_ex.c **** 
1278:Drivers/STM32L4xx_HAL_Driver/Src/stm32l4xx_hal_flash_ex.c ****       reg_value     = (READ_REG(FLASH->PCROP2ER) & FLASH_PCROP2ER_PCROP2_END);
1279:Drivers/STM32L4xx_HAL_Driver/Src/stm32l4xx_hal_flash_ex.c ****       *PCROPEndAddr = (reg_value << 3) + bank2_addr + 0x7U;
1280:Drivers/STM32L4xx_HAL_Driver/Src/stm32l4xx_hal_flash_ex.c ****     }
1281:Drivers/STM32L4xx_HAL_Driver/Src/stm32l4xx_hal_flash_ex.c **** #endif
1282:Drivers/STM32L4xx_HAL_Driver/Src/stm32l4xx_hal_flash_ex.c ****     else
1283:Drivers/STM32L4xx_HAL_Driver/Src/stm32l4xx_hal_flash_ex.c ****     {
1284:Drivers/STM32L4xx_HAL_Driver/Src/stm32l4xx_hal_flash_ex.c ****       /* Nothing to do */
1285:Drivers/STM32L4xx_HAL_Driver/Src/stm32l4xx_hal_flash_ex.c ****     }
1286:Drivers/STM32L4xx_HAL_Driver/Src/stm32l4xx_hal_flash_ex.c ****   }
1287:Drivers/STM32L4xx_HAL_Driver/Src/stm32l4xx_hal_flash_ex.c **** 
1288:Drivers/STM32L4xx_HAL_Driver/Src/stm32l4xx_hal_flash_ex.c ****   *PCROPConfig |= (READ_REG(FLASH->PCROP1ER) & FLASH_PCROP1ER_PCROP_RDP);
 277              		.loc 1 1288 0
 278 0036 214B     		ldr	r3, .L36+12
 279 0038 9A6A     		ldr	r2, [r3, #40]
 280              	.LVL19:
 281 003a 02F00042 		and	r2, r2, #-2147483648
 282 003e 0368     		ldr	r3, [r0]
 283 0040 1343     		orrs	r3, r3, r2
 284 0042 0360     		str	r3, [r0]
1289:Drivers/STM32L4xx_HAL_Driver/Src/stm32l4xx_hal_flash_ex.c **** }
 285              		.loc 1 1289 0
 286 0044 70BC     		pop	{r4, r5, r6}
 287              	.LCFI1:
 288              		.cfi_remember_state
 289              		.cfi_restore 6
 290              		.cfi_restore 5
 291              		.cfi_restore 4
 292              		.cfi_def_cfa_offset 0
 293 0046 7047     		bx	lr
 294              	.LVL20:
 295              	.L27:
 296              	.LCFI2:
 297              		.cfi_restore_state
1228:Drivers/STM32L4xx_HAL_Driver/Src/stm32l4xx_hal_flash_ex.c ****     bank2_addr = FLASH_BASE;
 298              		.loc 1 1228 0
 299 0048 1A4B     		ldr	r3, .L36+4
 300 004a 1B68     		ldr	r3, [r3]
 301 004c 9DB2     		uxth	r5, r3
 302 004e 4FF6FF74 		movw	r4, #65535
 303 0052 A542     		cmp	r5, r4
 304 0054 0BD0     		beq	.L32
1228:Drivers/STM32L4xx_HAL_Driver/Src/stm32l4xx_hal_flash_ex.c ****     bank2_addr = FLASH_BASE;
 305              		.loc 1 1228 0 is_stmt 0 discriminator 1
 306 0056 184D     		ldr	r5, .L36+8
ARM GAS  C:\Users\hirot\AppData\Local\Temp\ccKvd7ca.s 			page 29


 307 0058 05EA4325 		and	r5, r5, r3, lsl #9
 308 005c 05F10065 		add	r5, r5, #134217728
1229:Drivers/STM32L4xx_HAL_Driver/Src/stm32l4xx_hal_flash_ex.c ****   }
 309              		.loc 1 1229 0 is_stmt 1 discriminator 1
 310 0060 4FF00064 		mov	r4, #134217728
 311 0064 E0E7     		b	.L28
 312              	.LVL21:
 313              	.L31:
1224:Drivers/STM32L4xx_HAL_Driver/Src/stm32l4xx_hal_flash_ex.c ****   }
 314              		.loc 1 1224 0
 315 0066 164C     		ldr	r4, .L36+16
1223:Drivers/STM32L4xx_HAL_Driver/Src/stm32l4xx_hal_flash_ex.c ****     bank2_addr = FLASH_BASE + FLASH_BANK_SIZE;
 316              		.loc 1 1223 0
 317 0068 4FF00065 		mov	r5, #134217728
 318 006c DCE7     		b	.L28
 319              	.LVL22:
 320              	.L32:
1229:Drivers/STM32L4xx_HAL_Driver/Src/stm32l4xx_hal_flash_ex.c ****   }
 321              		.loc 1 1229 0
 322 006e 4FF00064 		mov	r4, #134217728
1228:Drivers/STM32L4xx_HAL_Driver/Src/stm32l4xx_hal_flash_ex.c ****     bank2_addr = FLASH_BASE;
 323              		.loc 1 1228 0
 324 0072 134D     		ldr	r5, .L36+16
 325 0074 D8E7     		b	.L28
 326              	.LVL23:
 327              	.L34:
1264:Drivers/STM32L4xx_HAL_Driver/Src/stm32l4xx_hal_flash_ex.c ****       *PCROPStartAddr = (reg_value << 3) + bank1_addr;
 328              		.loc 1 1264 0
 329 0076 114E     		ldr	r6, .L36+12
 330 0078 736A     		ldr	r3, [r6, #36]
 331              	.LVL24:
1265:Drivers/STM32L4xx_HAL_Driver/Src/stm32l4xx_hal_flash_ex.c **** 
 332              		.loc 1 1265 0
 333 007a 124C     		ldr	r4, .L36+20
 334              	.LVL25:
 335 007c 04EAC303 		and	r3, r4, r3, lsl #3
 336              	.LVL26:
 337 0080 2B44     		add	r3, r3, r5
 338 0082 0B60     		str	r3, [r1]
1267:Drivers/STM32L4xx_HAL_Driver/Src/stm32l4xx_hal_flash_ex.c ****       *PCROPEndAddr = (reg_value << 3) + bank1_addr + 0x7U;
 339              		.loc 1 1267 0
 340 0084 B36A     		ldr	r3, [r6, #40]
 341              	.LVL27:
1268:Drivers/STM32L4xx_HAL_Driver/Src/stm32l4xx_hal_flash_ex.c ****     }
 342              		.loc 1 1268 0
 343 0086 04EAC304 		and	r4, r4, r3, lsl #3
 344 008a 2544     		add	r5, r5, r4
 345              	.LVL28:
 346 008c 0735     		adds	r5, r5, #7
 347 008e 1560     		str	r5, [r2]
 348 0090 D1E7     		b	.L30
 349              	.LVL29:
 350              	.L35:
1275:Drivers/STM32L4xx_HAL_Driver/Src/stm32l4xx_hal_flash_ex.c ****       *PCROPStartAddr = (reg_value << 3) + bank2_addr;
 351              		.loc 1 1275 0
 352 0092 0A4E     		ldr	r6, .L36+12
 353 0094 736C     		ldr	r3, [r6, #68]
ARM GAS  C:\Users\hirot\AppData\Local\Temp\ccKvd7ca.s 			page 30


 354              	.LVL30:
1276:Drivers/STM32L4xx_HAL_Driver/Src/stm32l4xx_hal_flash_ex.c **** 
 355              		.loc 1 1276 0
 356 0096 0B4D     		ldr	r5, .L36+20
 357              	.LVL31:
 358 0098 05EAC303 		and	r3, r5, r3, lsl #3
 359              	.LVL32:
 360 009c 2344     		add	r3, r3, r4
 361 009e 0B60     		str	r3, [r1]
1278:Drivers/STM32L4xx_HAL_Driver/Src/stm32l4xx_hal_flash_ex.c ****       *PCROPEndAddr = (reg_value << 3) + bank2_addr + 0x7U;
 362              		.loc 1 1278 0
 363 00a0 B36C     		ldr	r3, [r6, #72]
 364              	.LVL33:
1279:Drivers/STM32L4xx_HAL_Driver/Src/stm32l4xx_hal_flash_ex.c ****     }
 365              		.loc 1 1279 0
 366 00a2 05EAC305 		and	r5, r5, r3, lsl #3
 367 00a6 2C44     		add	r4, r4, r5
 368              	.LVL34:
 369 00a8 0734     		adds	r4, r4, #7
 370 00aa 1460     		str	r4, [r2]
 371 00ac C3E7     		b	.L30
 372              	.L37:
 373 00ae 00BF     		.align	2
 374              	.L36:
 375 00b0 00000140 		.word	1073807360
 376 00b4 E075FF1F 		.word	536835552
 377 00b8 00FEFF01 		.word	33553920
 378 00bc 00200240 		.word	1073881088
 379 00c0 00000808 		.word	134742016
 380 00c4 F8FF0700 		.word	524280
 381              		.cfi_endproc
 382              	.LFE144:
 384              		.section	.text.FLASH_OB_WRPConfig,"ax",%progbits
 385              		.align	1
 386              		.syntax unified
 387              		.thumb
 388              		.thumb_func
 389              		.fpu fpv4-sp-d16
 391              	FLASH_OB_WRPConfig:
 392              	.LFB137:
 653:Drivers/STM32L4xx_HAL_Driver/Src/stm32l4xx_hal_flash_ex.c ****   HAL_StatusTypeDef status;
 393              		.loc 1 653 0
 394              		.cfi_startproc
 395              		@ args = 0, pretend = 0, frame = 0
 396              		@ frame_needed = 0, uses_anonymous_args = 0
 397              	.LVL35:
 398 0000 70B5     		push	{r4, r5, r6, lr}
 399              	.LCFI3:
 400              		.cfi_def_cfa_offset 16
 401              		.cfi_offset 4, -16
 402              		.cfi_offset 5, -12
 403              		.cfi_offset 6, -8
 404              		.cfi_offset 14, -4
 405 0002 0546     		mov	r5, r0
 406 0004 0C46     		mov	r4, r1
 407 0006 1646     		mov	r6, r2
 662:Drivers/STM32L4xx_HAL_Driver/Src/stm32l4xx_hal_flash_ex.c **** 
ARM GAS  C:\Users\hirot\AppData\Local\Temp\ccKvd7ca.s 			page 31


 408              		.loc 1 662 0
 409 0008 4CF25030 		movw	r0, #50000
 410              	.LVL36:
 411 000c FFF7FEFF 		bl	FLASH_WaitForLastOperation
 412              	.LVL37:
 664:Drivers/STM32L4xx_HAL_Driver/Src/stm32l4xx_hal_flash_ex.c ****   {
 413              		.loc 1 664 0
 414 0010 0346     		mov	r3, r0
 415 0012 B0B9     		cbnz	r0, .L39
 667:Drivers/STM32L4xx_HAL_Driver/Src/stm32l4xx_hal_flash_ex.c ****     {
 416              		.loc 1 667 0
 417 0014 BDB9     		cbnz	r5, .L40
 669:Drivers/STM32L4xx_HAL_Driver/Src/stm32l4xx_hal_flash_ex.c ****                  (WRPStartOffset | (WRDPEndOffset << 16)));
 418              		.loc 1 669 0
 419 0016 1C49     		ldr	r1, .L47
 420 0018 CB6A     		ldr	r3, [r1, #44]
 421 001a 03F0FF23 		and	r3, r3, #-16711936
 422 001e 44EA0644 		orr	r4, r4, r6, lsl #16
 423              	.LVL38:
 424 0022 1C43     		orrs	r4, r4, r3
 425 0024 CC62     		str	r4, [r1, #44]
 426              	.L41:
 697:Drivers/STM32L4xx_HAL_Driver/Src/stm32l4xx_hal_flash_ex.c **** 
 427              		.loc 1 697 0
 428 0026 184C     		ldr	r4, .L47
 429 0028 6369     		ldr	r3, [r4, #20]
 430 002a 43F40033 		orr	r3, r3, #131072
 431 002e 6361     		str	r3, [r4, #20]
 700:Drivers/STM32L4xx_HAL_Driver/Src/stm32l4xx_hal_flash_ex.c **** 
 432              		.loc 1 700 0
 433 0030 4CF25030 		movw	r0, #50000
 434              	.LVL39:
 435 0034 FFF7FEFF 		bl	FLASH_WaitForLastOperation
 436              	.LVL40:
 437 0038 0346     		mov	r3, r0
 438              	.LVL41:
 703:Drivers/STM32L4xx_HAL_Driver/Src/stm32l4xx_hal_flash_ex.c ****   }
 439              		.loc 1 703 0
 440 003a 6269     		ldr	r2, [r4, #20]
 441 003c 22F40032 		bic	r2, r2, #131072
 442 0040 6261     		str	r2, [r4, #20]
 443              	.LVL42:
 444              	.L39:
 707:Drivers/STM32L4xx_HAL_Driver/Src/stm32l4xx_hal_flash_ex.c **** 
 445              		.loc 1 707 0
 446 0042 1846     		mov	r0, r3
 447 0044 70BD     		pop	{r4, r5, r6, pc}
 448              	.LVL43:
 449              	.L40:
 672:Drivers/STM32L4xx_HAL_Driver/Src/stm32l4xx_hal_flash_ex.c ****     {
 450              		.loc 1 672 0
 451 0046 012D     		cmp	r5, #1
 452 0048 0CD0     		beq	.L45
 680:Drivers/STM32L4xx_HAL_Driver/Src/stm32l4xx_hal_flash_ex.c ****     {
 453              		.loc 1 680 0
 454 004a 022D     		cmp	r5, #2
 455 004c 13D0     		beq	.L46
ARM GAS  C:\Users\hirot\AppData\Local\Temp\ccKvd7ca.s 			page 32


 685:Drivers/STM32L4xx_HAL_Driver/Src/stm32l4xx_hal_flash_ex.c ****     {
 456              		.loc 1 685 0
 457 004e 042D     		cmp	r5, #4
 458 0050 E9D1     		bne	.L41
 687:Drivers/STM32L4xx_HAL_Driver/Src/stm32l4xx_hal_flash_ex.c ****                  (WRPStartOffset | (WRDPEndOffset << 16)));
 459              		.loc 1 687 0
 460 0052 0D4A     		ldr	r2, .L47
 461 0054 136D     		ldr	r3, [r2, #80]
 462 0056 03F0FF23 		and	r3, r3, #-16711936
 463 005a 44EA0644 		orr	r4, r4, r6, lsl #16
 464              	.LVL44:
 465 005e 1C43     		orrs	r4, r4, r3
 466 0060 1465     		str	r4, [r2, #80]
 467 0062 E0E7     		b	.L41
 468              	.LVL45:
 469              	.L45:
 674:Drivers/STM32L4xx_HAL_Driver/Src/stm32l4xx_hal_flash_ex.c ****                  (WRPStartOffset | (WRDPEndOffset << 16)));
 470              		.loc 1 674 0
 471 0064 084A     		ldr	r2, .L47
 472 0066 136B     		ldr	r3, [r2, #48]
 473 0068 03F0FF23 		and	r3, r3, #-16711936
 474 006c 44EA0644 		orr	r4, r4, r6, lsl #16
 475              	.LVL46:
 476 0070 1C43     		orrs	r4, r4, r3
 477 0072 1463     		str	r4, [r2, #48]
 478 0074 D7E7     		b	.L41
 479              	.LVL47:
 480              	.L46:
 682:Drivers/STM32L4xx_HAL_Driver/Src/stm32l4xx_hal_flash_ex.c ****                  (WRPStartOffset | (WRDPEndOffset << 16)));
 481              		.loc 1 682 0
 482 0076 044A     		ldr	r2, .L47
 483 0078 D36C     		ldr	r3, [r2, #76]
 484 007a 03F0FF23 		and	r3, r3, #-16711936
 485 007e 44EA0644 		orr	r4, r4, r6, lsl #16
 486              	.LVL48:
 487 0082 1C43     		orrs	r4, r4, r3
 488 0084 D464     		str	r4, [r2, #76]
 489 0086 CEE7     		b	.L41
 490              	.L48:
 491              		.align	2
 492              	.L47:
 493 0088 00200240 		.word	1073881088
 494              		.cfi_endproc
 495              	.LFE137:
 497              		.section	.text.FLASH_OB_RDPConfig,"ax",%progbits
 498              		.align	1
 499              		.syntax unified
 500              		.thumb
 501              		.thumb_func
 502              		.fpu fpv4-sp-d16
 504              	FLASH_OB_RDPConfig:
 505              	.LFB138:
 728:Drivers/STM32L4xx_HAL_Driver/Src/stm32l4xx_hal_flash_ex.c ****   HAL_StatusTypeDef status;
 506              		.loc 1 728 0
 507              		.cfi_startproc
 508              		@ args = 0, pretend = 0, frame = 0
 509              		@ frame_needed = 0, uses_anonymous_args = 0
ARM GAS  C:\Users\hirot\AppData\Local\Temp\ccKvd7ca.s 			page 33


 510              	.LVL49:
 511 0000 38B5     		push	{r3, r4, r5, lr}
 512              	.LCFI4:
 513              		.cfi_def_cfa_offset 16
 514              		.cfi_offset 3, -16
 515              		.cfi_offset 4, -12
 516              		.cfi_offset 5, -8
 517              		.cfi_offset 14, -4
 518 0002 0546     		mov	r5, r0
 735:Drivers/STM32L4xx_HAL_Driver/Src/stm32l4xx_hal_flash_ex.c **** 
 519              		.loc 1 735 0
 520 0004 4CF25030 		movw	r0, #50000
 521              	.LVL50:
 522 0008 FFF7FEFF 		bl	FLASH_WaitForLastOperation
 523              	.LVL51:
 737:Drivers/STM32L4xx_HAL_Driver/Src/stm32l4xx_hal_flash_ex.c ****   {
 524              		.loc 1 737 0
 525 000c 0346     		mov	r3, r0
 526 000e 08B1     		cbz	r0, .L52
 527              	.LVL52:
 528              	.L50:
 753:Drivers/STM32L4xx_HAL_Driver/Src/stm32l4xx_hal_flash_ex.c **** 
 529              		.loc 1 753 0
 530 0010 1846     		mov	r0, r3
 531 0012 38BD     		pop	{r3, r4, r5, pc}
 532              	.LVL53:
 533              	.L52:
 740:Drivers/STM32L4xx_HAL_Driver/Src/stm32l4xx_hal_flash_ex.c **** 
 534              		.loc 1 740 0
 535 0014 094C     		ldr	r4, .L53
 536 0016 206A     		ldr	r0, [r4, #32]
 537              	.LVL54:
 538 0018 20F0FF00 		bic	r0, r0, #255
 539 001c 2843     		orrs	r0, r0, r5
 540 001e 2062     		str	r0, [r4, #32]
 743:Drivers/STM32L4xx_HAL_Driver/Src/stm32l4xx_hal_flash_ex.c **** 
 541              		.loc 1 743 0
 542 0020 6369     		ldr	r3, [r4, #20]
 543 0022 43F40033 		orr	r3, r3, #131072
 544 0026 6361     		str	r3, [r4, #20]
 746:Drivers/STM32L4xx_HAL_Driver/Src/stm32l4xx_hal_flash_ex.c **** 
 545              		.loc 1 746 0
 546 0028 4CF25030 		movw	r0, #50000
 547 002c FFF7FEFF 		bl	FLASH_WaitForLastOperation
 548              	.LVL55:
 549 0030 0346     		mov	r3, r0
 550              	.LVL56:
 749:Drivers/STM32L4xx_HAL_Driver/Src/stm32l4xx_hal_flash_ex.c ****   }
 551              		.loc 1 749 0
 552 0032 6269     		ldr	r2, [r4, #20]
 553 0034 22F40032 		bic	r2, r2, #131072
 554 0038 6261     		str	r2, [r4, #20]
 555 003a E9E7     		b	.L50
 556              	.L54:
 557              		.align	2
 558              	.L53:
 559 003c 00200240 		.word	1073881088
ARM GAS  C:\Users\hirot\AppData\Local\Temp\ccKvd7ca.s 			page 34


 560              		.cfi_endproc
 561              	.LFE138:
 563              		.section	.text.FLASH_OB_UserConfig,"ax",%progbits
 564              		.align	1
 565              		.syntax unified
 566              		.thumb
 567              		.thumb_func
 568              		.fpu fpv4-sp-d16
 570              	FLASH_OB_UserConfig:
 571              	.LFB139:
 772:Drivers/STM32L4xx_HAL_Driver/Src/stm32l4xx_hal_flash_ex.c ****   uint32_t optr_reg_val = 0;
 572              		.loc 1 772 0
 573              		.cfi_startproc
 574              		@ args = 0, pretend = 0, frame = 0
 575              		@ frame_needed = 0, uses_anonymous_args = 0
 576              	.LVL57:
 577 0000 38B5     		push	{r3, r4, r5, lr}
 578              	.LCFI5:
 579              		.cfi_def_cfa_offset 16
 580              		.cfi_offset 3, -16
 581              		.cfi_offset 4, -12
 582              		.cfi_offset 5, -8
 583              		.cfi_offset 14, -4
 584 0002 0446     		mov	r4, r0
 585 0004 0D46     		mov	r5, r1
 586              	.LVL58:
 781:Drivers/STM32L4xx_HAL_Driver/Src/stm32l4xx_hal_flash_ex.c **** 
 587              		.loc 1 781 0
 588 0006 4CF25030 		movw	r0, #50000
 589              	.LVL59:
 590 000a FFF7FEFF 		bl	FLASH_WaitForLastOperation
 591              	.LVL60:
 783:Drivers/STM32L4xx_HAL_Driver/Src/stm32l4xx_hal_flash_ex.c ****   {
 592              		.loc 1 783 0
 593 000e 0346     		mov	r3, r0
 594 0010 0028     		cmp	r0, #0
 595 0012 79D1     		bne	.L56
 785:Drivers/STM32L4xx_HAL_Driver/Src/stm32l4xx_hal_flash_ex.c ****     {
 596              		.loc 1 785 0
 597 0014 14F0010F 		tst	r4, #1
 598 0018 78D0     		beq	.L70
 791:Drivers/STM32L4xx_HAL_Driver/Src/stm32l4xx_hal_flash_ex.c ****       optr_reg_mask |= FLASH_OPTR_BOR_LEV;
 599              		.loc 1 791 0
 600 001a 05F4E063 		and	r3, r5, #1792
 601              	.LVL61:
 792:Drivers/STM32L4xx_HAL_Driver/Src/stm32l4xx_hal_flash_ex.c ****     }
 602              		.loc 1 792 0
 603 001e 4FF4E062 		mov	r2, #1792
 604              	.LVL62:
 605              	.L57:
 795:Drivers/STM32L4xx_HAL_Driver/Src/stm32l4xx_hal_flash_ex.c ****     {
 606              		.loc 1 795 0
 607 0022 14F0020F 		tst	r4, #2
 608 0026 04D0     		beq	.L58
 801:Drivers/STM32L4xx_HAL_Driver/Src/stm32l4xx_hal_flash_ex.c ****       optr_reg_mask |= FLASH_OPTR_nRST_STOP;
 609              		.loc 1 801 0
 610 0028 05F48051 		and	r1, r5, #4096
ARM GAS  C:\Users\hirot\AppData\Local\Temp\ccKvd7ca.s 			page 35


 611 002c 0B43     		orrs	r3, r3, r1
 612              	.LVL63:
 802:Drivers/STM32L4xx_HAL_Driver/Src/stm32l4xx_hal_flash_ex.c ****     }
 613              		.loc 1 802 0
 614 002e 42F48052 		orr	r2, r2, #4096
 615              	.LVL64:
 616              	.L58:
 805:Drivers/STM32L4xx_HAL_Driver/Src/stm32l4xx_hal_flash_ex.c ****     {
 617              		.loc 1 805 0
 618 0032 14F0040F 		tst	r4, #4
 619 0036 04D0     		beq	.L59
 811:Drivers/STM32L4xx_HAL_Driver/Src/stm32l4xx_hal_flash_ex.c ****       optr_reg_mask |= FLASH_OPTR_nRST_STDBY;
 620              		.loc 1 811 0
 621 0038 05F40051 		and	r1, r5, #8192
 622 003c 0B43     		orrs	r3, r3, r1
 623              	.LVL65:
 812:Drivers/STM32L4xx_HAL_Driver/Src/stm32l4xx_hal_flash_ex.c ****     }
 624              		.loc 1 812 0
 625 003e 42F40052 		orr	r2, r2, #8192
 626              	.LVL66:
 627              	.L59:
 815:Drivers/STM32L4xx_HAL_Driver/Src/stm32l4xx_hal_flash_ex.c ****     {
 628              		.loc 1 815 0
 629 0042 14F4805F 		tst	r4, #4096
 630 0046 04D0     		beq	.L60
 821:Drivers/STM32L4xx_HAL_Driver/Src/stm32l4xx_hal_flash_ex.c ****       optr_reg_mask |= FLASH_OPTR_nRST_SHDW;
 631              		.loc 1 821 0
 632 0048 05F48041 		and	r1, r5, #16384
 633 004c 0B43     		orrs	r3, r3, r1
 634              	.LVL67:
 822:Drivers/STM32L4xx_HAL_Driver/Src/stm32l4xx_hal_flash_ex.c ****     }
 635              		.loc 1 822 0
 636 004e 42F48042 		orr	r2, r2, #16384
 637              	.LVL68:
 638              	.L60:
 825:Drivers/STM32L4xx_HAL_Driver/Src/stm32l4xx_hal_flash_ex.c ****     {
 639              		.loc 1 825 0
 640 0052 14F0080F 		tst	r4, #8
 641 0056 04D0     		beq	.L61
 831:Drivers/STM32L4xx_HAL_Driver/Src/stm32l4xx_hal_flash_ex.c ****       optr_reg_mask |= FLASH_OPTR_IWDG_SW;
 642              		.loc 1 831 0
 643 0058 05F48031 		and	r1, r5, #65536
 644 005c 0B43     		orrs	r3, r3, r1
 645              	.LVL69:
 832:Drivers/STM32L4xx_HAL_Driver/Src/stm32l4xx_hal_flash_ex.c ****     }
 646              		.loc 1 832 0
 647 005e 42F48032 		orr	r2, r2, #65536
 648              	.LVL70:
 649              	.L61:
 835:Drivers/STM32L4xx_HAL_Driver/Src/stm32l4xx_hal_flash_ex.c ****     {
 650              		.loc 1 835 0
 651 0062 14F0100F 		tst	r4, #16
 652 0066 04D0     		beq	.L62
 841:Drivers/STM32L4xx_HAL_Driver/Src/stm32l4xx_hal_flash_ex.c ****       optr_reg_mask |= FLASH_OPTR_IWDG_STOP;
 653              		.loc 1 841 0
 654 0068 05F40031 		and	r1, r5, #131072
 655 006c 0B43     		orrs	r3, r3, r1
ARM GAS  C:\Users\hirot\AppData\Local\Temp\ccKvd7ca.s 			page 36


 656              	.LVL71:
 842:Drivers/STM32L4xx_HAL_Driver/Src/stm32l4xx_hal_flash_ex.c ****     }
 657              		.loc 1 842 0
 658 006e 42F40032 		orr	r2, r2, #131072
 659              	.LVL72:
 660              	.L62:
 845:Drivers/STM32L4xx_HAL_Driver/Src/stm32l4xx_hal_flash_ex.c ****     {
 661              		.loc 1 845 0
 662 0072 14F0200F 		tst	r4, #32
 663 0076 04D0     		beq	.L63
 851:Drivers/STM32L4xx_HAL_Driver/Src/stm32l4xx_hal_flash_ex.c ****       optr_reg_mask |= FLASH_OPTR_IWDG_STDBY;
 664              		.loc 1 851 0
 665 0078 05F48021 		and	r1, r5, #262144
 666 007c 0B43     		orrs	r3, r3, r1
 667              	.LVL73:
 852:Drivers/STM32L4xx_HAL_Driver/Src/stm32l4xx_hal_flash_ex.c ****     }
 668              		.loc 1 852 0
 669 007e 42F48022 		orr	r2, r2, #262144
 670              	.LVL74:
 671              	.L63:
 855:Drivers/STM32L4xx_HAL_Driver/Src/stm32l4xx_hal_flash_ex.c ****     {
 672              		.loc 1 855 0
 673 0082 14F0400F 		tst	r4, #64
 674 0086 04D0     		beq	.L64
 861:Drivers/STM32L4xx_HAL_Driver/Src/stm32l4xx_hal_flash_ex.c ****       optr_reg_mask |= FLASH_OPTR_WWDG_SW;
 675              		.loc 1 861 0
 676 0088 05F40021 		and	r1, r5, #524288
 677 008c 0B43     		orrs	r3, r3, r1
 678              	.LVL75:
 862:Drivers/STM32L4xx_HAL_Driver/Src/stm32l4xx_hal_flash_ex.c ****     }
 679              		.loc 1 862 0
 680 008e 42F40022 		orr	r2, r2, #524288
 681              	.LVL76:
 682              	.L64:
 868:Drivers/STM32L4xx_HAL_Driver/Src/stm32l4xx_hal_flash_ex.c ****     {
 683              		.loc 1 868 0
 684 0092 14F0800F 		tst	r4, #128
 685 0096 04D0     		beq	.L65
 874:Drivers/STM32L4xx_HAL_Driver/Src/stm32l4xx_hal_flash_ex.c ****       optr_reg_mask |= FLASH_OPTR_BFB2;
 686              		.loc 1 874 0
 687 0098 05F48011 		and	r1, r5, #1048576
 688 009c 0B43     		orrs	r3, r3, r1
 689              	.LVL77:
 875:Drivers/STM32L4xx_HAL_Driver/Src/stm32l4xx_hal_flash_ex.c ****     }
 690              		.loc 1 875 0
 691 009e 42F48012 		orr	r2, r2, #1048576
 692              	.LVL78:
 693              	.L65:
 878:Drivers/STM32L4xx_HAL_Driver/Src/stm32l4xx_hal_flash_ex.c ****     {
 694              		.loc 1 878 0
 695 00a2 14F4807F 		tst	r4, #256
 696 00a6 04D0     		beq	.L66
 892:Drivers/STM32L4xx_HAL_Driver/Src/stm32l4xx_hal_flash_ex.c ****       optr_reg_mask |= FLASH_OPTR_DUALBANK;
 697              		.loc 1 892 0
 698 00a8 05F40011 		and	r1, r5, #2097152
 699 00ac 0B43     		orrs	r3, r3, r1
 700              	.LVL79:
ARM GAS  C:\Users\hirot\AppData\Local\Temp\ccKvd7ca.s 			page 37


 893:Drivers/STM32L4xx_HAL_Driver/Src/stm32l4xx_hal_flash_ex.c **** #endif
 701              		.loc 1 893 0
 702 00ae 42F40012 		orr	r2, r2, #2097152
 703              	.LVL80:
 704              	.L66:
 898:Drivers/STM32L4xx_HAL_Driver/Src/stm32l4xx_hal_flash_ex.c ****     {
 705              		.loc 1 898 0
 706 00b2 14F4007F 		tst	r4, #512
 707 00b6 04D0     		beq	.L67
 904:Drivers/STM32L4xx_HAL_Driver/Src/stm32l4xx_hal_flash_ex.c ****       optr_reg_mask |= FLASH_OPTR_nBOOT1;
 708              		.loc 1 904 0
 709 00b8 05F40001 		and	r1, r5, #8388608
 710 00bc 0B43     		orrs	r3, r3, r1
 711              	.LVL81:
 905:Drivers/STM32L4xx_HAL_Driver/Src/stm32l4xx_hal_flash_ex.c ****     }
 712              		.loc 1 905 0
 713 00be 42F40002 		orr	r2, r2, #8388608
 714              	.LVL82:
 715              	.L67:
 908:Drivers/STM32L4xx_HAL_Driver/Src/stm32l4xx_hal_flash_ex.c ****     {
 716              		.loc 1 908 0
 717 00c2 14F4806F 		tst	r4, #1024
 718 00c6 04D0     		beq	.L68
 914:Drivers/STM32L4xx_HAL_Driver/Src/stm32l4xx_hal_flash_ex.c ****       optr_reg_mask |= FLASH_OPTR_SRAM2_PE;
 719              		.loc 1 914 0
 720 00c8 05F08071 		and	r1, r5, #16777216
 721 00cc 0B43     		orrs	r3, r3, r1
 722              	.LVL83:
 915:Drivers/STM32L4xx_HAL_Driver/Src/stm32l4xx_hal_flash_ex.c ****     }
 723              		.loc 1 915 0
 724 00ce 42F08072 		orr	r2, r2, #16777216
 725              	.LVL84:
 726              	.L68:
 918:Drivers/STM32L4xx_HAL_Driver/Src/stm32l4xx_hal_flash_ex.c ****     {
 727              		.loc 1 918 0
 728 00d2 14F4006F 		tst	r4, #2048
 729 00d6 04D0     		beq	.L69
 924:Drivers/STM32L4xx_HAL_Driver/Src/stm32l4xx_hal_flash_ex.c ****       optr_reg_mask |= FLASH_OPTR_SRAM2_RST;
 730              		.loc 1 924 0
 731 00d8 05F00075 		and	r5, r5, #33554432
 732              	.LVL85:
 733 00dc 2B43     		orrs	r3, r3, r5
 734              	.LVL86:
 925:Drivers/STM32L4xx_HAL_Driver/Src/stm32l4xx_hal_flash_ex.c ****     }
 735              		.loc 1 925 0
 736 00de 42F00072 		orr	r2, r2, #33554432
 737              	.LVL87:
 738              	.L69:
 954:Drivers/STM32L4xx_HAL_Driver/Src/stm32l4xx_hal_flash_ex.c **** 
 739              		.loc 1 954 0
 740 00e2 0C4C     		ldr	r4, .L72
 741              	.LVL88:
 742 00e4 216A     		ldr	r1, [r4, #32]
 743 00e6 21EA0202 		bic	r2, r1, r2
 744              	.LVL89:
 745 00ea 1343     		orrs	r3, r3, r2
 746              	.LVL90:
ARM GAS  C:\Users\hirot\AppData\Local\Temp\ccKvd7ca.s 			page 38


 747 00ec 2362     		str	r3, [r4, #32]
 957:Drivers/STM32L4xx_HAL_Driver/Src/stm32l4xx_hal_flash_ex.c **** 
 748              		.loc 1 957 0
 749 00ee 6369     		ldr	r3, [r4, #20]
 750 00f0 43F40033 		orr	r3, r3, #131072
 751 00f4 6361     		str	r3, [r4, #20]
 960:Drivers/STM32L4xx_HAL_Driver/Src/stm32l4xx_hal_flash_ex.c **** 
 752              		.loc 1 960 0
 753 00f6 4CF25030 		movw	r0, #50000
 754              	.LVL91:
 755 00fa FFF7FEFF 		bl	FLASH_WaitForLastOperation
 756              	.LVL92:
 757 00fe 0346     		mov	r3, r0
 758              	.LVL93:
 963:Drivers/STM32L4xx_HAL_Driver/Src/stm32l4xx_hal_flash_ex.c ****   }
 759              		.loc 1 963 0
 760 0100 6269     		ldr	r2, [r4, #20]
 761 0102 22F40032 		bic	r2, r2, #131072
 762 0106 6261     		str	r2, [r4, #20]
 763              	.LVL94:
 764              	.L56:
 967:Drivers/STM32L4xx_HAL_Driver/Src/stm32l4xx_hal_flash_ex.c **** 
 765              		.loc 1 967 0
 766 0108 1846     		mov	r0, r3
 767 010a 38BD     		pop	{r3, r4, r5, pc}
 768              	.LVL95:
 769              	.L70:
 774:Drivers/STM32L4xx_HAL_Driver/Src/stm32l4xx_hal_flash_ex.c ****   HAL_StatusTypeDef status;
 770              		.loc 1 774 0
 771 010c 0022     		movs	r2, #0
 773:Drivers/STM32L4xx_HAL_Driver/Src/stm32l4xx_hal_flash_ex.c ****   uint32_t optr_reg_mask = 0;
 772              		.loc 1 773 0
 773 010e 1346     		mov	r3, r2
 774 0110 87E7     		b	.L57
 775              	.L73:
 776 0112 00BF     		.align	2
 777              	.L72:
 778 0114 00200240 		.word	1073881088
 779              		.cfi_endproc
 780              	.LFE139:
 782              		.section	.text.FLASH_OB_PCROPConfig,"ax",%progbits
 783              		.align	1
 784              		.syntax unified
 785              		.thumb
 786              		.thumb_func
 787              		.fpu fpv4-sp-d16
 789              	FLASH_OB_PCROPConfig:
 790              	.LFB140:
 990:Drivers/STM32L4xx_HAL_Driver/Src/stm32l4xx_hal_flash_ex.c ****   HAL_StatusTypeDef status;
 791              		.loc 1 990 0
 792              		.cfi_startproc
 793              		@ args = 0, pretend = 0, frame = 0
 794              		@ frame_needed = 0, uses_anonymous_args = 0
 795              	.LVL96:
 796 0000 70B5     		push	{r4, r5, r6, lr}
 797              	.LCFI6:
 798              		.cfi_def_cfa_offset 16
ARM GAS  C:\Users\hirot\AppData\Local\Temp\ccKvd7ca.s 			page 39


 799              		.cfi_offset 4, -16
 800              		.cfi_offset 5, -12
 801              		.cfi_offset 6, -8
 802              		.cfi_offset 14, -4
 803 0002 0546     		mov	r5, r0
 804 0004 0C46     		mov	r4, r1
 805 0006 1646     		mov	r6, r2
1007:Drivers/STM32L4xx_HAL_Driver/Src/stm32l4xx_hal_flash_ex.c **** 
 806              		.loc 1 1007 0
 807 0008 4CF25030 		movw	r0, #50000
 808              	.LVL97:
 809 000c FFF7FEFF 		bl	FLASH_WaitForLastOperation
 810              	.LVL98:
1009:Drivers/STM32L4xx_HAL_Driver/Src/stm32l4xx_hal_flash_ex.c ****   {
 811              		.loc 1 1009 0
 812 0010 0346     		mov	r3, r0
 813 0012 68BB     		cbnz	r0, .L75
1015:Drivers/STM32L4xx_HAL_Driver/Src/stm32l4xx_hal_flash_ex.c ****     {
 814              		.loc 1 1015 0
 815 0014 334B     		ldr	r3, .L85
 816 0016 1B68     		ldr	r3, [r3]
 817 0018 13F4807F 		tst	r3, #256
 818 001c 2AD1     		bne	.L76
 819              	.LVL99:
1018:Drivers/STM32L4xx_HAL_Driver/Src/stm32l4xx_hal_flash_ex.c ****     }
 820              		.loc 1 1018 0
 821 001e 324B     		ldr	r3, .L85+4
 822 0020 1A68     		ldr	r2, [r3]
 823 0022 91B2     		uxth	r1, r2
 824 0024 4FF6FF73 		movw	r3, #65535
 825 0028 9942     		cmp	r1, r3
 826 002a 32D0     		beq	.L80
1018:Drivers/STM32L4xx_HAL_Driver/Src/stm32l4xx_hal_flash_ex.c ****     }
 827              		.loc 1 1018 0 is_stmt 0 discriminator 1
 828 002c 2F4B     		ldr	r3, .L85+8
 829 002e 03EA4223 		and	r3, r3, r2, lsl #9
 830 0032 03F10063 		add	r3, r3, #134217728
1017:Drivers/STM32L4xx_HAL_Driver/Src/stm32l4xx_hal_flash_ex.c ****       bank2_addr = FLASH_BASE + FLASH_BANK_SIZE;
 831              		.loc 1 1017 0 is_stmt 1 discriminator 1
 832 0036 4FF00062 		mov	r2, #134217728
 833              	.LVL100:
 834              	.L77:
1058:Drivers/STM32L4xx_HAL_Driver/Src/stm32l4xx_hal_flash_ex.c ****       {
 835              		.loc 1 1058 0
 836 003a 05F00301 		and	r1, r5, #3
 837 003e 0129     		cmp	r1, #1
 838 0040 2FD0     		beq	.L83
1069:Drivers/STM32L4xx_HAL_Driver/Src/stm32l4xx_hal_flash_ex.c ****       {
 839              		.loc 1 1069 0
 840 0042 0229     		cmp	r1, #2
 841 0044 3DD0     		beq	.L84
 842              	.LVL101:
 843              	.L79:
1084:Drivers/STM32L4xx_HAL_Driver/Src/stm32l4xx_hal_flash_ex.c **** 
 844              		.loc 1 1084 0
 845 0046 2A4C     		ldr	r4, .L85+12
 846 0048 A06A     		ldr	r0, [r4, #40]
ARM GAS  C:\Users\hirot\AppData\Local\Temp\ccKvd7ca.s 			page 40


 847              	.LVL102:
 848 004a 20F00040 		bic	r0, r0, #-2147483648
 849 004e 05F00045 		and	r5, r5, #-2147483648
 850              	.LVL103:
 851 0052 2843     		orrs	r0, r0, r5
 852 0054 A062     		str	r0, [r4, #40]
1087:Drivers/STM32L4xx_HAL_Driver/Src/stm32l4xx_hal_flash_ex.c **** 
 853              		.loc 1 1087 0
 854 0056 6369     		ldr	r3, [r4, #20]
 855 0058 43F40033 		orr	r3, r3, #131072
 856 005c 6361     		str	r3, [r4, #20]
1090:Drivers/STM32L4xx_HAL_Driver/Src/stm32l4xx_hal_flash_ex.c **** 
 857              		.loc 1 1090 0
 858 005e 4CF25030 		movw	r0, #50000
 859 0062 FFF7FEFF 		bl	FLASH_WaitForLastOperation
 860              	.LVL104:
 861 0066 0346     		mov	r3, r0
 862              	.LVL105:
1093:Drivers/STM32L4xx_HAL_Driver/Src/stm32l4xx_hal_flash_ex.c ****   }
 863              		.loc 1 1093 0
 864 0068 6269     		ldr	r2, [r4, #20]
 865 006a 22F40032 		bic	r2, r2, #131072
 866 006e 6261     		str	r2, [r4, #20]
 867              	.LVL106:
 868              	.L75:
1097:Drivers/STM32L4xx_HAL_Driver/Src/stm32l4xx_hal_flash_ex.c **** 
 869              		.loc 1 1097 0
 870 0070 1846     		mov	r0, r3
 871 0072 70BD     		pop	{r4, r5, r6, pc}
 872              	.LVL107:
 873              	.L76:
1022:Drivers/STM32L4xx_HAL_Driver/Src/stm32l4xx_hal_flash_ex.c ****       bank2_addr = FLASH_BASE;
 874              		.loc 1 1022 0
 875 0074 1C4B     		ldr	r3, .L85+4
 876 0076 1B68     		ldr	r3, [r3]
 877 0078 99B2     		uxth	r1, r3
 878 007a 4FF6FF72 		movw	r2, #65535
 879 007e 9142     		cmp	r1, r2
 880 0080 0BD0     		beq	.L81
1022:Drivers/STM32L4xx_HAL_Driver/Src/stm32l4xx_hal_flash_ex.c ****       bank2_addr = FLASH_BASE;
 881              		.loc 1 1022 0 is_stmt 0 discriminator 1
 882 0082 1A4A     		ldr	r2, .L85+8
 883 0084 02EA4322 		and	r2, r2, r3, lsl #9
 884 0088 02F10062 		add	r2, r2, #134217728
1023:Drivers/STM32L4xx_HAL_Driver/Src/stm32l4xx_hal_flash_ex.c ****     }
 885              		.loc 1 1023 0 is_stmt 1 discriminator 1
 886 008c 4FF00063 		mov	r3, #134217728
 887 0090 D3E7     		b	.L77
 888              	.LVL108:
 889              	.L80:
1018:Drivers/STM32L4xx_HAL_Driver/Src/stm32l4xx_hal_flash_ex.c ****     }
 890              		.loc 1 1018 0
 891 0092 184B     		ldr	r3, .L85+16
1017:Drivers/STM32L4xx_HAL_Driver/Src/stm32l4xx_hal_flash_ex.c ****       bank2_addr = FLASH_BASE + FLASH_BANK_SIZE;
 892              		.loc 1 1017 0
 893 0094 4FF00062 		mov	r2, #134217728
 894 0098 CFE7     		b	.L77
ARM GAS  C:\Users\hirot\AppData\Local\Temp\ccKvd7ca.s 			page 41


 895              	.LVL109:
 896              	.L81:
1023:Drivers/STM32L4xx_HAL_Driver/Src/stm32l4xx_hal_flash_ex.c ****     }
 897              		.loc 1 1023 0
 898 009a 4FF00063 		mov	r3, #134217728
1022:Drivers/STM32L4xx_HAL_Driver/Src/stm32l4xx_hal_flash_ex.c ****       bank2_addr = FLASH_BASE;
 899              		.loc 1 1022 0
 900 009e 154A     		ldr	r2, .L85+16
 901 00a0 CBE7     		b	.L77
 902              	.LVL110:
 903              	.L83:
1060:Drivers/STM32L4xx_HAL_Driver/Src/stm32l4xx_hal_flash_ex.c ****         MODIFY_REG(FLASH->PCROP1SR, FLASH_PCROP1SR_PCROP1_STRT, reg_value);
 904              		.loc 1 1060 0
 905 00a2 A41A     		subs	r4, r4, r2
 906              	.LVL111:
1061:Drivers/STM32L4xx_HAL_Driver/Src/stm32l4xx_hal_flash_ex.c **** 
 907              		.loc 1 1061 0
 908 00a4 1249     		ldr	r1, .L85+12
 909 00a6 4B6A     		ldr	r3, [r1, #36]
 910              	.LVL112:
 911 00a8 1B0C     		lsrs	r3, r3, #16
 912 00aa 1B04     		lsls	r3, r3, #16
 913 00ac 43EAD403 		orr	r3, r3, r4, lsr #3
 914 00b0 4B62     		str	r3, [r1, #36]
1063:Drivers/STM32L4xx_HAL_Driver/Src/stm32l4xx_hal_flash_ex.c ****         MODIFY_REG(FLASH->PCROP1ER, FLASH_PCROP1ER_PCROP1_END, reg_value);
 915              		.loc 1 1063 0
 916 00b2 B21A     		subs	r2, r6, r2
 917              	.LVL113:
1064:Drivers/STM32L4xx_HAL_Driver/Src/stm32l4xx_hal_flash_ex.c ****       }
 918              		.loc 1 1064 0
 919 00b4 8B6A     		ldr	r3, [r1, #40]
 920 00b6 1B0C     		lsrs	r3, r3, #16
 921 00b8 1B04     		lsls	r3, r3, #16
 922 00ba 43EAD202 		orr	r2, r3, r2, lsr #3
 923              	.LVL114:
 924 00be 8A62     		str	r2, [r1, #40]
 925 00c0 C1E7     		b	.L79
 926              	.LVL115:
 927              	.L84:
1071:Drivers/STM32L4xx_HAL_Driver/Src/stm32l4xx_hal_flash_ex.c ****         MODIFY_REG(FLASH->PCROP2SR, FLASH_PCROP2SR_PCROP2_STRT, reg_value);
 928              		.loc 1 1071 0
 929 00c2 E41A     		subs	r4, r4, r3
 930              	.LVL116:
1072:Drivers/STM32L4xx_HAL_Driver/Src/stm32l4xx_hal_flash_ex.c **** 
 931              		.loc 1 1072 0
 932 00c4 0A49     		ldr	r1, .L85+12
 933 00c6 4A6C     		ldr	r2, [r1, #68]
 934              	.LVL117:
 935 00c8 120C     		lsrs	r2, r2, #16
 936 00ca 1204     		lsls	r2, r2, #16
 937 00cc 42EAD404 		orr	r4, r2, r4, lsr #3
 938              	.LVL118:
 939 00d0 4C64     		str	r4, [r1, #68]
1074:Drivers/STM32L4xx_HAL_Driver/Src/stm32l4xx_hal_flash_ex.c ****         MODIFY_REG(FLASH->PCROP2ER, FLASH_PCROP2ER_PCROP2_END, reg_value);
 940              		.loc 1 1074 0
 941 00d2 F21A     		subs	r2, r6, r3
 942              	.LVL119:
ARM GAS  C:\Users\hirot\AppData\Local\Temp\ccKvd7ca.s 			page 42


1075:Drivers/STM32L4xx_HAL_Driver/Src/stm32l4xx_hal_flash_ex.c ****       }
 943              		.loc 1 1075 0
 944 00d4 8E6C     		ldr	r6, [r1, #72]
 945              	.LVL120:
 946 00d6 360C     		lsrs	r6, r6, #16
 947 00d8 3604     		lsls	r6, r6, #16
 948 00da 46EAD206 		orr	r6, r6, r2, lsr #3
 949 00de 8E64     		str	r6, [r1, #72]
 950 00e0 B1E7     		b	.L79
 951              	.L86:
 952 00e2 00BF     		.align	2
 953              	.L85:
 954 00e4 00000140 		.word	1073807360
 955 00e8 E075FF1F 		.word	536835552
 956 00ec 00FEFF01 		.word	33553920
 957 00f0 00200240 		.word	1073881088
 958 00f4 00000808 		.word	134742016
 959              		.cfi_endproc
 960              	.LFE140:
 962              		.section	.text.HAL_FLASHEx_OBProgram,"ax",%progbits
 963              		.align	1
 964              		.global	HAL_FLASHEx_OBProgram
 965              		.syntax unified
 966              		.thumb
 967              		.thumb_func
 968              		.fpu fpv4-sp-d16
 970              	HAL_FLASHEx_OBProgram:
 971              	.LFB132:
 305:Drivers/STM32L4xx_HAL_Driver/Src/stm32l4xx_hal_flash_ex.c ****   HAL_StatusTypeDef status = HAL_OK;
 972              		.loc 1 305 0
 973              		.cfi_startproc
 974              		@ args = 0, pretend = 0, frame = 0
 975              		@ frame_needed = 0, uses_anonymous_args = 0
 976              	.LVL121:
 977 0000 38B5     		push	{r3, r4, r5, lr}
 978              	.LCFI7:
 979              		.cfi_def_cfa_offset 16
 980              		.cfi_offset 3, -16
 981              		.cfi_offset 4, -12
 982              		.cfi_offset 5, -8
 983              		.cfi_offset 14, -4
 984              	.LVL122:
 309:Drivers/STM32L4xx_HAL_Driver/Src/stm32l4xx_hal_flash_ex.c **** 
 985              		.loc 1 309 0
 986 0002 224B     		ldr	r3, .L103
 987 0004 1B78     		ldrb	r3, [r3]	@ zero_extendqisi2
 988 0006 012B     		cmp	r3, #1
 989 0008 3DD0     		beq	.L93
 990 000a 0446     		mov	r4, r0
 309:Drivers/STM32L4xx_HAL_Driver/Src/stm32l4xx_hal_flash_ex.c **** 
 991              		.loc 1 309 0 is_stmt 0 discriminator 2
 992 000c 1F4B     		ldr	r3, .L103
 993 000e 0122     		movs	r2, #1
 994 0010 1A70     		strb	r2, [r3]
 314:Drivers/STM32L4xx_HAL_Driver/Src/stm32l4xx_hal_flash_ex.c **** 
 995              		.loc 1 314 0 is_stmt 1 discriminator 2
 996 0012 0022     		movs	r2, #0
ARM GAS  C:\Users\hirot\AppData\Local\Temp\ccKvd7ca.s 			page 43


 997 0014 5A60     		str	r2, [r3, #4]
 317:Drivers/STM32L4xx_HAL_Driver/Src/stm32l4xx_hal_flash_ex.c ****   {
 998              		.loc 1 317 0 discriminator 2
 999 0016 0368     		ldr	r3, [r0]
 1000 0018 13F0010F 		tst	r3, #1
 1001 001c 1AD1     		bne	.L100
 306:Drivers/STM32L4xx_HAL_Driver/Src/stm32l4xx_hal_flash_ex.c **** 
 1002              		.loc 1 306 0
 1003 001e 0025     		movs	r5, #0
 1004              	.LVL123:
 1005              	.L89:
 328:Drivers/STM32L4xx_HAL_Driver/Src/stm32l4xx_hal_flash_ex.c ****   {
 1006              		.loc 1 328 0
 1007 0020 2368     		ldr	r3, [r4]
 1008 0022 13F0020F 		tst	r3, #2
 1009 0026 1FD1     		bne	.L101
 1010              	.LVL124:
 1011              	.L90:
 338:Drivers/STM32L4xx_HAL_Driver/Src/stm32l4xx_hal_flash_ex.c ****   {
 1012              		.loc 1 338 0
 1013 0028 2368     		ldr	r3, [r4]
 1014 002a 13F0040F 		tst	r3, #4
 1015 002e 22D1     		bne	.L102
 1016              	.LVL125:
 1017              	.L91:
 348:Drivers/STM32L4xx_HAL_Driver/Src/stm32l4xx_hal_flash_ex.c ****   {
 1018              		.loc 1 348 0
 1019 0030 2368     		ldr	r3, [r4]
 1020 0032 13F0080F 		tst	r3, #8
 1021 0036 08D0     		beq	.L92
 350:Drivers/STM32L4xx_HAL_Driver/Src/stm32l4xx_hal_flash_ex.c ****     {
 1022              		.loc 1 350 0
 1023 0038 216A     		ldr	r1, [r4, #32]
 1024 003a 626A     		ldr	r2, [r4, #36]
 1025 003c 9142     		cmp	r1, r2
 1026 003e 04D0     		beq	.L92
 353:Drivers/STM32L4xx_HAL_Driver/Src/stm32l4xx_hal_flash_ex.c ****       {
 1027              		.loc 1 353 0
 1028 0040 E069     		ldr	r0, [r4, #28]
 1029 0042 FFF7FEFF 		bl	FLASH_OB_PCROPConfig
 1030              	.LVL126:
 1031 0046 00B1     		cbz	r0, .L92
 355:Drivers/STM32L4xx_HAL_Driver/Src/stm32l4xx_hal_flash_ex.c ****       }
 1032              		.loc 1 355 0
 1033 0048 0125     		movs	r5, #1
 1034              	.LVL127:
 1035              	.L92:
 361:Drivers/STM32L4xx_HAL_Driver/Src/stm32l4xx_hal_flash_ex.c **** 
 1036              		.loc 1 361 0
 1037 004a 0022     		movs	r2, #0
 1038 004c 0F4B     		ldr	r3, .L103
 1039 004e 1A70     		strb	r2, [r3]
 1040              	.LVL128:
 1041              	.L88:
 364:Drivers/STM32L4xx_HAL_Driver/Src/stm32l4xx_hal_flash_ex.c **** 
 1042              		.loc 1 364 0
 1043 0050 2846     		mov	r0, r5
ARM GAS  C:\Users\hirot\AppData\Local\Temp\ccKvd7ca.s 			page 44


 1044 0052 38BD     		pop	{r3, r4, r5, pc}
 1045              	.LVL129:
 1046              	.L100:
 320:Drivers/STM32L4xx_HAL_Driver/Src/stm32l4xx_hal_flash_ex.c ****     {
 1047              		.loc 1 320 0
 1048 0054 C268     		ldr	r2, [r0, #12]
 1049 0056 8168     		ldr	r1, [r0, #8]
 1050 0058 4068     		ldr	r0, [r0, #4]
 1051              	.LVL130:
 1052 005a FFF7FEFF 		bl	FLASH_OB_WRPConfig
 1053              	.LVL131:
 1054 005e 0546     		mov	r5, r0
 1055 0060 0028     		cmp	r0, #0
 1056 0062 DDD0     		beq	.L89
 322:Drivers/STM32L4xx_HAL_Driver/Src/stm32l4xx_hal_flash_ex.c ****     }
 1057              		.loc 1 322 0
 1058 0064 0125     		movs	r5, #1
 1059 0066 DBE7     		b	.L89
 1060              	.LVL132:
 1061              	.L101:
 331:Drivers/STM32L4xx_HAL_Driver/Src/stm32l4xx_hal_flash_ex.c ****     {
 1062              		.loc 1 331 0
 1063 0068 2069     		ldr	r0, [r4, #16]
 1064 006a FFF7FEFF 		bl	FLASH_OB_RDPConfig
 1065              	.LVL133:
 1066 006e 0028     		cmp	r0, #0
 1067 0070 DAD0     		beq	.L90
 333:Drivers/STM32L4xx_HAL_Driver/Src/stm32l4xx_hal_flash_ex.c ****     }
 1068              		.loc 1 333 0
 1069 0072 0125     		movs	r5, #1
 1070              	.LVL134:
 1071 0074 D8E7     		b	.L90
 1072              	.LVL135:
 1073              	.L102:
 341:Drivers/STM32L4xx_HAL_Driver/Src/stm32l4xx_hal_flash_ex.c ****     {
 1074              		.loc 1 341 0
 1075 0076 A169     		ldr	r1, [r4, #24]
 1076 0078 6069     		ldr	r0, [r4, #20]
 1077 007a FFF7FEFF 		bl	FLASH_OB_UserConfig
 1078              	.LVL136:
 1079 007e 0028     		cmp	r0, #0
 1080 0080 D6D0     		beq	.L91
 343:Drivers/STM32L4xx_HAL_Driver/Src/stm32l4xx_hal_flash_ex.c ****     }
 1081              		.loc 1 343 0
 1082 0082 0125     		movs	r5, #1
 1083              	.LVL137:
 1084 0084 D4E7     		b	.L91
 1085              	.LVL138:
 1086              	.L93:
 309:Drivers/STM32L4xx_HAL_Driver/Src/stm32l4xx_hal_flash_ex.c **** 
 1087              		.loc 1 309 0
 1088 0086 0225     		movs	r5, #2
 1089 0088 E2E7     		b	.L88
 1090              	.L104:
 1091 008a 00BF     		.align	2
 1092              	.L103:
 1093 008c 00000000 		.word	pFlash
ARM GAS  C:\Users\hirot\AppData\Local\Temp\ccKvd7ca.s 			page 45


 1094              		.cfi_endproc
 1095              	.LFE132:
 1097              		.section	.text.HAL_FLASHEx_OBGetConfig,"ax",%progbits
 1098              		.align	1
 1099              		.global	HAL_FLASHEx_OBGetConfig
 1100              		.syntax unified
 1101              		.thumb
 1102              		.thumb_func
 1103              		.fpu fpv4-sp-d16
 1105              	HAL_FLASHEx_OBGetConfig:
 1106              	.LFB133:
 376:Drivers/STM32L4xx_HAL_Driver/Src/stm32l4xx_hal_flash_ex.c ****   pOBInit->OptionType = (OPTIONBYTE_RDP | OPTIONBYTE_USER);
 1107              		.loc 1 376 0
 1108              		.cfi_startproc
 1109              		@ args = 0, pretend = 0, frame = 0
 1110              		@ frame_needed = 0, uses_anonymous_args = 0
 1111              	.LVL139:
 1112 0000 10B5     		push	{r4, lr}
 1113              	.LCFI8:
 1114              		.cfi_def_cfa_offset 8
 1115              		.cfi_offset 4, -8
 1116              		.cfi_offset 14, -4
 1117 0002 0446     		mov	r4, r0
 377:Drivers/STM32L4xx_HAL_Driver/Src/stm32l4xx_hal_flash_ex.c **** 
 1118              		.loc 1 377 0
 1119 0004 0623     		movs	r3, #6
 1120 0006 0360     		str	r3, [r0]
 382:Drivers/STM32L4xx_HAL_Driver/Src/stm32l4xx_hal_flash_ex.c ****      (pOBInit->WRPArea == OB_WRPAREA_BANK2_AREAA) || (pOBInit->WRPArea == OB_WRPAREA_BANK2_AREAB))
 1121              		.loc 1 382 0
 1122 0008 4068     		ldr	r0, [r0, #4]
 1123              	.LVL140:
 1124 000a 0228     		cmp	r0, #2
 1125 000c 0CD9     		bls	.L106
 383:Drivers/STM32L4xx_HAL_Driver/Src/stm32l4xx_hal_flash_ex.c **** #else
 1126              		.loc 1 383 0
 1127 000e 0428     		cmp	r0, #4
 1128 0010 0AD0     		beq	.L106
 1129              	.L107:
 394:Drivers/STM32L4xx_HAL_Driver/Src/stm32l4xx_hal_flash_ex.c **** 
 1130              		.loc 1 394 0
 1131 0012 FFF7FEFF 		bl	FLASH_OB_GetRDP
 1132              	.LVL141:
 1133 0016 2061     		str	r0, [r4, #16]
 397:Drivers/STM32L4xx_HAL_Driver/Src/stm32l4xx_hal_flash_ex.c **** 
 1134              		.loc 1 397 0
 1135 0018 FFF7FEFF 		bl	FLASH_OB_GetUser
 1136              	.LVL142:
 1137 001c A061     		str	r0, [r4, #24]
 402:Drivers/STM32L4xx_HAL_Driver/Src/stm32l4xx_hal_flash_ex.c **** #else
 1138              		.loc 1 402 0
 1139 001e E369     		ldr	r3, [r4, #28]
 1140 0020 013B     		subs	r3, r3, #1
 1141 0022 012B     		cmp	r3, #1
 1142 0024 09D9     		bls	.L110
 1143              	.L105:
 1144 0026 10BD     		pop	{r4, pc}
 1145              	.LVL143:
ARM GAS  C:\Users\hirot\AppData\Local\Temp\ccKvd7ca.s 			page 46


 1146              	.L106:
 388:Drivers/STM32L4xx_HAL_Driver/Src/stm32l4xx_hal_flash_ex.c ****     /* Get write protection on the selected area */
 1147              		.loc 1 388 0
 1148 0028 2246     		mov	r2, r4
 1149 002a 0723     		movs	r3, #7
 1150 002c 42F80C3B 		str	r3, [r2], #12
 390:Drivers/STM32L4xx_HAL_Driver/Src/stm32l4xx_hal_flash_ex.c ****   }
 1151              		.loc 1 390 0
 1152 0030 04F10801 		add	r1, r4, #8
 1153 0034 FFF7FEFF 		bl	FLASH_OB_GetWRP
 1154              	.LVL144:
 1155 0038 EBE7     		b	.L107
 1156              	.L110:
 407:Drivers/STM32L4xx_HAL_Driver/Src/stm32l4xx_hal_flash_ex.c ****     /* Get the Proprietary code readout protection */
 1157              		.loc 1 407 0
 1158 003a 2368     		ldr	r3, [r4]
 1159 003c 43F00803 		orr	r3, r3, #8
 1160 0040 2246     		mov	r2, r4
 1161 0042 42F8243B 		str	r3, [r2], #36
 409:Drivers/STM32L4xx_HAL_Driver/Src/stm32l4xx_hal_flash_ex.c ****   }
 1162              		.loc 1 409 0
 1163 0046 04F12001 		add	r1, r4, #32
 1164 004a 04F11C00 		add	r0, r4, #28
 1165 004e FFF7FEFF 		bl	FLASH_OB_GetPCROP
 1166              	.LVL145:
 411:Drivers/STM32L4xx_HAL_Driver/Src/stm32l4xx_hal_flash_ex.c **** 
 1167              		.loc 1 411 0
 1168 0052 E8E7     		b	.L105
 1169              		.cfi_endproc
 1170              	.LFE133:
 1172              		.section	.text.FLASH_PageErase,"ax",%progbits
 1173              		.align	1
 1174              		.global	FLASH_PageErase
 1175              		.syntax unified
 1176              		.thumb
 1177              		.thumb_func
 1178              		.fpu fpv4-sp-d16
 1180              	FLASH_PageErase:
 1181              	.LFB135:
 556:Drivers/STM32L4xx_HAL_Driver/Src/stm32l4xx_hal_flash_ex.c ****   /* Check the parameters */
 1182              		.loc 1 556 0
 1183              		.cfi_startproc
 1184              		@ args = 0, pretend = 0, frame = 0
 1185              		@ frame_needed = 0, uses_anonymous_args = 0
 1186              		@ link register save eliminated.
 1187              	.LVL146:
 573:Drivers/STM32L4xx_HAL_Driver/Src/stm32l4xx_hal_flash_ex.c ****     {
 1188              		.loc 1 573 0
 1189 0000 11F0010F 		tst	r1, #1
 1190 0004 16D1     		bne	.L114
 579:Drivers/STM32L4xx_HAL_Driver/Src/stm32l4xx_hal_flash_ex.c ****     }
 1191              		.loc 1 579 0
 1192 0006 0E4A     		ldr	r2, .L115
 1193 0008 5369     		ldr	r3, [r2, #20]
 1194 000a 43F40063 		orr	r3, r3, #2048
 1195 000e 5361     		str	r3, [r2, #20]
 1196              	.L113:
ARM GAS  C:\Users\hirot\AppData\Local\Temp\ccKvd7ca.s 			page 47


 588:Drivers/STM32L4xx_HAL_Driver/Src/stm32l4xx_hal_flash_ex.c ****   SET_BIT(FLASH->CR, FLASH_CR_PER);
 1197              		.loc 1 588 0
 1198 0010 0B4B     		ldr	r3, .L115
 1199 0012 5A69     		ldr	r2, [r3, #20]
 1200 0014 22F4FF62 		bic	r2, r2, #2040
 1201 0018 C000     		lsls	r0, r0, #3
 1202              	.LVL147:
 1203 001a 00F4FF60 		and	r0, r0, #2040
 1204 001e 1043     		orrs	r0, r0, r2
 1205 0020 5861     		str	r0, [r3, #20]
 589:Drivers/STM32L4xx_HAL_Driver/Src/stm32l4xx_hal_flash_ex.c ****   SET_BIT(FLASH->CR, FLASH_CR_STRT);
 1206              		.loc 1 589 0
 1207 0022 5A69     		ldr	r2, [r3, #20]
 1208 0024 42F00202 		orr	r2, r2, #2
 1209 0028 5A61     		str	r2, [r3, #20]
 590:Drivers/STM32L4xx_HAL_Driver/Src/stm32l4xx_hal_flash_ex.c **** }
 1210              		.loc 1 590 0
 1211 002a 5A69     		ldr	r2, [r3, #20]
 1212 002c 42F48032 		orr	r2, r2, #65536
 1213 0030 5A61     		str	r2, [r3, #20]
 1214 0032 7047     		bx	lr
 1215              	.LVL148:
 1216              	.L114:
 575:Drivers/STM32L4xx_HAL_Driver/Src/stm32l4xx_hal_flash_ex.c ****     }
 1217              		.loc 1 575 0
 1218 0034 024A     		ldr	r2, .L115
 1219 0036 5369     		ldr	r3, [r2, #20]
 1220 0038 23F40063 		bic	r3, r3, #2048
 1221 003c 5361     		str	r3, [r2, #20]
 1222 003e E7E7     		b	.L113
 1223              	.L116:
 1224              		.align	2
 1225              	.L115:
 1226 0040 00200240 		.word	1073881088
 1227              		.cfi_endproc
 1228              	.LFE135:
 1230              		.section	.text.HAL_FLASHEx_Erase_IT,"ax",%progbits
 1231              		.align	1
 1232              		.global	HAL_FLASHEx_Erase_IT
 1233              		.syntax unified
 1234              		.thumb
 1235              		.thumb_func
 1236              		.fpu fpv4-sp-d16
 1238              	HAL_FLASHEx_Erase_IT:
 1239              	.LFB131:
 233:Drivers/STM32L4xx_HAL_Driver/Src/stm32l4xx_hal_flash_ex.c ****   HAL_StatusTypeDef status = HAL_OK;
 1240              		.loc 1 233 0
 1241              		.cfi_startproc
 1242              		@ args = 0, pretend = 0, frame = 0
 1243              		@ frame_needed = 0, uses_anonymous_args = 0
 1244              	.LVL149:
 1245 0000 08B5     		push	{r3, lr}
 1246              	.LCFI9:
 1247              		.cfi_def_cfa_offset 8
 1248              		.cfi_offset 3, -8
 1249              		.cfi_offset 14, -4
 1250              	.LVL150:
ARM GAS  C:\Users\hirot\AppData\Local\Temp\ccKvd7ca.s 			page 48


 237:Drivers/STM32L4xx_HAL_Driver/Src/stm32l4xx_hal_flash_ex.c **** 
 1251              		.loc 1 237 0
 1252 0002 2B4B     		ldr	r3, .L127
 1253 0004 1B78     		ldrb	r3, [r3]	@ zero_extendqisi2
 1254 0006 012B     		cmp	r3, #1
 1255 0008 50D0     		beq	.L124
 237:Drivers/STM32L4xx_HAL_Driver/Src/stm32l4xx_hal_flash_ex.c **** 
 1256              		.loc 1 237 0 is_stmt 0 discriminator 2
 1257 000a 294B     		ldr	r3, .L127
 1258 000c 0122     		movs	r2, #1
 1259 000e 1A70     		strb	r2, [r3]
 242:Drivers/STM32L4xx_HAL_Driver/Src/stm32l4xx_hal_flash_ex.c **** 
 1260              		.loc 1 242 0 is_stmt 1 discriminator 2
 1261 0010 0022     		movs	r2, #0
 1262 0012 5A60     		str	r2, [r3, #4]
 245:Drivers/STM32L4xx_HAL_Driver/Src/stm32l4xx_hal_flash_ex.c ****   {
 1263              		.loc 1 245 0 discriminator 2
 1264 0014 274B     		ldr	r3, .L127+4
 1265 0016 1B68     		ldr	r3, [r3]
 1266 0018 13F4007F 		tst	r3, #512
 1267 001c 2CD0     		beq	.L119
 248:Drivers/STM32L4xx_HAL_Driver/Src/stm32l4xx_hal_flash_ex.c **** 
 1268              		.loc 1 248 0
 1269 001e 254B     		ldr	r3, .L127+4
 1270 0020 1A68     		ldr	r2, [r3]
 1271 0022 22F40072 		bic	r2, r2, #512
 1272 0026 1A60     		str	r2, [r3]
 250:Drivers/STM32L4xx_HAL_Driver/Src/stm32l4xx_hal_flash_ex.c ****     {
 1273              		.loc 1 250 0
 1274 0028 1B68     		ldr	r3, [r3]
 1275 002a 13F4806F 		tst	r3, #1024
 1276 002e 1FD0     		beq	.L120
 253:Drivers/STM32L4xx_HAL_Driver/Src/stm32l4xx_hal_flash_ex.c ****       pFlash.CacheToReactivate = FLASH_CACHE_ICACHE_DCACHE_ENABLED;
 1277              		.loc 1 253 0
 1278 0030 204A     		ldr	r2, .L127+4
 1279 0032 1368     		ldr	r3, [r2]
 1280 0034 23F48063 		bic	r3, r3, #1024
 1281 0038 1360     		str	r3, [r2]
 254:Drivers/STM32L4xx_HAL_Driver/Src/stm32l4xx_hal_flash_ex.c ****     }
 1282              		.loc 1 254 0
 1283 003a 0322     		movs	r2, #3
 1284 003c 1C4B     		ldr	r3, .L127
 1285 003e 1A77     		strb	r2, [r3, #28]
 1286              	.L121:
 273:Drivers/STM32L4xx_HAL_Driver/Src/stm32l4xx_hal_flash_ex.c **** 
 1287              		.loc 1 273 0 discriminator 4
 1288 0040 1C4A     		ldr	r2, .L127+4
 1289 0042 5369     		ldr	r3, [r2, #20]
 1290 0044 43F04073 		orr	r3, r3, #50331648
 1291 0048 5361     		str	r3, [r2, #20]
 275:Drivers/STM32L4xx_HAL_Driver/Src/stm32l4xx_hal_flash_ex.c **** 
 1292              		.loc 1 275 0 discriminator 4
 1293 004a 4268     		ldr	r2, [r0, #4]
 1294 004c 184B     		ldr	r3, .L127
 1295 004e 1A61     		str	r2, [r3, #16]
 277:Drivers/STM32L4xx_HAL_Driver/Src/stm32l4xx_hal_flash_ex.c ****   {
 1296              		.loc 1 277 0 discriminator 4
ARM GAS  C:\Users\hirot\AppData\Local\Temp\ccKvd7ca.s 			page 49


 1297 0050 0368     		ldr	r3, [r0]
 1298 0052 012B     		cmp	r3, #1
 1299 0054 22D0     		beq	.L126
 286:Drivers/STM32L4xx_HAL_Driver/Src/stm32l4xx_hal_flash_ex.c ****     pFlash.NbPagesToErase = pEraseInit->NbPages;
 1300              		.loc 1 286 0
 1301 0056 164B     		ldr	r3, .L127
 1302 0058 0122     		movs	r2, #1
 1303 005a 1A72     		strb	r2, [r3, #8]
 287:Drivers/STM32L4xx_HAL_Driver/Src/stm32l4xx_hal_flash_ex.c ****     pFlash.Page = pEraseInit->Page;
 1304              		.loc 1 287 0
 1305 005c C268     		ldr	r2, [r0, #12]
 1306 005e 9A61     		str	r2, [r3, #24]
 288:Drivers/STM32L4xx_HAL_Driver/Src/stm32l4xx_hal_flash_ex.c **** 
 1307              		.loc 1 288 0
 1308 0060 8268     		ldr	r2, [r0, #8]
 1309 0062 5A61     		str	r2, [r3, #20]
 291:Drivers/STM32L4xx_HAL_Driver/Src/stm32l4xx_hal_flash_ex.c ****   }
 1310              		.loc 1 291 0
 1311 0064 4168     		ldr	r1, [r0, #4]
 1312 0066 8068     		ldr	r0, [r0, #8]
 1313              	.LVL151:
 1314 0068 FFF7FEFF 		bl	FLASH_PageErase
 1315              	.LVL152:
 294:Drivers/STM32L4xx_HAL_Driver/Src/stm32l4xx_hal_flash_ex.c **** }
 1316              		.loc 1 294 0
 1317 006c 0020     		movs	r0, #0
 1318 006e 08BD     		pop	{r3, pc}
 1319              	.LVL153:
 1320              	.L120:
 258:Drivers/STM32L4xx_HAL_Driver/Src/stm32l4xx_hal_flash_ex.c ****     }
 1321              		.loc 1 258 0
 1322 0070 0122     		movs	r2, #1
 1323 0072 0F4B     		ldr	r3, .L127
 1324 0074 1A77     		strb	r2, [r3, #28]
 1325 0076 E3E7     		b	.L121
 1326              	.L119:
 261:Drivers/STM32L4xx_HAL_Driver/Src/stm32l4xx_hal_flash_ex.c ****   {
 1327              		.loc 1 261 0
 1328 0078 0E4B     		ldr	r3, .L127+4
 1329 007a 1B68     		ldr	r3, [r3]
 1330 007c 13F4806F 		tst	r3, #1024
 1331 0080 08D0     		beq	.L122
 264:Drivers/STM32L4xx_HAL_Driver/Src/stm32l4xx_hal_flash_ex.c ****     pFlash.CacheToReactivate = FLASH_CACHE_DCACHE_ENABLED;
 1332              		.loc 1 264 0
 1333 0082 0C4A     		ldr	r2, .L127+4
 1334 0084 1368     		ldr	r3, [r2]
 1335 0086 23F48063 		bic	r3, r3, #1024
 1336 008a 1360     		str	r3, [r2]
 265:Drivers/STM32L4xx_HAL_Driver/Src/stm32l4xx_hal_flash_ex.c ****   }
 1337              		.loc 1 265 0
 1338 008c 0222     		movs	r2, #2
 1339 008e 084B     		ldr	r3, .L127
 1340 0090 1A77     		strb	r2, [r3, #28]
 1341 0092 D5E7     		b	.L121
 1342              	.L122:
 269:Drivers/STM32L4xx_HAL_Driver/Src/stm32l4xx_hal_flash_ex.c ****   }
 1343              		.loc 1 269 0
ARM GAS  C:\Users\hirot\AppData\Local\Temp\ccKvd7ca.s 			page 50


 1344 0094 0022     		movs	r2, #0
 1345 0096 064B     		ldr	r3, .L127
 1346 0098 1A77     		strb	r2, [r3, #28]
 1347 009a D1E7     		b	.L121
 1348              	.L126:
 280:Drivers/STM32L4xx_HAL_Driver/Src/stm32l4xx_hal_flash_ex.c ****     FLASH_MassErase(pEraseInit->Banks);
 1349              		.loc 1 280 0
 1350 009c 0222     		movs	r2, #2
 1351 009e 044B     		ldr	r3, .L127
 1352 00a0 1A72     		strb	r2, [r3, #8]
 281:Drivers/STM32L4xx_HAL_Driver/Src/stm32l4xx_hal_flash_ex.c ****   }
 1353              		.loc 1 281 0
 1354 00a2 4068     		ldr	r0, [r0, #4]
 1355              	.LVL154:
 1356 00a4 FFF7FEFF 		bl	FLASH_MassErase
 1357              	.LVL155:
 294:Drivers/STM32L4xx_HAL_Driver/Src/stm32l4xx_hal_flash_ex.c **** }
 1358              		.loc 1 294 0
 1359 00a8 0020     		movs	r0, #0
 1360 00aa 08BD     		pop	{r3, pc}
 1361              	.LVL156:
 1362              	.L124:
 237:Drivers/STM32L4xx_HAL_Driver/Src/stm32l4xx_hal_flash_ex.c **** 
 1363              		.loc 1 237 0
 1364 00ac 0220     		movs	r0, #2
 1365              	.LVL157:
 295:Drivers/STM32L4xx_HAL_Driver/Src/stm32l4xx_hal_flash_ex.c **** 
 1366              		.loc 1 295 0
 1367 00ae 08BD     		pop	{r3, pc}
 1368              	.L128:
 1369              		.align	2
 1370              	.L127:
 1371 00b0 00000000 		.word	pFlash
 1372 00b4 00200240 		.word	1073881088
 1373              		.cfi_endproc
 1374              	.LFE131:
 1376              		.section	.text.FLASH_FlushCaches,"ax",%progbits
 1377              		.align	1
 1378              		.global	FLASH_FlushCaches
 1379              		.syntax unified
 1380              		.thumb
 1381              		.thumb_func
 1382              		.fpu fpv4-sp-d16
 1384              	FLASH_FlushCaches:
 1385              	.LFB136:
 598:Drivers/STM32L4xx_HAL_Driver/Src/stm32l4xx_hal_flash_ex.c ****   FLASH_CacheTypeDef cache = pFlash.CacheToReactivate;
 1386              		.loc 1 598 0
 1387              		.cfi_startproc
 1388              		@ args = 0, pretend = 0, frame = 0
 1389              		@ frame_needed = 0, uses_anonymous_args = 0
 1390              		@ link register save eliminated.
 599:Drivers/STM32L4xx_HAL_Driver/Src/stm32l4xx_hal_flash_ex.c **** 
 1391              		.loc 1 599 0
 1392 0000 154B     		ldr	r3, .L134
 1393 0002 1B7F     		ldrb	r3, [r3, #28]	@ zero_extendqisi2
 1394 0004 DBB2     		uxtb	r3, r3
 1395              	.LVL158:
ARM GAS  C:\Users\hirot\AppData\Local\Temp\ccKvd7ca.s 			page 51


 602:Drivers/STM32L4xx_HAL_Driver/Src/stm32l4xx_hal_flash_ex.c ****      (cache == FLASH_CACHE_ICACHE_DCACHE_ENABLED))
 1396              		.loc 1 602 0
 1397 0006 012B     		cmp	r3, #1
 1398 0008 09D0     		beq	.L130
 602:Drivers/STM32L4xx_HAL_Driver/Src/stm32l4xx_hal_flash_ex.c ****      (cache == FLASH_CACHE_ICACHE_DCACHE_ENABLED))
 1399              		.loc 1 602 0 is_stmt 0 discriminator 1
 1400 000a 032B     		cmp	r3, #3
 1401 000c 07D0     		beq	.L130
 1402              	.L131:
 612:Drivers/STM32L4xx_HAL_Driver/Src/stm32l4xx_hal_flash_ex.c ****      (cache == FLASH_CACHE_ICACHE_DCACHE_ENABLED))
 1403              		.loc 1 612 0 is_stmt 1
 1404 000e 023B     		subs	r3, r3, #2
 1405              	.LVL159:
 1406 0010 DBB2     		uxtb	r3, r3
 1407              	.LVL160:
 1408 0012 012B     		cmp	r3, #1
 1409 0014 11D9     		bls	.L133
 1410              	.L132:
 622:Drivers/STM32L4xx_HAL_Driver/Src/stm32l4xx_hal_flash_ex.c **** }
 1411              		.loc 1 622 0
 1412 0016 0022     		movs	r2, #0
 1413 0018 0F4B     		ldr	r3, .L134
 1414 001a 1A77     		strb	r2, [r3, #28]
 1415 001c 7047     		bx	lr
 1416              	.LVL161:
 1417              	.L130:
 606:Drivers/STM32L4xx_HAL_Driver/Src/stm32l4xx_hal_flash_ex.c ****     /* Enable instruction cache */
 1418              		.loc 1 606 0
 1419 001e 0F4A     		ldr	r2, .L134+4
 1420 0020 1168     		ldr	r1, [r2]
 1421 0022 41F40061 		orr	r1, r1, #2048
 1422 0026 1160     		str	r1, [r2]
 1423 0028 1168     		ldr	r1, [r2]
 1424 002a 21F40061 		bic	r1, r1, #2048
 1425 002e 1160     		str	r1, [r2]
 608:Drivers/STM32L4xx_HAL_Driver/Src/stm32l4xx_hal_flash_ex.c ****   }
 1426              		.loc 1 608 0
 1427 0030 1168     		ldr	r1, [r2]
 1428 0032 41F40071 		orr	r1, r1, #512
 1429 0036 1160     		str	r1, [r2]
 1430 0038 E9E7     		b	.L131
 1431              	.LVL162:
 1432              	.L133:
 616:Drivers/STM32L4xx_HAL_Driver/Src/stm32l4xx_hal_flash_ex.c ****     /* Enable data cache */
 1433              		.loc 1 616 0
 1434 003a 084B     		ldr	r3, .L134+4
 1435 003c 1A68     		ldr	r2, [r3]
 1436 003e 42F48052 		orr	r2, r2, #4096
 1437 0042 1A60     		str	r2, [r3]
 1438 0044 1A68     		ldr	r2, [r3]
 1439 0046 22F48052 		bic	r2, r2, #4096
 1440 004a 1A60     		str	r2, [r3]
 618:Drivers/STM32L4xx_HAL_Driver/Src/stm32l4xx_hal_flash_ex.c ****   }
 1441              		.loc 1 618 0
 1442 004c 1A68     		ldr	r2, [r3]
 1443 004e 42F48062 		orr	r2, r2, #1024
 1444 0052 1A60     		str	r2, [r3]
ARM GAS  C:\Users\hirot\AppData\Local\Temp\ccKvd7ca.s 			page 52


 1445 0054 DFE7     		b	.L132
 1446              	.L135:
 1447 0056 00BF     		.align	2
 1448              	.L134:
 1449 0058 00000000 		.word	pFlash
 1450 005c 00200240 		.word	1073881088
 1451              		.cfi_endproc
 1452              	.LFE136:
 1454              		.section	.text.HAL_FLASHEx_Erase,"ax",%progbits
 1455              		.align	1
 1456              		.global	HAL_FLASHEx_Erase
 1457              		.syntax unified
 1458              		.thumb
 1459              		.thumb_func
 1460              		.fpu fpv4-sp-d16
 1462              	HAL_FLASHEx_Erase:
 1463              	.LFB130:
 128:Drivers/STM32L4xx_HAL_Driver/Src/stm32l4xx_hal_flash_ex.c ****   HAL_StatusTypeDef status;
 1464              		.loc 1 128 0
 1465              		.cfi_startproc
 1466              		@ args = 0, pretend = 0, frame = 0
 1467              		@ frame_needed = 0, uses_anonymous_args = 0
 1468              	.LVL163:
 1469 0000 F8B5     		push	{r3, r4, r5, r6, r7, lr}
 1470              	.LCFI10:
 1471              		.cfi_def_cfa_offset 24
 1472              		.cfi_offset 3, -24
 1473              		.cfi_offset 4, -20
 1474              		.cfi_offset 5, -16
 1475              		.cfi_offset 6, -12
 1476              		.cfi_offset 7, -8
 1477              		.cfi_offset 14, -4
 133:Drivers/STM32L4xx_HAL_Driver/Src/stm32l4xx_hal_flash_ex.c **** 
 1478              		.loc 1 133 0
 1479 0002 3C4B     		ldr	r3, .L153
 1480 0004 1B78     		ldrb	r3, [r3]	@ zero_extendqisi2
 1481 0006 012B     		cmp	r3, #1
 1482 0008 02D1     		bne	.L150
 1483 000a 0227     		movs	r7, #2
 1484              	.LVL164:
 1485              	.L137:
 223:Drivers/STM32L4xx_HAL_Driver/Src/stm32l4xx_hal_flash_ex.c **** 
 1486              		.loc 1 223 0
 1487 000c 3846     		mov	r0, r7
 1488 000e F8BD     		pop	{r3, r4, r5, r6, r7, pc}
 1489              	.LVL165:
 1490              	.L150:
 1491 0010 0E46     		mov	r6, r1
 1492 0012 0446     		mov	r4, r0
 133:Drivers/STM32L4xx_HAL_Driver/Src/stm32l4xx_hal_flash_ex.c **** 
 1493              		.loc 1 133 0 discriminator 2
 1494 0014 0122     		movs	r2, #1
 1495 0016 374B     		ldr	r3, .L153
 1496 0018 1A70     		strb	r2, [r3]
 139:Drivers/STM32L4xx_HAL_Driver/Src/stm32l4xx_hal_flash_ex.c **** 
 1497              		.loc 1 139 0 discriminator 2
 1498 001a 4CF25030 		movw	r0, #50000
ARM GAS  C:\Users\hirot\AppData\Local\Temp\ccKvd7ca.s 			page 53


 1499              	.LVL166:
 1500 001e FFF7FEFF 		bl	FLASH_WaitForLastOperation
 1501              	.LVL167:
 141:Drivers/STM32L4xx_HAL_Driver/Src/stm32l4xx_hal_flash_ex.c ****   {
 1502              		.loc 1 141 0 discriminator 2
 1503 0022 0746     		mov	r7, r0
 1504 0024 0028     		cmp	r0, #0
 1505 0026 60D1     		bne	.L138
 143:Drivers/STM32L4xx_HAL_Driver/Src/stm32l4xx_hal_flash_ex.c **** 
 1506              		.loc 1 143 0
 1507 0028 0022     		movs	r2, #0
 1508 002a 324B     		ldr	r3, .L153
 1509 002c 5A60     		str	r2, [r3, #4]
 146:Drivers/STM32L4xx_HAL_Driver/Src/stm32l4xx_hal_flash_ex.c ****     {
 1510              		.loc 1 146 0
 1511 002e 324B     		ldr	r3, .L153+4
 1512 0030 1B68     		ldr	r3, [r3]
 1513 0032 13F4007F 		tst	r3, #512
 1514 0036 33D0     		beq	.L139
 149:Drivers/STM32L4xx_HAL_Driver/Src/stm32l4xx_hal_flash_ex.c **** 
 1515              		.loc 1 149 0
 1516 0038 2F4B     		ldr	r3, .L153+4
 1517 003a 1A68     		ldr	r2, [r3]
 1518 003c 22F40072 		bic	r2, r2, #512
 1519 0040 1A60     		str	r2, [r3]
 151:Drivers/STM32L4xx_HAL_Driver/Src/stm32l4xx_hal_flash_ex.c ****       {
 1520              		.loc 1 151 0
 1521 0042 1B68     		ldr	r3, [r3]
 1522 0044 13F4806F 		tst	r3, #1024
 1523 0048 26D0     		beq	.L140
 154:Drivers/STM32L4xx_HAL_Driver/Src/stm32l4xx_hal_flash_ex.c ****         pFlash.CacheToReactivate = FLASH_CACHE_ICACHE_DCACHE_ENABLED;
 1524              		.loc 1 154 0
 1525 004a 2B4A     		ldr	r2, .L153+4
 1526 004c 1368     		ldr	r3, [r2]
 1527 004e 23F48063 		bic	r3, r3, #1024
 1528 0052 1360     		str	r3, [r2]
 155:Drivers/STM32L4xx_HAL_Driver/Src/stm32l4xx_hal_flash_ex.c ****       }
 1529              		.loc 1 155 0
 1530 0054 0322     		movs	r2, #3
 1531 0056 274B     		ldr	r3, .L153
 1532 0058 1A77     		strb	r2, [r3, #28]
 1533              	.L141:
 173:Drivers/STM32L4xx_HAL_Driver/Src/stm32l4xx_hal_flash_ex.c ****     {
 1534              		.loc 1 173 0
 1535 005a 2368     		ldr	r3, [r4]
 1536 005c 012B     		cmp	r3, #1
 1537 005e 31D0     		beq	.L151
 194:Drivers/STM32L4xx_HAL_Driver/Src/stm32l4xx_hal_flash_ex.c **** 
 1538              		.loc 1 194 0
 1539 0060 4FF0FF33 		mov	r3, #-1
 1540 0064 3360     		str	r3, [r6]
 196:Drivers/STM32L4xx_HAL_Driver/Src/stm32l4xx_hal_flash_ex.c ****       {
 1541              		.loc 1 196 0
 1542 0066 A568     		ldr	r5, [r4, #8]
 1543              	.LVL168:
 1544              	.L145:
 196:Drivers/STM32L4xx_HAL_Driver/Src/stm32l4xx_hal_flash_ex.c ****       {
ARM GAS  C:\Users\hirot\AppData\Local\Temp\ccKvd7ca.s 			page 54


 1545              		.loc 1 196 0 is_stmt 0 discriminator 1
 1546 0068 A368     		ldr	r3, [r4, #8]
 1547 006a E268     		ldr	r2, [r4, #12]
 1548 006c 1344     		add	r3, r3, r2
 1549 006e 9D42     		cmp	r5, r3
 1550 0070 39D2     		bcs	.L144
 198:Drivers/STM32L4xx_HAL_Driver/Src/stm32l4xx_hal_flash_ex.c **** 
 1551              		.loc 1 198 0 is_stmt 1
 1552 0072 6168     		ldr	r1, [r4, #4]
 1553 0074 2846     		mov	r0, r5
 1554 0076 FFF7FEFF 		bl	FLASH_PageErase
 1555              	.LVL169:
 201:Drivers/STM32L4xx_HAL_Driver/Src/stm32l4xx_hal_flash_ex.c **** 
 1556              		.loc 1 201 0
 1557 007a 4CF25030 		movw	r0, #50000
 1558 007e FFF7FEFF 		bl	FLASH_WaitForLastOperation
 1559              	.LVL170:
 204:Drivers/STM32L4xx_HAL_Driver/Src/stm32l4xx_hal_flash_ex.c **** 
 1560              		.loc 1 204 0
 1561 0082 1D4A     		ldr	r2, .L153+4
 1562 0084 5369     		ldr	r3, [r2, #20]
 1563 0086 23F4FF63 		bic	r3, r3, #2040
 1564 008a 23F00203 		bic	r3, r3, #2
 1565 008e 5361     		str	r3, [r2, #20]
 206:Drivers/STM32L4xx_HAL_Driver/Src/stm32l4xx_hal_flash_ex.c ****         {
 1566              		.loc 1 206 0
 1567 0090 0746     		mov	r7, r0
 1568 0092 38BB     		cbnz	r0, .L152
 196:Drivers/STM32L4xx_HAL_Driver/Src/stm32l4xx_hal_flash_ex.c ****       {
 1569              		.loc 1 196 0 discriminator 2
 1570 0094 0135     		adds	r5, r5, #1
 1571              	.LVL171:
 1572 0096 E7E7     		b	.L145
 1573              	.LVL172:
 1574              	.L140:
 159:Drivers/STM32L4xx_HAL_Driver/Src/stm32l4xx_hal_flash_ex.c ****       }
 1575              		.loc 1 159 0
 1576 0098 0122     		movs	r2, #1
 1577 009a 164B     		ldr	r3, .L153
 1578 009c 1A77     		strb	r2, [r3, #28]
 1579 009e DCE7     		b	.L141
 1580              	.L139:
 162:Drivers/STM32L4xx_HAL_Driver/Src/stm32l4xx_hal_flash_ex.c ****     {
 1581              		.loc 1 162 0
 1582 00a0 154B     		ldr	r3, .L153+4
 1583 00a2 1B68     		ldr	r3, [r3]
 1584 00a4 13F4806F 		tst	r3, #1024
 1585 00a8 08D0     		beq	.L142
 165:Drivers/STM32L4xx_HAL_Driver/Src/stm32l4xx_hal_flash_ex.c ****       pFlash.CacheToReactivate = FLASH_CACHE_DCACHE_ENABLED;
 1586              		.loc 1 165 0
 1587 00aa 134A     		ldr	r2, .L153+4
 1588 00ac 1368     		ldr	r3, [r2]
 1589 00ae 23F48063 		bic	r3, r3, #1024
 1590 00b2 1360     		str	r3, [r2]
 166:Drivers/STM32L4xx_HAL_Driver/Src/stm32l4xx_hal_flash_ex.c ****     }
 1591              		.loc 1 166 0
 1592 00b4 0222     		movs	r2, #2
ARM GAS  C:\Users\hirot\AppData\Local\Temp\ccKvd7ca.s 			page 55


 1593 00b6 0F4B     		ldr	r3, .L153
 1594 00b8 1A77     		strb	r2, [r3, #28]
 1595 00ba CEE7     		b	.L141
 1596              	.L142:
 170:Drivers/STM32L4xx_HAL_Driver/Src/stm32l4xx_hal_flash_ex.c ****     }
 1597              		.loc 1 170 0
 1598 00bc 0022     		movs	r2, #0
 1599 00be 0D4B     		ldr	r3, .L153
 1600 00c0 1A77     		strb	r2, [r3, #28]
 1601 00c2 CAE7     		b	.L141
 1602              	.L151:
 176:Drivers/STM32L4xx_HAL_Driver/Src/stm32l4xx_hal_flash_ex.c **** 
 1603              		.loc 1 176 0
 1604 00c4 6068     		ldr	r0, [r4, #4]
 1605              	.LVL173:
 1606 00c6 FFF7FEFF 		bl	FLASH_MassErase
 1607              	.LVL174:
 179:Drivers/STM32L4xx_HAL_Driver/Src/stm32l4xx_hal_flash_ex.c **** 
 1608              		.loc 1 179 0
 1609 00ca 4CF25030 		movw	r0, #50000
 1610 00ce FFF7FEFF 		bl	FLASH_WaitForLastOperation
 1611              	.LVL175:
 1612 00d2 0746     		mov	r7, r0
 1613              	.LVL176:
 185:Drivers/STM32L4xx_HAL_Driver/Src/stm32l4xx_hal_flash_ex.c **** #else
 1614              		.loc 1 185 0
 1615 00d4 084A     		ldr	r2, .L153+4
 1616 00d6 5369     		ldr	r3, [r2, #20]
 1617 00d8 23F40043 		bic	r3, r3, #32768
 1618 00dc 23F00403 		bic	r3, r3, #4
 1619 00e0 5361     		str	r3, [r2, #20]
 1620 00e2 00E0     		b	.L144
 1621              	.LVL177:
 1622              	.L152:
 209:Drivers/STM32L4xx_HAL_Driver/Src/stm32l4xx_hal_flash_ex.c ****           break;
 1623              		.loc 1 209 0
 1624 00e4 3560     		str	r5, [r6]
 1625              	.LVL178:
 1626              	.L144:
 216:Drivers/STM32L4xx_HAL_Driver/Src/stm32l4xx_hal_flash_ex.c ****   }
 1627              		.loc 1 216 0
 1628 00e6 FFF7FEFF 		bl	FLASH_FlushCaches
 1629              	.LVL179:
 1630              	.L138:
 220:Drivers/STM32L4xx_HAL_Driver/Src/stm32l4xx_hal_flash_ex.c **** 
 1631              		.loc 1 220 0
 1632 00ea 0022     		movs	r2, #0
 1633 00ec 014B     		ldr	r3, .L153
 1634 00ee 1A70     		strb	r2, [r3]
 222:Drivers/STM32L4xx_HAL_Driver/Src/stm32l4xx_hal_flash_ex.c **** }
 1635              		.loc 1 222 0
 1636 00f0 8CE7     		b	.L137
 1637              	.L154:
 1638 00f2 00BF     		.align	2
 1639              	.L153:
 1640 00f4 00000000 		.word	pFlash
 1641 00f8 00200240 		.word	1073881088
ARM GAS  C:\Users\hirot\AppData\Local\Temp\ccKvd7ca.s 			page 56


 1642              		.cfi_endproc
 1643              	.LFE130:
 1645              		.text
 1646              	.Letext0:
 1647              		.file 2 "c:\\program files (x86)\\gnu tools arm embedded\\6.2 2016q4\\arm-none-eabi\\include\\mach
 1648              		.file 3 "c:\\program files (x86)\\gnu tools arm embedded\\6.2 2016q4\\arm-none-eabi\\include\\sys\
 1649              		.file 4 "Drivers/CMSIS/Include/core_cm4.h"
 1650              		.file 5 "Drivers/CMSIS/Device/ST/STM32L4xx/Include/system_stm32l4xx.h"
 1651              		.file 6 "Drivers/CMSIS/Device/ST/STM32L4xx/Include/stm32l476xx.h"
 1652              		.file 7 "Drivers/STM32L4xx_HAL_Driver/Inc/stm32l4xx_hal_def.h"
 1653              		.file 8 "Drivers/STM32L4xx_HAL_Driver/Inc/stm32l4xx_hal_flash.h"
 1654              		.file 9 "Drivers/STM32L4xx_HAL_Driver/Inc/stm32l4xx_hal.h"
ARM GAS  C:\Users\hirot\AppData\Local\Temp\ccKvd7ca.s 			page 57


DEFINED SYMBOLS
                            *ABS*:00000000 stm32l4xx_hal_flash_ex.c
C:\Users\hirot\AppData\Local\Temp\ccKvd7ca.s:18     .text.FLASH_MassErase:00000000 $t
C:\Users\hirot\AppData\Local\Temp\ccKvd7ca.s:24     .text.FLASH_MassErase:00000000 FLASH_MassErase
C:\Users\hirot\AppData\Local\Temp\ccKvd7ca.s:60     .text.FLASH_MassErase:0000002c $d
C:\Users\hirot\AppData\Local\Temp\ccKvd7ca.s:65     .text.FLASH_OB_GetWRP:00000000 $t
C:\Users\hirot\AppData\Local\Temp\ccKvd7ca.s:71     .text.FLASH_OB_GetWRP:00000000 FLASH_OB_GetWRP
C:\Users\hirot\AppData\Local\Temp\ccKvd7ca.s:149    .text.FLASH_OB_GetWRP:00000058 $d
C:\Users\hirot\AppData\Local\Temp\ccKvd7ca.s:154    .text.FLASH_OB_GetRDP:00000000 $t
C:\Users\hirot\AppData\Local\Temp\ccKvd7ca.s:160    .text.FLASH_OB_GetRDP:00000000 FLASH_OB_GetRDP
C:\Users\hirot\AppData\Local\Temp\ccKvd7ca.s:192    .text.FLASH_OB_GetRDP:0000001c $d
C:\Users\hirot\AppData\Local\Temp\ccKvd7ca.s:197    .text.FLASH_OB_GetUser:00000000 $t
C:\Users\hirot\AppData\Local\Temp\ccKvd7ca.s:203    .text.FLASH_OB_GetUser:00000000 FLASH_OB_GetUser
C:\Users\hirot\AppData\Local\Temp\ccKvd7ca.s:221    .text.FLASH_OB_GetUser:0000000c $d
C:\Users\hirot\AppData\Local\Temp\ccKvd7ca.s:226    .text.FLASH_OB_GetPCROP:00000000 $t
C:\Users\hirot\AppData\Local\Temp\ccKvd7ca.s:232    .text.FLASH_OB_GetPCROP:00000000 FLASH_OB_GetPCROP
C:\Users\hirot\AppData\Local\Temp\ccKvd7ca.s:375    .text.FLASH_OB_GetPCROP:000000b0 $d
C:\Users\hirot\AppData\Local\Temp\ccKvd7ca.s:385    .text.FLASH_OB_WRPConfig:00000000 $t
C:\Users\hirot\AppData\Local\Temp\ccKvd7ca.s:391    .text.FLASH_OB_WRPConfig:00000000 FLASH_OB_WRPConfig
C:\Users\hirot\AppData\Local\Temp\ccKvd7ca.s:493    .text.FLASH_OB_WRPConfig:00000088 $d
C:\Users\hirot\AppData\Local\Temp\ccKvd7ca.s:498    .text.FLASH_OB_RDPConfig:00000000 $t
C:\Users\hirot\AppData\Local\Temp\ccKvd7ca.s:504    .text.FLASH_OB_RDPConfig:00000000 FLASH_OB_RDPConfig
C:\Users\hirot\AppData\Local\Temp\ccKvd7ca.s:559    .text.FLASH_OB_RDPConfig:0000003c $d
C:\Users\hirot\AppData\Local\Temp\ccKvd7ca.s:564    .text.FLASH_OB_UserConfig:00000000 $t
C:\Users\hirot\AppData\Local\Temp\ccKvd7ca.s:570    .text.FLASH_OB_UserConfig:00000000 FLASH_OB_UserConfig
C:\Users\hirot\AppData\Local\Temp\ccKvd7ca.s:778    .text.FLASH_OB_UserConfig:00000114 $d
C:\Users\hirot\AppData\Local\Temp\ccKvd7ca.s:783    .text.FLASH_OB_PCROPConfig:00000000 $t
C:\Users\hirot\AppData\Local\Temp\ccKvd7ca.s:789    .text.FLASH_OB_PCROPConfig:00000000 FLASH_OB_PCROPConfig
C:\Users\hirot\AppData\Local\Temp\ccKvd7ca.s:954    .text.FLASH_OB_PCROPConfig:000000e4 $d
C:\Users\hirot\AppData\Local\Temp\ccKvd7ca.s:963    .text.HAL_FLASHEx_OBProgram:00000000 $t
C:\Users\hirot\AppData\Local\Temp\ccKvd7ca.s:970    .text.HAL_FLASHEx_OBProgram:00000000 HAL_FLASHEx_OBProgram
C:\Users\hirot\AppData\Local\Temp\ccKvd7ca.s:1093   .text.HAL_FLASHEx_OBProgram:0000008c $d
C:\Users\hirot\AppData\Local\Temp\ccKvd7ca.s:1098   .text.HAL_FLASHEx_OBGetConfig:00000000 $t
C:\Users\hirot\AppData\Local\Temp\ccKvd7ca.s:1105   .text.HAL_FLASHEx_OBGetConfig:00000000 HAL_FLASHEx_OBGetConfig
C:\Users\hirot\AppData\Local\Temp\ccKvd7ca.s:1173   .text.FLASH_PageErase:00000000 $t
C:\Users\hirot\AppData\Local\Temp\ccKvd7ca.s:1180   .text.FLASH_PageErase:00000000 FLASH_PageErase
C:\Users\hirot\AppData\Local\Temp\ccKvd7ca.s:1226   .text.FLASH_PageErase:00000040 $d
C:\Users\hirot\AppData\Local\Temp\ccKvd7ca.s:1231   .text.HAL_FLASHEx_Erase_IT:00000000 $t
C:\Users\hirot\AppData\Local\Temp\ccKvd7ca.s:1238   .text.HAL_FLASHEx_Erase_IT:00000000 HAL_FLASHEx_Erase_IT
C:\Users\hirot\AppData\Local\Temp\ccKvd7ca.s:1371   .text.HAL_FLASHEx_Erase_IT:000000b0 $d
C:\Users\hirot\AppData\Local\Temp\ccKvd7ca.s:1377   .text.FLASH_FlushCaches:00000000 $t
C:\Users\hirot\AppData\Local\Temp\ccKvd7ca.s:1384   .text.FLASH_FlushCaches:00000000 FLASH_FlushCaches
C:\Users\hirot\AppData\Local\Temp\ccKvd7ca.s:1449   .text.FLASH_FlushCaches:00000058 $d
C:\Users\hirot\AppData\Local\Temp\ccKvd7ca.s:1455   .text.HAL_FLASHEx_Erase:00000000 $t
C:\Users\hirot\AppData\Local\Temp\ccKvd7ca.s:1462   .text.HAL_FLASHEx_Erase:00000000 HAL_FLASHEx_Erase
C:\Users\hirot\AppData\Local\Temp\ccKvd7ca.s:1640   .text.HAL_FLASHEx_Erase:000000f4 $d
                     .debug_frame:00000010 $d

UNDEFINED SYMBOLS
FLASH_WaitForLastOperation
pFlash
