ARM GAS  C:\Users\hirot\AppData\Local\Temp\ccbtWm2Y.s 			page 1


   1              		.cpu cortex-m4
   2              		.eabi_attribute 27, 1
   3              		.eabi_attribute 28, 1
   4              		.eabi_attribute 20, 1
   5              		.eabi_attribute 21, 1
   6              		.eabi_attribute 23, 3
   7              		.eabi_attribute 24, 1
   8              		.eabi_attribute 25, 1
   9              		.eabi_attribute 26, 1
  10              		.eabi_attribute 30, 1
  11              		.eabi_attribute 34, 1
  12              		.eabi_attribute 18, 4
  13              		.file	"stm32l4xx_hal_exti.c"
  14              		.text
  15              	.Ltext0:
  16              		.cfi_sections	.debug_frame
  17              		.section	.text.HAL_EXTI_SetConfigLine,"ax",%progbits
  18              		.align	1
  19              		.global	HAL_EXTI_SetConfigLine
  20              		.syntax unified
  21              		.thumb
  22              		.thumb_func
  23              		.fpu fpv4-sp-d16
  25              	HAL_EXTI_SetConfigLine:
  26              	.LFB130:
  27              		.file 1 "Drivers/STM32L4xx_HAL_Driver/Src/stm32l4xx_hal_exti.c"
   1:Drivers/STM32L4xx_HAL_Driver/Src/stm32l4xx_hal_exti.c **** /**
   2:Drivers/STM32L4xx_HAL_Driver/Src/stm32l4xx_hal_exti.c ****   ******************************************************************************
   3:Drivers/STM32L4xx_HAL_Driver/Src/stm32l4xx_hal_exti.c ****   * @file    stm32l4xx_hal_exti.c
   4:Drivers/STM32L4xx_HAL_Driver/Src/stm32l4xx_hal_exti.c ****   * @author  MCD Application Team
   5:Drivers/STM32L4xx_HAL_Driver/Src/stm32l4xx_hal_exti.c ****   * @brief   EXTI HAL module driver.
   6:Drivers/STM32L4xx_HAL_Driver/Src/stm32l4xx_hal_exti.c ****   *          This file provides firmware functions to manage the following
   7:Drivers/STM32L4xx_HAL_Driver/Src/stm32l4xx_hal_exti.c ****   *          functionalities of the Extended Interrupts and events controller (EXTI) peripheral:
   8:Drivers/STM32L4xx_HAL_Driver/Src/stm32l4xx_hal_exti.c ****   *           + Initialization and de-initialization functions
   9:Drivers/STM32L4xx_HAL_Driver/Src/stm32l4xx_hal_exti.c ****   *           + IO operation functions
  10:Drivers/STM32L4xx_HAL_Driver/Src/stm32l4xx_hal_exti.c ****   *
  11:Drivers/STM32L4xx_HAL_Driver/Src/stm32l4xx_hal_exti.c ****   @verbatim
  12:Drivers/STM32L4xx_HAL_Driver/Src/stm32l4xx_hal_exti.c ****   ==============================================================================
  13:Drivers/STM32L4xx_HAL_Driver/Src/stm32l4xx_hal_exti.c ****                     ##### EXTI Peripheral features #####
  14:Drivers/STM32L4xx_HAL_Driver/Src/stm32l4xx_hal_exti.c ****   ==============================================================================
  15:Drivers/STM32L4xx_HAL_Driver/Src/stm32l4xx_hal_exti.c ****   [..]
  16:Drivers/STM32L4xx_HAL_Driver/Src/stm32l4xx_hal_exti.c ****     (+) Each Exti line can be configured within this driver.
  17:Drivers/STM32L4xx_HAL_Driver/Src/stm32l4xx_hal_exti.c **** 
  18:Drivers/STM32L4xx_HAL_Driver/Src/stm32l4xx_hal_exti.c ****     (+) Exti line can be configured in 3 different modes
  19:Drivers/STM32L4xx_HAL_Driver/Src/stm32l4xx_hal_exti.c ****         (++) Interrupt
  20:Drivers/STM32L4xx_HAL_Driver/Src/stm32l4xx_hal_exti.c ****         (++) Event
  21:Drivers/STM32L4xx_HAL_Driver/Src/stm32l4xx_hal_exti.c ****         (++) Both of them
  22:Drivers/STM32L4xx_HAL_Driver/Src/stm32l4xx_hal_exti.c **** 
  23:Drivers/STM32L4xx_HAL_Driver/Src/stm32l4xx_hal_exti.c ****     (+) Configurable Exti lines can be configured with 3 different triggers
  24:Drivers/STM32L4xx_HAL_Driver/Src/stm32l4xx_hal_exti.c ****         (++) Rising
  25:Drivers/STM32L4xx_HAL_Driver/Src/stm32l4xx_hal_exti.c ****         (++) Falling
  26:Drivers/STM32L4xx_HAL_Driver/Src/stm32l4xx_hal_exti.c ****         (++) Both of them
  27:Drivers/STM32L4xx_HAL_Driver/Src/stm32l4xx_hal_exti.c **** 
  28:Drivers/STM32L4xx_HAL_Driver/Src/stm32l4xx_hal_exti.c ****     (+) When set in interrupt mode, configurable Exti lines have two different
  29:Drivers/STM32L4xx_HAL_Driver/Src/stm32l4xx_hal_exti.c ****         interrupts pending registers which allow to distinguish which transition
  30:Drivers/STM32L4xx_HAL_Driver/Src/stm32l4xx_hal_exti.c ****         occurs:
  31:Drivers/STM32L4xx_HAL_Driver/Src/stm32l4xx_hal_exti.c ****         (++) Rising edge pending interrupt
ARM GAS  C:\Users\hirot\AppData\Local\Temp\ccbtWm2Y.s 			page 2


  32:Drivers/STM32L4xx_HAL_Driver/Src/stm32l4xx_hal_exti.c ****         (++) Falling
  33:Drivers/STM32L4xx_HAL_Driver/Src/stm32l4xx_hal_exti.c **** 
  34:Drivers/STM32L4xx_HAL_Driver/Src/stm32l4xx_hal_exti.c ****     (+) Exti lines 0 to 15 are linked to gpio pin number 0 to 15. Gpio port can
  35:Drivers/STM32L4xx_HAL_Driver/Src/stm32l4xx_hal_exti.c ****         be selected through multiplexer.
  36:Drivers/STM32L4xx_HAL_Driver/Src/stm32l4xx_hal_exti.c **** 
  37:Drivers/STM32L4xx_HAL_Driver/Src/stm32l4xx_hal_exti.c ****                      ##### How to use this driver #####
  38:Drivers/STM32L4xx_HAL_Driver/Src/stm32l4xx_hal_exti.c ****   ==============================================================================
  39:Drivers/STM32L4xx_HAL_Driver/Src/stm32l4xx_hal_exti.c ****   [..]
  40:Drivers/STM32L4xx_HAL_Driver/Src/stm32l4xx_hal_exti.c **** 
  41:Drivers/STM32L4xx_HAL_Driver/Src/stm32l4xx_hal_exti.c ****     (#) Configure the EXTI line using HAL_EXTI_SetConfigLine().
  42:Drivers/STM32L4xx_HAL_Driver/Src/stm32l4xx_hal_exti.c ****         (++) Choose the interrupt line number by setting "Line" member from
  43:Drivers/STM32L4xx_HAL_Driver/Src/stm32l4xx_hal_exti.c ****              EXTI_ConfigTypeDef structure.
  44:Drivers/STM32L4xx_HAL_Driver/Src/stm32l4xx_hal_exti.c ****         (++) Configure the interrupt and/or event mode using "Mode" member from
  45:Drivers/STM32L4xx_HAL_Driver/Src/stm32l4xx_hal_exti.c ****              EXTI_ConfigTypeDef structure.
  46:Drivers/STM32L4xx_HAL_Driver/Src/stm32l4xx_hal_exti.c ****         (++) For configurable lines, configure rising and/or falling trigger
  47:Drivers/STM32L4xx_HAL_Driver/Src/stm32l4xx_hal_exti.c ****              "Trigger" member from EXTI_ConfigTypeDef structure.
  48:Drivers/STM32L4xx_HAL_Driver/Src/stm32l4xx_hal_exti.c ****         (++) For Exti lines linked to gpio, choose gpio port using "GPIOSel"
  49:Drivers/STM32L4xx_HAL_Driver/Src/stm32l4xx_hal_exti.c ****              member from GPIO_InitTypeDef structure.
  50:Drivers/STM32L4xx_HAL_Driver/Src/stm32l4xx_hal_exti.c **** 
  51:Drivers/STM32L4xx_HAL_Driver/Src/stm32l4xx_hal_exti.c ****     (#) Get current Exti configuration of a dedicated line using
  52:Drivers/STM32L4xx_HAL_Driver/Src/stm32l4xx_hal_exti.c ****         HAL_EXTI_GetConfigLine().
  53:Drivers/STM32L4xx_HAL_Driver/Src/stm32l4xx_hal_exti.c ****         (++) Provide exiting handle as parameter.
  54:Drivers/STM32L4xx_HAL_Driver/Src/stm32l4xx_hal_exti.c ****         (++) Provide pointer on EXTI_ConfigTypeDef structure as second parameter.
  55:Drivers/STM32L4xx_HAL_Driver/Src/stm32l4xx_hal_exti.c **** 
  56:Drivers/STM32L4xx_HAL_Driver/Src/stm32l4xx_hal_exti.c ****     (#) Clear Exti configuration of a dedicated line using HAL_EXTI_GetConfigLine().
  57:Drivers/STM32L4xx_HAL_Driver/Src/stm32l4xx_hal_exti.c ****         (++) Provide exiting handle as parameter.
  58:Drivers/STM32L4xx_HAL_Driver/Src/stm32l4xx_hal_exti.c **** 
  59:Drivers/STM32L4xx_HAL_Driver/Src/stm32l4xx_hal_exti.c ****     (#) Register callback to treat Exti interrupts using HAL_EXTI_RegisterCallback().
  60:Drivers/STM32L4xx_HAL_Driver/Src/stm32l4xx_hal_exti.c ****         (++) Provide exiting handle as first parameter.
  61:Drivers/STM32L4xx_HAL_Driver/Src/stm32l4xx_hal_exti.c ****         (++) Provide which callback will be registered using one value from
  62:Drivers/STM32L4xx_HAL_Driver/Src/stm32l4xx_hal_exti.c ****              EXTI_CallbackIDTypeDef.
  63:Drivers/STM32L4xx_HAL_Driver/Src/stm32l4xx_hal_exti.c ****         (++) Provide callback function pointer.
  64:Drivers/STM32L4xx_HAL_Driver/Src/stm32l4xx_hal_exti.c **** 
  65:Drivers/STM32L4xx_HAL_Driver/Src/stm32l4xx_hal_exti.c ****     (#) Get interrupt pending bit using HAL_EXTI_GetPending().
  66:Drivers/STM32L4xx_HAL_Driver/Src/stm32l4xx_hal_exti.c **** 
  67:Drivers/STM32L4xx_HAL_Driver/Src/stm32l4xx_hal_exti.c ****     (#) Clear interrupt pending bit using HAL_EXTI_GetPending().
  68:Drivers/STM32L4xx_HAL_Driver/Src/stm32l4xx_hal_exti.c **** 
  69:Drivers/STM32L4xx_HAL_Driver/Src/stm32l4xx_hal_exti.c ****     (#) Generate software interrupt using HAL_EXTI_GenerateSWI().
  70:Drivers/STM32L4xx_HAL_Driver/Src/stm32l4xx_hal_exti.c **** 
  71:Drivers/STM32L4xx_HAL_Driver/Src/stm32l4xx_hal_exti.c ****   @endverbatim
  72:Drivers/STM32L4xx_HAL_Driver/Src/stm32l4xx_hal_exti.c ****   ******************************************************************************
  73:Drivers/STM32L4xx_HAL_Driver/Src/stm32l4xx_hal_exti.c ****   * @attention
  74:Drivers/STM32L4xx_HAL_Driver/Src/stm32l4xx_hal_exti.c ****   *
  75:Drivers/STM32L4xx_HAL_Driver/Src/stm32l4xx_hal_exti.c ****   * <h2><center>&copy; Copyright (c) 2018 STMicroelectronics.
  76:Drivers/STM32L4xx_HAL_Driver/Src/stm32l4xx_hal_exti.c ****   * All rights reserved.</center></h2>
  77:Drivers/STM32L4xx_HAL_Driver/Src/stm32l4xx_hal_exti.c ****   *
  78:Drivers/STM32L4xx_HAL_Driver/Src/stm32l4xx_hal_exti.c ****   * This software component is licensed by ST under BSD 3-Clause license,
  79:Drivers/STM32L4xx_HAL_Driver/Src/stm32l4xx_hal_exti.c ****   * the "License"; You may not use this file except in compliance with the
  80:Drivers/STM32L4xx_HAL_Driver/Src/stm32l4xx_hal_exti.c ****   * License. You may obtain a copy of the License at:
  81:Drivers/STM32L4xx_HAL_Driver/Src/stm32l4xx_hal_exti.c ****   *                        opensource.org/licenses/BSD-3-Clause
  82:Drivers/STM32L4xx_HAL_Driver/Src/stm32l4xx_hal_exti.c ****   *
  83:Drivers/STM32L4xx_HAL_Driver/Src/stm32l4xx_hal_exti.c ****   ******************************************************************************
  84:Drivers/STM32L4xx_HAL_Driver/Src/stm32l4xx_hal_exti.c ****   */
  85:Drivers/STM32L4xx_HAL_Driver/Src/stm32l4xx_hal_exti.c **** 
  86:Drivers/STM32L4xx_HAL_Driver/Src/stm32l4xx_hal_exti.c **** /* Includes ------------------------------------------------------------------*/
  87:Drivers/STM32L4xx_HAL_Driver/Src/stm32l4xx_hal_exti.c **** #include "stm32l4xx_hal.h"
  88:Drivers/STM32L4xx_HAL_Driver/Src/stm32l4xx_hal_exti.c **** 
ARM GAS  C:\Users\hirot\AppData\Local\Temp\ccbtWm2Y.s 			page 3


  89:Drivers/STM32L4xx_HAL_Driver/Src/stm32l4xx_hal_exti.c **** /** @addtogroup STM32L4xx_HAL_Driver
  90:Drivers/STM32L4xx_HAL_Driver/Src/stm32l4xx_hal_exti.c ****   * @{
  91:Drivers/STM32L4xx_HAL_Driver/Src/stm32l4xx_hal_exti.c ****   */
  92:Drivers/STM32L4xx_HAL_Driver/Src/stm32l4xx_hal_exti.c **** 
  93:Drivers/STM32L4xx_HAL_Driver/Src/stm32l4xx_hal_exti.c **** /** @addtogroup EXTI
  94:Drivers/STM32L4xx_HAL_Driver/Src/stm32l4xx_hal_exti.c ****   * @{
  95:Drivers/STM32L4xx_HAL_Driver/Src/stm32l4xx_hal_exti.c ****   */
  96:Drivers/STM32L4xx_HAL_Driver/Src/stm32l4xx_hal_exti.c **** /** MISRA C:2012 deviation rule has been granted for following rule:
  97:Drivers/STM32L4xx_HAL_Driver/Src/stm32l4xx_hal_exti.c ****   * Rule-18.1_b - Medium: Array `EXTICR' 1st subscript interval [0,7] may be out
  98:Drivers/STM32L4xx_HAL_Driver/Src/stm32l4xx_hal_exti.c ****   * of bounds [0,3] in following API :
  99:Drivers/STM32L4xx_HAL_Driver/Src/stm32l4xx_hal_exti.c ****   * HAL_EXTI_SetConfigLine
 100:Drivers/STM32L4xx_HAL_Driver/Src/stm32l4xx_hal_exti.c ****   * HAL_EXTI_GetConfigLine
 101:Drivers/STM32L4xx_HAL_Driver/Src/stm32l4xx_hal_exti.c ****   * HAL_EXTI_ClearConfigLine
 102:Drivers/STM32L4xx_HAL_Driver/Src/stm32l4xx_hal_exti.c ****   */
 103:Drivers/STM32L4xx_HAL_Driver/Src/stm32l4xx_hal_exti.c **** 
 104:Drivers/STM32L4xx_HAL_Driver/Src/stm32l4xx_hal_exti.c **** #ifdef HAL_EXTI_MODULE_ENABLED
 105:Drivers/STM32L4xx_HAL_Driver/Src/stm32l4xx_hal_exti.c **** 
 106:Drivers/STM32L4xx_HAL_Driver/Src/stm32l4xx_hal_exti.c **** /* Private typedef -----------------------------------------------------------*/
 107:Drivers/STM32L4xx_HAL_Driver/Src/stm32l4xx_hal_exti.c **** /* Private defines ------------------------------------------------------------*/
 108:Drivers/STM32L4xx_HAL_Driver/Src/stm32l4xx_hal_exti.c **** /** @defgroup EXTI_Private_Constants EXTI Private Constants
 109:Drivers/STM32L4xx_HAL_Driver/Src/stm32l4xx_hal_exti.c ****   * @{
 110:Drivers/STM32L4xx_HAL_Driver/Src/stm32l4xx_hal_exti.c ****   */
 111:Drivers/STM32L4xx_HAL_Driver/Src/stm32l4xx_hal_exti.c **** #define EXTI_MODE_OFFSET                    0x08u   /* 0x20: offset between MCU IMR/EMR registers *
 112:Drivers/STM32L4xx_HAL_Driver/Src/stm32l4xx_hal_exti.c **** #define EXTI_CONFIG_OFFSET                  0x08u   /* 0x20: offset between MCU Rising/Falling conf
 113:Drivers/STM32L4xx_HAL_Driver/Src/stm32l4xx_hal_exti.c **** /**
 114:Drivers/STM32L4xx_HAL_Driver/Src/stm32l4xx_hal_exti.c ****   * @}
 115:Drivers/STM32L4xx_HAL_Driver/Src/stm32l4xx_hal_exti.c ****   */
 116:Drivers/STM32L4xx_HAL_Driver/Src/stm32l4xx_hal_exti.c **** 
 117:Drivers/STM32L4xx_HAL_Driver/Src/stm32l4xx_hal_exti.c **** /* Private macros ------------------------------------------------------------*/
 118:Drivers/STM32L4xx_HAL_Driver/Src/stm32l4xx_hal_exti.c **** /* Private variables ---------------------------------------------------------*/
 119:Drivers/STM32L4xx_HAL_Driver/Src/stm32l4xx_hal_exti.c **** /* Private function prototypes -----------------------------------------------*/
 120:Drivers/STM32L4xx_HAL_Driver/Src/stm32l4xx_hal_exti.c **** /* Exported functions --------------------------------------------------------*/
 121:Drivers/STM32L4xx_HAL_Driver/Src/stm32l4xx_hal_exti.c **** 
 122:Drivers/STM32L4xx_HAL_Driver/Src/stm32l4xx_hal_exti.c **** /** @addtogroup EXTI_Exported_Functions
 123:Drivers/STM32L4xx_HAL_Driver/Src/stm32l4xx_hal_exti.c ****   * @{
 124:Drivers/STM32L4xx_HAL_Driver/Src/stm32l4xx_hal_exti.c ****   */
 125:Drivers/STM32L4xx_HAL_Driver/Src/stm32l4xx_hal_exti.c **** 
 126:Drivers/STM32L4xx_HAL_Driver/Src/stm32l4xx_hal_exti.c **** /** @addtogroup EXTI_Exported_Functions_Group1
 127:Drivers/STM32L4xx_HAL_Driver/Src/stm32l4xx_hal_exti.c ****  *  @brief    Configuration functions
 128:Drivers/STM32L4xx_HAL_Driver/Src/stm32l4xx_hal_exti.c ****  *
 129:Drivers/STM32L4xx_HAL_Driver/Src/stm32l4xx_hal_exti.c **** @verbatim
 130:Drivers/STM32L4xx_HAL_Driver/Src/stm32l4xx_hal_exti.c ****  ===============================================================================
 131:Drivers/STM32L4xx_HAL_Driver/Src/stm32l4xx_hal_exti.c ****               ##### Configuration functions #####
 132:Drivers/STM32L4xx_HAL_Driver/Src/stm32l4xx_hal_exti.c ****  ===============================================================================
 133:Drivers/STM32L4xx_HAL_Driver/Src/stm32l4xx_hal_exti.c **** 
 134:Drivers/STM32L4xx_HAL_Driver/Src/stm32l4xx_hal_exti.c **** @endverbatim
 135:Drivers/STM32L4xx_HAL_Driver/Src/stm32l4xx_hal_exti.c ****   * @{
 136:Drivers/STM32L4xx_HAL_Driver/Src/stm32l4xx_hal_exti.c ****   */
 137:Drivers/STM32L4xx_HAL_Driver/Src/stm32l4xx_hal_exti.c **** 
 138:Drivers/STM32L4xx_HAL_Driver/Src/stm32l4xx_hal_exti.c **** /**
 139:Drivers/STM32L4xx_HAL_Driver/Src/stm32l4xx_hal_exti.c ****   * @brief  Set configuration of a dedicated Exti line.
 140:Drivers/STM32L4xx_HAL_Driver/Src/stm32l4xx_hal_exti.c ****   * @param  hexti Exti handle.
 141:Drivers/STM32L4xx_HAL_Driver/Src/stm32l4xx_hal_exti.c ****   * @param  pExtiConfig Pointer on EXTI configuration to be set.
 142:Drivers/STM32L4xx_HAL_Driver/Src/stm32l4xx_hal_exti.c ****   * @retval HAL Status.
 143:Drivers/STM32L4xx_HAL_Driver/Src/stm32l4xx_hal_exti.c ****   */
 144:Drivers/STM32L4xx_HAL_Driver/Src/stm32l4xx_hal_exti.c **** HAL_StatusTypeDef HAL_EXTI_SetConfigLine(EXTI_HandleTypeDef *hexti, EXTI_ConfigTypeDef *pExtiConfig
 145:Drivers/STM32L4xx_HAL_Driver/Src/stm32l4xx_hal_exti.c **** {
ARM GAS  C:\Users\hirot\AppData\Local\Temp\ccbtWm2Y.s 			page 4


  28              		.loc 1 145 0
  29              		.cfi_startproc
  30              		@ args = 0, pretend = 0, frame = 0
  31              		@ frame_needed = 0, uses_anonymous_args = 0
  32              	.LVL0:
 146:Drivers/STM32L4xx_HAL_Driver/Src/stm32l4xx_hal_exti.c ****   __IO uint32_t *regaddr;
 147:Drivers/STM32L4xx_HAL_Driver/Src/stm32l4xx_hal_exti.c ****   uint32_t regval;
 148:Drivers/STM32L4xx_HAL_Driver/Src/stm32l4xx_hal_exti.c ****   uint32_t linepos;
 149:Drivers/STM32L4xx_HAL_Driver/Src/stm32l4xx_hal_exti.c ****   uint32_t maskline;
 150:Drivers/STM32L4xx_HAL_Driver/Src/stm32l4xx_hal_exti.c ****   uint32_t offset;
 151:Drivers/STM32L4xx_HAL_Driver/Src/stm32l4xx_hal_exti.c **** 
 152:Drivers/STM32L4xx_HAL_Driver/Src/stm32l4xx_hal_exti.c ****   /* Check null pointer */
 153:Drivers/STM32L4xx_HAL_Driver/Src/stm32l4xx_hal_exti.c ****   if ((hexti == NULL) || (pExtiConfig == NULL))
  33              		.loc 1 153 0
  34 0000 0028     		cmp	r0, #0
  35 0002 5ED0     		beq	.L12
  36              		.loc 1 153 0 is_stmt 0 discriminator 1
  37 0004 0029     		cmp	r1, #0
  38 0006 5ED0     		beq	.L13
 145:Drivers/STM32L4xx_HAL_Driver/Src/stm32l4xx_hal_exti.c ****   __IO uint32_t *regaddr;
  39              		.loc 1 145 0 is_stmt 1
  40 0008 F0B5     		push	{r4, r5, r6, r7, lr}
  41              	.LCFI0:
  42              		.cfi_def_cfa_offset 20
  43              		.cfi_offset 4, -20
  44              		.cfi_offset 5, -16
  45              		.cfi_offset 6, -12
  46              		.cfi_offset 7, -8
  47              		.cfi_offset 14, -4
 154:Drivers/STM32L4xx_HAL_Driver/Src/stm32l4xx_hal_exti.c ****   {
 155:Drivers/STM32L4xx_HAL_Driver/Src/stm32l4xx_hal_exti.c ****     return HAL_ERROR;
 156:Drivers/STM32L4xx_HAL_Driver/Src/stm32l4xx_hal_exti.c ****   }
 157:Drivers/STM32L4xx_HAL_Driver/Src/stm32l4xx_hal_exti.c **** 
 158:Drivers/STM32L4xx_HAL_Driver/Src/stm32l4xx_hal_exti.c ****   /* Check parameters */
 159:Drivers/STM32L4xx_HAL_Driver/Src/stm32l4xx_hal_exti.c ****   assert_param(IS_EXTI_LINE(pExtiConfig->Line));
 160:Drivers/STM32L4xx_HAL_Driver/Src/stm32l4xx_hal_exti.c ****   assert_param(IS_EXTI_MODE(pExtiConfig->Mode));
 161:Drivers/STM32L4xx_HAL_Driver/Src/stm32l4xx_hal_exti.c **** 
 162:Drivers/STM32L4xx_HAL_Driver/Src/stm32l4xx_hal_exti.c ****   /* Assign line number to handle */
 163:Drivers/STM32L4xx_HAL_Driver/Src/stm32l4xx_hal_exti.c ****   hexti->Line = pExtiConfig->Line;
  48              		.loc 1 163 0
  49 000a 0A68     		ldr	r2, [r1]
  50 000c 0260     		str	r2, [r0]
 164:Drivers/STM32L4xx_HAL_Driver/Src/stm32l4xx_hal_exti.c **** 
 165:Drivers/STM32L4xx_HAL_Driver/Src/stm32l4xx_hal_exti.c ****   /* Compute line register offset and line mask */
 166:Drivers/STM32L4xx_HAL_Driver/Src/stm32l4xx_hal_exti.c ****   offset = ((pExtiConfig->Line & EXTI_REG_MASK) >> EXTI_REG_SHIFT);
  51              		.loc 1 166 0
  52 000e 0868     		ldr	r0, [r1]
  53              	.LVL1:
  54 0010 C0F30043 		ubfx	r3, r0, #16, #1
  55              	.LVL2:
 167:Drivers/STM32L4xx_HAL_Driver/Src/stm32l4xx_hal_exti.c ****   linepos = (pExtiConfig->Line & EXTI_PIN_MASK);
  56              		.loc 1 167 0
  57 0014 00F01F04 		and	r4, r0, #31
  58              	.LVL3:
 168:Drivers/STM32L4xx_HAL_Driver/Src/stm32l4xx_hal_exti.c ****   maskline = (1uL << linepos);
  59              		.loc 1 168 0
  60 0018 0122     		movs	r2, #1
ARM GAS  C:\Users\hirot\AppData\Local\Temp\ccbtWm2Y.s 			page 5


  61 001a A240     		lsls	r2, r2, r4
  62              	.LVL4:
 169:Drivers/STM32L4xx_HAL_Driver/Src/stm32l4xx_hal_exti.c **** 
 170:Drivers/STM32L4xx_HAL_Driver/Src/stm32l4xx_hal_exti.c ****   /* Configure triggers for configurable lines */
 171:Drivers/STM32L4xx_HAL_Driver/Src/stm32l4xx_hal_exti.c ****   if ((pExtiConfig->Line & EXTI_CONFIG) != 0x00u)
  63              		.loc 1 171 0
  64 001c 10F0007F 		tst	r0, #33554432
  65 0020 1AD0     		beq	.L3
 172:Drivers/STM32L4xx_HAL_Driver/Src/stm32l4xx_hal_exti.c ****   {
 173:Drivers/STM32L4xx_HAL_Driver/Src/stm32l4xx_hal_exti.c ****     assert_param(IS_EXTI_TRIGGER(pExtiConfig->Trigger));
 174:Drivers/STM32L4xx_HAL_Driver/Src/stm32l4xx_hal_exti.c **** 
 175:Drivers/STM32L4xx_HAL_Driver/Src/stm32l4xx_hal_exti.c ****     /* Configure rising trigger */
 176:Drivers/STM32L4xx_HAL_Driver/Src/stm32l4xx_hal_exti.c ****     regaddr = (&EXTI->RTSR1 + (EXTI_CONFIG_OFFSET * offset));
  66              		.loc 1 176 0
  67 0022 5D01     		lsls	r5, r3, #5
  68 0024 294F     		ldr	r7, .L19
  69              	.LVL5:
 177:Drivers/STM32L4xx_HAL_Driver/Src/stm32l4xx_hal_exti.c ****     regval = *regaddr;
  70              		.loc 1 177 0
  71 0026 55F807E0 		ldr	lr, [r5, r7]
  72              	.LVL6:
 178:Drivers/STM32L4xx_HAL_Driver/Src/stm32l4xx_hal_exti.c **** 
 179:Drivers/STM32L4xx_HAL_Driver/Src/stm32l4xx_hal_exti.c ****     /* Mask or set line */
 180:Drivers/STM32L4xx_HAL_Driver/Src/stm32l4xx_hal_exti.c ****     if ((pExtiConfig->Trigger & EXTI_TRIGGER_RISING) != 0x00u)
  73              		.loc 1 180 0
  74 002a 8E68     		ldr	r6, [r1, #8]
  75 002c 16F0010F 		tst	r6, #1
  76 0030 28D0     		beq	.L4
 181:Drivers/STM32L4xx_HAL_Driver/Src/stm32l4xx_hal_exti.c ****     {
 182:Drivers/STM32L4xx_HAL_Driver/Src/stm32l4xx_hal_exti.c ****       regval |= maskline;
  77              		.loc 1 182 0
  78 0032 4EEA0206 		orr	r6, lr, r2
  79              	.LVL7:
  80              	.L5:
 183:Drivers/STM32L4xx_HAL_Driver/Src/stm32l4xx_hal_exti.c ****     }
 184:Drivers/STM32L4xx_HAL_Driver/Src/stm32l4xx_hal_exti.c ****     else
 185:Drivers/STM32L4xx_HAL_Driver/Src/stm32l4xx_hal_exti.c ****     {
 186:Drivers/STM32L4xx_HAL_Driver/Src/stm32l4xx_hal_exti.c ****       regval &= ~maskline;
 187:Drivers/STM32L4xx_HAL_Driver/Src/stm32l4xx_hal_exti.c ****     }
 188:Drivers/STM32L4xx_HAL_Driver/Src/stm32l4xx_hal_exti.c **** 
 189:Drivers/STM32L4xx_HAL_Driver/Src/stm32l4xx_hal_exti.c ****     /* Store rising trigger mode */
 190:Drivers/STM32L4xx_HAL_Driver/Src/stm32l4xx_hal_exti.c ****     *regaddr = regval;
  81              		.loc 1 190 0
  82 0036 EE51     		str	r6, [r5, r7]
 191:Drivers/STM32L4xx_HAL_Driver/Src/stm32l4xx_hal_exti.c **** 
 192:Drivers/STM32L4xx_HAL_Driver/Src/stm32l4xx_hal_exti.c ****     /* Configure falling trigger */
 193:Drivers/STM32L4xx_HAL_Driver/Src/stm32l4xx_hal_exti.c ****     regaddr = (&EXTI->FTSR1 + (EXTI_CONFIG_OFFSET * offset));
  83              		.loc 1 193 0
  84 0038 254F     		ldr	r7, .L19+4
  85              	.LVL8:
 194:Drivers/STM32L4xx_HAL_Driver/Src/stm32l4xx_hal_exti.c ****     regval = *regaddr;
  86              		.loc 1 194 0
  87 003a 55F807E0 		ldr	lr, [r5, r7]
  88              	.LVL9:
 195:Drivers/STM32L4xx_HAL_Driver/Src/stm32l4xx_hal_exti.c **** 
 196:Drivers/STM32L4xx_HAL_Driver/Src/stm32l4xx_hal_exti.c ****     /* Mask or set line */
 197:Drivers/STM32L4xx_HAL_Driver/Src/stm32l4xx_hal_exti.c ****     if ((pExtiConfig->Trigger & EXTI_TRIGGER_FALLING) != 0x00u)
ARM GAS  C:\Users\hirot\AppData\Local\Temp\ccbtWm2Y.s 			page 6


  89              		.loc 1 197 0
  90 003e 8E68     		ldr	r6, [r1, #8]
  91 0040 16F0020F 		tst	r6, #2
  92 0044 21D0     		beq	.L6
 198:Drivers/STM32L4xx_HAL_Driver/Src/stm32l4xx_hal_exti.c ****     {
 199:Drivers/STM32L4xx_HAL_Driver/Src/stm32l4xx_hal_exti.c ****       regval |= maskline;
  93              		.loc 1 199 0
  94 0046 4EEA0206 		orr	r6, lr, r2
  95              	.LVL10:
  96              	.L7:
 200:Drivers/STM32L4xx_HAL_Driver/Src/stm32l4xx_hal_exti.c ****     }
 201:Drivers/STM32L4xx_HAL_Driver/Src/stm32l4xx_hal_exti.c ****     else
 202:Drivers/STM32L4xx_HAL_Driver/Src/stm32l4xx_hal_exti.c ****     {
 203:Drivers/STM32L4xx_HAL_Driver/Src/stm32l4xx_hal_exti.c ****       regval &= ~maskline;
 204:Drivers/STM32L4xx_HAL_Driver/Src/stm32l4xx_hal_exti.c ****     }
 205:Drivers/STM32L4xx_HAL_Driver/Src/stm32l4xx_hal_exti.c **** 
 206:Drivers/STM32L4xx_HAL_Driver/Src/stm32l4xx_hal_exti.c ****     /* Store falling trigger mode */
 207:Drivers/STM32L4xx_HAL_Driver/Src/stm32l4xx_hal_exti.c ****     *regaddr = regval;
  97              		.loc 1 207 0
  98 004a EE51     		str	r6, [r5, r7]
 208:Drivers/STM32L4xx_HAL_Driver/Src/stm32l4xx_hal_exti.c **** 
 209:Drivers/STM32L4xx_HAL_Driver/Src/stm32l4xx_hal_exti.c ****     /* Configure gpio port selection in case of gpio exti line */
 210:Drivers/STM32L4xx_HAL_Driver/Src/stm32l4xx_hal_exti.c ****     if ((pExtiConfig->Line & EXTI_GPIO) == EXTI_GPIO)
  99              		.loc 1 210 0
 100 004c 0D68     		ldr	r5, [r1]
 101              	.LVL11:
 102 004e 05F0C065 		and	r5, r5, #100663296
 103 0052 B5F1C06F 		cmp	r5, #100663296
 104 0056 1BD0     		beq	.L18
 105              	.LVL12:
 106              	.L3:
 211:Drivers/STM32L4xx_HAL_Driver/Src/stm32l4xx_hal_exti.c ****     {
 212:Drivers/STM32L4xx_HAL_Driver/Src/stm32l4xx_hal_exti.c ****       assert_param(IS_EXTI_GPIO_PORT(pExtiConfig->GPIOSel));
 213:Drivers/STM32L4xx_HAL_Driver/Src/stm32l4xx_hal_exti.c ****       assert_param(IS_EXTI_GPIO_PIN(linepos));
 214:Drivers/STM32L4xx_HAL_Driver/Src/stm32l4xx_hal_exti.c **** 
 215:Drivers/STM32L4xx_HAL_Driver/Src/stm32l4xx_hal_exti.c ****       regval = SYSCFG->EXTICR[linepos >> 2u];
 216:Drivers/STM32L4xx_HAL_Driver/Src/stm32l4xx_hal_exti.c ****       regval &= ~(SYSCFG_EXTICR1_EXTI0 << (SYSCFG_EXTICR1_EXTI1_Pos * (linepos & 0x03u)));
 217:Drivers/STM32L4xx_HAL_Driver/Src/stm32l4xx_hal_exti.c ****       regval |= (pExtiConfig->GPIOSel << (SYSCFG_EXTICR1_EXTI1_Pos * (linepos & 0x03u)));
 218:Drivers/STM32L4xx_HAL_Driver/Src/stm32l4xx_hal_exti.c ****       SYSCFG->EXTICR[linepos >> 2u] = regval;
 219:Drivers/STM32L4xx_HAL_Driver/Src/stm32l4xx_hal_exti.c ****     }
 220:Drivers/STM32L4xx_HAL_Driver/Src/stm32l4xx_hal_exti.c ****   }
 221:Drivers/STM32L4xx_HAL_Driver/Src/stm32l4xx_hal_exti.c **** 
 222:Drivers/STM32L4xx_HAL_Driver/Src/stm32l4xx_hal_exti.c ****   /* Configure interrupt mode : read current mode */
 223:Drivers/STM32L4xx_HAL_Driver/Src/stm32l4xx_hal_exti.c ****   regaddr = (&EXTI->IMR1 + (EXTI_MODE_OFFSET * offset));
 107              		.loc 1 223 0
 108 0058 5B01     		lsls	r3, r3, #5
 109              	.LVL13:
 110 005a 03F18040 		add	r0, r3, #1073741824
 111 005e 00F58230 		add	r0, r0, #66560
 112              	.LVL14:
 224:Drivers/STM32L4xx_HAL_Driver/Src/stm32l4xx_hal_exti.c ****   regval = *regaddr;
 113              		.loc 1 224 0
 114 0062 0468     		ldr	r4, [r0]
 115              	.LVL15:
 225:Drivers/STM32L4xx_HAL_Driver/Src/stm32l4xx_hal_exti.c **** 
 226:Drivers/STM32L4xx_HAL_Driver/Src/stm32l4xx_hal_exti.c ****   /* Mask or set line */
 227:Drivers/STM32L4xx_HAL_Driver/Src/stm32l4xx_hal_exti.c ****   if ((pExtiConfig->Mode & EXTI_MODE_INTERRUPT) != 0x00u)
ARM GAS  C:\Users\hirot\AppData\Local\Temp\ccbtWm2Y.s 			page 7


 116              		.loc 1 227 0
 117 0064 4D68     		ldr	r5, [r1, #4]
 118 0066 15F0010F 		tst	r5, #1
 119 006a 24D0     		beq	.L8
 228:Drivers/STM32L4xx_HAL_Driver/Src/stm32l4xx_hal_exti.c ****   {
 229:Drivers/STM32L4xx_HAL_Driver/Src/stm32l4xx_hal_exti.c ****     regval |= maskline;
 120              		.loc 1 229 0
 121 006c 1443     		orrs	r4, r4, r2
 122              	.LVL16:
 123              	.L9:
 230:Drivers/STM32L4xx_HAL_Driver/Src/stm32l4xx_hal_exti.c ****   }
 231:Drivers/STM32L4xx_HAL_Driver/Src/stm32l4xx_hal_exti.c ****   else
 232:Drivers/STM32L4xx_HAL_Driver/Src/stm32l4xx_hal_exti.c ****   {
 233:Drivers/STM32L4xx_HAL_Driver/Src/stm32l4xx_hal_exti.c ****     regval &= ~maskline;
 234:Drivers/STM32L4xx_HAL_Driver/Src/stm32l4xx_hal_exti.c ****   }
 235:Drivers/STM32L4xx_HAL_Driver/Src/stm32l4xx_hal_exti.c **** 
 236:Drivers/STM32L4xx_HAL_Driver/Src/stm32l4xx_hal_exti.c ****   /* Store interrupt mode */
 237:Drivers/STM32L4xx_HAL_Driver/Src/stm32l4xx_hal_exti.c ****   *regaddr = regval;
 124              		.loc 1 237 0
 125 006e 0460     		str	r4, [r0]
 238:Drivers/STM32L4xx_HAL_Driver/Src/stm32l4xx_hal_exti.c **** 
 239:Drivers/STM32L4xx_HAL_Driver/Src/stm32l4xx_hal_exti.c ****   /* The event mode cannot be configured if the line does not support it */
 240:Drivers/STM32L4xx_HAL_Driver/Src/stm32l4xx_hal_exti.c ****   assert_param(((pExtiConfig->Line & EXTI_EVENT) == EXTI_EVENT) || ((pExtiConfig->Mode & EXTI_MODE_
 241:Drivers/STM32L4xx_HAL_Driver/Src/stm32l4xx_hal_exti.c **** 
 242:Drivers/STM32L4xx_HAL_Driver/Src/stm32l4xx_hal_exti.c ****   /* Configure event mode : read current mode */
 243:Drivers/STM32L4xx_HAL_Driver/Src/stm32l4xx_hal_exti.c ****   regaddr = (&EXTI->EMR1 + (EXTI_MODE_OFFSET * offset));
 126              		.loc 1 243 0
 127 0070 184C     		ldr	r4, .L19+8
 128              	.LVL17:
 244:Drivers/STM32L4xx_HAL_Driver/Src/stm32l4xx_hal_exti.c ****   regval = *regaddr;
 129              		.loc 1 244 0
 130 0072 1859     		ldr	r0, [r3, r4]
 131              	.LVL18:
 245:Drivers/STM32L4xx_HAL_Driver/Src/stm32l4xx_hal_exti.c **** 
 246:Drivers/STM32L4xx_HAL_Driver/Src/stm32l4xx_hal_exti.c ****   /* Mask or set line */
 247:Drivers/STM32L4xx_HAL_Driver/Src/stm32l4xx_hal_exti.c ****   if ((pExtiConfig->Mode & EXTI_MODE_EVENT) != 0x00u)
 132              		.loc 1 247 0
 133 0074 4968     		ldr	r1, [r1, #4]
 134              	.LVL19:
 135 0076 11F0020F 		tst	r1, #2
 136 007a 1FD0     		beq	.L10
 248:Drivers/STM32L4xx_HAL_Driver/Src/stm32l4xx_hal_exti.c ****   {
 249:Drivers/STM32L4xx_HAL_Driver/Src/stm32l4xx_hal_exti.c ****     regval |= maskline;
 137              		.loc 1 249 0
 138 007c 0243     		orrs	r2, r2, r0
 139              	.LVL20:
 140              	.L11:
 250:Drivers/STM32L4xx_HAL_Driver/Src/stm32l4xx_hal_exti.c ****   }
 251:Drivers/STM32L4xx_HAL_Driver/Src/stm32l4xx_hal_exti.c ****   else
 252:Drivers/STM32L4xx_HAL_Driver/Src/stm32l4xx_hal_exti.c ****   {
 253:Drivers/STM32L4xx_HAL_Driver/Src/stm32l4xx_hal_exti.c ****     regval &= ~maskline;
 254:Drivers/STM32L4xx_HAL_Driver/Src/stm32l4xx_hal_exti.c ****   }
 255:Drivers/STM32L4xx_HAL_Driver/Src/stm32l4xx_hal_exti.c **** 
 256:Drivers/STM32L4xx_HAL_Driver/Src/stm32l4xx_hal_exti.c ****   /* Store event mode */
 257:Drivers/STM32L4xx_HAL_Driver/Src/stm32l4xx_hal_exti.c ****   *regaddr = regval;
 141              		.loc 1 257 0
 142 007e 1A51     		str	r2, [r3, r4]
ARM GAS  C:\Users\hirot\AppData\Local\Temp\ccbtWm2Y.s 			page 8


 258:Drivers/STM32L4xx_HAL_Driver/Src/stm32l4xx_hal_exti.c **** 
 259:Drivers/STM32L4xx_HAL_Driver/Src/stm32l4xx_hal_exti.c ****   return HAL_OK;
 143              		.loc 1 259 0
 144 0080 0020     		movs	r0, #0
 145 0082 F0BD     		pop	{r4, r5, r6, r7, pc}
 146              	.LVL21:
 147              	.L4:
 186:Drivers/STM32L4xx_HAL_Driver/Src/stm32l4xx_hal_exti.c ****     }
 148              		.loc 1 186 0
 149 0084 2EEA0206 		bic	r6, lr, r2
 150              	.LVL22:
 151 0088 D5E7     		b	.L5
 152              	.LVL23:
 153              	.L6:
 203:Drivers/STM32L4xx_HAL_Driver/Src/stm32l4xx_hal_exti.c ****     }
 154              		.loc 1 203 0
 155 008a 2EEA0206 		bic	r6, lr, r2
 156              	.LVL24:
 157 008e DCE7     		b	.L7
 158              	.LVL25:
 159              	.L18:
 215:Drivers/STM32L4xx_HAL_Driver/Src/stm32l4xx_hal_exti.c ****       regval &= ~(SYSCFG_EXTICR1_EXTI0 << (SYSCFG_EXTICR1_EXTI1_Pos * (linepos & 0x03u)));
 160              		.loc 1 215 0
 161 0090 A408     		lsrs	r4, r4, #2
 162              	.LVL26:
 163 0092 114F     		ldr	r7, .L19+12
 164              	.LVL27:
 165 0094 0234     		adds	r4, r4, #2
 166 0096 57F82450 		ldr	r5, [r7, r4, lsl #2]
 167              	.LVL28:
 216:Drivers/STM32L4xx_HAL_Driver/Src/stm32l4xx_hal_exti.c ****       regval |= (pExtiConfig->GPIOSel << (SYSCFG_EXTICR1_EXTI1_Pos * (linepos & 0x03u)));
 168              		.loc 1 216 0
 169 009a 00F00300 		and	r0, r0, #3
 170              	.LVL29:
 171 009e 8000     		lsls	r0, r0, #2
 172 00a0 0726     		movs	r6, #7
 173 00a2 8640     		lsls	r6, r6, r0
 174 00a4 25EA0605 		bic	r5, r5, r6
 175              	.LVL30:
 217:Drivers/STM32L4xx_HAL_Driver/Src/stm32l4xx_hal_exti.c ****       SYSCFG->EXTICR[linepos >> 2u] = regval;
 176              		.loc 1 217 0
 177 00a8 CE68     		ldr	r6, [r1, #12]
 178 00aa 06FA00F0 		lsl	r0, r6, r0
 179 00ae 2843     		orrs	r0, r0, r5
 180              	.LVL31:
 218:Drivers/STM32L4xx_HAL_Driver/Src/stm32l4xx_hal_exti.c ****     }
 181              		.loc 1 218 0
 182 00b0 47F82400 		str	r0, [r7, r4, lsl #2]
 183 00b4 D0E7     		b	.L3
 184              	.LVL32:
 185              	.L8:
 233:Drivers/STM32L4xx_HAL_Driver/Src/stm32l4xx_hal_exti.c ****   }
 186              		.loc 1 233 0
 187 00b6 24EA0204 		bic	r4, r4, r2
 188              	.LVL33:
 189 00ba D8E7     		b	.L9
 190              	.LVL34:
ARM GAS  C:\Users\hirot\AppData\Local\Temp\ccbtWm2Y.s 			page 9


 191              	.L10:
 253:Drivers/STM32L4xx_HAL_Driver/Src/stm32l4xx_hal_exti.c ****   }
 192              		.loc 1 253 0
 193 00bc 20EA0202 		bic	r2, r0, r2
 194              	.LVL35:
 195 00c0 DDE7     		b	.L11
 196              	.LVL36:
 197              	.L12:
 198              	.LCFI1:
 199              		.cfi_def_cfa_offset 0
 200              		.cfi_restore 4
 201              		.cfi_restore 5
 202              		.cfi_restore 6
 203              		.cfi_restore 7
 204              		.cfi_restore 14
 155:Drivers/STM32L4xx_HAL_Driver/Src/stm32l4xx_hal_exti.c ****   }
 205              		.loc 1 155 0
 206 00c2 0120     		movs	r0, #1
 207              	.LVL37:
 208 00c4 7047     		bx	lr
 209              	.LVL38:
 210              	.L13:
 211 00c6 0120     		movs	r0, #1
 212              	.LVL39:
 213 00c8 7047     		bx	lr
 214              	.L20:
 215 00ca 00BF     		.align	2
 216              	.L19:
 217 00cc 08040140 		.word	1073808392
 218 00d0 0C040140 		.word	1073808396
 219 00d4 04040140 		.word	1073808388
 220 00d8 00000140 		.word	1073807360
 221              		.cfi_endproc
 222              	.LFE130:
 224              		.section	.text.HAL_EXTI_GetConfigLine,"ax",%progbits
 225              		.align	1
 226              		.global	HAL_EXTI_GetConfigLine
 227              		.syntax unified
 228              		.thumb
 229              		.thumb_func
 230              		.fpu fpv4-sp-d16
 232              	HAL_EXTI_GetConfigLine:
 233              	.LFB131:
 260:Drivers/STM32L4xx_HAL_Driver/Src/stm32l4xx_hal_exti.c **** }
 261:Drivers/STM32L4xx_HAL_Driver/Src/stm32l4xx_hal_exti.c **** 
 262:Drivers/STM32L4xx_HAL_Driver/Src/stm32l4xx_hal_exti.c **** 
 263:Drivers/STM32L4xx_HAL_Driver/Src/stm32l4xx_hal_exti.c **** /**
 264:Drivers/STM32L4xx_HAL_Driver/Src/stm32l4xx_hal_exti.c ****   * @brief  Get configuration of a dedicated Exti line.
 265:Drivers/STM32L4xx_HAL_Driver/Src/stm32l4xx_hal_exti.c ****   * @param  hexti Exti handle.
 266:Drivers/STM32L4xx_HAL_Driver/Src/stm32l4xx_hal_exti.c ****   * @param  pExtiConfig Pointer on structure to store Exti configuration.
 267:Drivers/STM32L4xx_HAL_Driver/Src/stm32l4xx_hal_exti.c ****   * @retval HAL Status.
 268:Drivers/STM32L4xx_HAL_Driver/Src/stm32l4xx_hal_exti.c ****   */
 269:Drivers/STM32L4xx_HAL_Driver/Src/stm32l4xx_hal_exti.c **** HAL_StatusTypeDef HAL_EXTI_GetConfigLine(EXTI_HandleTypeDef *hexti, EXTI_ConfigTypeDef *pExtiConfig
 270:Drivers/STM32L4xx_HAL_Driver/Src/stm32l4xx_hal_exti.c **** {
 234              		.loc 1 270 0
 235              		.cfi_startproc
 236              		@ args = 0, pretend = 0, frame = 0
ARM GAS  C:\Users\hirot\AppData\Local\Temp\ccbtWm2Y.s 			page 10


 237              		@ frame_needed = 0, uses_anonymous_args = 0
 238              		@ link register save eliminated.
 239              	.LVL40:
 271:Drivers/STM32L4xx_HAL_Driver/Src/stm32l4xx_hal_exti.c ****   __IO uint32_t *regaddr;
 272:Drivers/STM32L4xx_HAL_Driver/Src/stm32l4xx_hal_exti.c ****   uint32_t regval;
 273:Drivers/STM32L4xx_HAL_Driver/Src/stm32l4xx_hal_exti.c ****   uint32_t linepos;
 274:Drivers/STM32L4xx_HAL_Driver/Src/stm32l4xx_hal_exti.c ****   uint32_t maskline;
 275:Drivers/STM32L4xx_HAL_Driver/Src/stm32l4xx_hal_exti.c ****   uint32_t offset;
 276:Drivers/STM32L4xx_HAL_Driver/Src/stm32l4xx_hal_exti.c **** 
 277:Drivers/STM32L4xx_HAL_Driver/Src/stm32l4xx_hal_exti.c ****   /* Check null pointer */
 278:Drivers/STM32L4xx_HAL_Driver/Src/stm32l4xx_hal_exti.c ****   if ((hexti == NULL) || (pExtiConfig == NULL))
 240              		.loc 1 278 0
 241 0000 0028     		cmp	r0, #0
 242 0002 4FD0     		beq	.L31
 243              		.loc 1 278 0 is_stmt 0 discriminator 1
 244 0004 0029     		cmp	r1, #0
 245 0006 4FD0     		beq	.L32
 270:Drivers/STM32L4xx_HAL_Driver/Src/stm32l4xx_hal_exti.c ****   __IO uint32_t *regaddr;
 246              		.loc 1 270 0 is_stmt 1
 247 0008 30B4     		push	{r4, r5}
 248              	.LCFI2:
 249              		.cfi_def_cfa_offset 8
 250              		.cfi_offset 4, -8
 251              		.cfi_offset 5, -4
 279:Drivers/STM32L4xx_HAL_Driver/Src/stm32l4xx_hal_exti.c ****   {
 280:Drivers/STM32L4xx_HAL_Driver/Src/stm32l4xx_hal_exti.c ****     return HAL_ERROR;
 281:Drivers/STM32L4xx_HAL_Driver/Src/stm32l4xx_hal_exti.c ****   }
 282:Drivers/STM32L4xx_HAL_Driver/Src/stm32l4xx_hal_exti.c **** 
 283:Drivers/STM32L4xx_HAL_Driver/Src/stm32l4xx_hal_exti.c ****   /* Check the parameter */
 284:Drivers/STM32L4xx_HAL_Driver/Src/stm32l4xx_hal_exti.c ****   assert_param(IS_EXTI_LINE(hexti->Line));
 285:Drivers/STM32L4xx_HAL_Driver/Src/stm32l4xx_hal_exti.c **** 
 286:Drivers/STM32L4xx_HAL_Driver/Src/stm32l4xx_hal_exti.c ****   /* Store handle line number to configuration structure */
 287:Drivers/STM32L4xx_HAL_Driver/Src/stm32l4xx_hal_exti.c ****   pExtiConfig->Line = hexti->Line;
 252              		.loc 1 287 0
 253 000a 0368     		ldr	r3, [r0]
 254 000c 0B60     		str	r3, [r1]
 288:Drivers/STM32L4xx_HAL_Driver/Src/stm32l4xx_hal_exti.c **** 
 289:Drivers/STM32L4xx_HAL_Driver/Src/stm32l4xx_hal_exti.c ****   /* Compute line register offset and line mask */
 290:Drivers/STM32L4xx_HAL_Driver/Src/stm32l4xx_hal_exti.c ****   offset = ((pExtiConfig->Line & EXTI_REG_MASK) >> EXTI_REG_SHIFT);
 255              		.loc 1 290 0
 256 000e C3F30040 		ubfx	r0, r3, #16, #1
 257              	.LVL41:
 291:Drivers/STM32L4xx_HAL_Driver/Src/stm32l4xx_hal_exti.c ****   linepos = (pExtiConfig->Line & EXTI_PIN_MASK);
 258              		.loc 1 291 0
 259 0012 03F01F05 		and	r5, r3, #31
 260              	.LVL42:
 292:Drivers/STM32L4xx_HAL_Driver/Src/stm32l4xx_hal_exti.c ****   maskline = (1uL << linepos);
 261              		.loc 1 292 0
 262 0016 0122     		movs	r2, #1
 263 0018 AA40     		lsls	r2, r2, r5
 264              	.LVL43:
 293:Drivers/STM32L4xx_HAL_Driver/Src/stm32l4xx_hal_exti.c **** 
 294:Drivers/STM32L4xx_HAL_Driver/Src/stm32l4xx_hal_exti.c ****   /* 1] Get core mode : interrupt */
 295:Drivers/STM32L4xx_HAL_Driver/Src/stm32l4xx_hal_exti.c ****   regaddr = (&EXTI->IMR1 + (EXTI_MODE_OFFSET * offset));
 265              		.loc 1 295 0
 266 001a 4001     		lsls	r0, r0, #5
 267              	.LVL44:
ARM GAS  C:\Users\hirot\AppData\Local\Temp\ccbtWm2Y.s 			page 11


 268 001c 00F18044 		add	r4, r0, #1073741824
 269 0020 04F58234 		add	r4, r4, #66560
 270              	.LVL45:
 296:Drivers/STM32L4xx_HAL_Driver/Src/stm32l4xx_hal_exti.c ****   regval = *regaddr;
 271              		.loc 1 296 0
 272 0024 2468     		ldr	r4, [r4]
 273              	.LVL46:
 297:Drivers/STM32L4xx_HAL_Driver/Src/stm32l4xx_hal_exti.c **** 
 298:Drivers/STM32L4xx_HAL_Driver/Src/stm32l4xx_hal_exti.c ****   /* Check if selected line is enable */
 299:Drivers/STM32L4xx_HAL_Driver/Src/stm32l4xx_hal_exti.c ****   if ((regval & maskline) != 0x00u)
 274              		.loc 1 299 0
 275 0026 2242     		tst	r2, r4
 276 0028 22D0     		beq	.L23
 300:Drivers/STM32L4xx_HAL_Driver/Src/stm32l4xx_hal_exti.c ****   {
 301:Drivers/STM32L4xx_HAL_Driver/Src/stm32l4xx_hal_exti.c ****     pExtiConfig->Mode = EXTI_MODE_INTERRUPT;
 277              		.loc 1 301 0
 278 002a 0124     		movs	r4, #1
 279              	.LVL47:
 280 002c 4C60     		str	r4, [r1, #4]
 281              	.L24:
 302:Drivers/STM32L4xx_HAL_Driver/Src/stm32l4xx_hal_exti.c ****   }
 303:Drivers/STM32L4xx_HAL_Driver/Src/stm32l4xx_hal_exti.c ****   else
 304:Drivers/STM32L4xx_HAL_Driver/Src/stm32l4xx_hal_exti.c ****   {
 305:Drivers/STM32L4xx_HAL_Driver/Src/stm32l4xx_hal_exti.c ****     pExtiConfig->Mode = EXTI_MODE_NONE;
 306:Drivers/STM32L4xx_HAL_Driver/Src/stm32l4xx_hal_exti.c ****   }
 307:Drivers/STM32L4xx_HAL_Driver/Src/stm32l4xx_hal_exti.c **** 
 308:Drivers/STM32L4xx_HAL_Driver/Src/stm32l4xx_hal_exti.c ****   /* Get event mode */
 309:Drivers/STM32L4xx_HAL_Driver/Src/stm32l4xx_hal_exti.c ****   regaddr = (&EXTI->EMR1 + (EXTI_MODE_OFFSET * offset));
 282              		.loc 1 309 0
 283 002e 1F4C     		ldr	r4, .L38
 284              	.LVL48:
 310:Drivers/STM32L4xx_HAL_Driver/Src/stm32l4xx_hal_exti.c ****   regval = *regaddr;
 285              		.loc 1 310 0
 286 0030 0459     		ldr	r4, [r0, r4]
 287              	.LVL49:
 311:Drivers/STM32L4xx_HAL_Driver/Src/stm32l4xx_hal_exti.c **** 
 312:Drivers/STM32L4xx_HAL_Driver/Src/stm32l4xx_hal_exti.c ****   /* Check if selected line is enable */
 313:Drivers/STM32L4xx_HAL_Driver/Src/stm32l4xx_hal_exti.c ****   if ((regval & maskline) != 0x00u)
 288              		.loc 1 313 0
 289 0032 2242     		tst	r2, r4
 290 0034 03D0     		beq	.L25
 314:Drivers/STM32L4xx_HAL_Driver/Src/stm32l4xx_hal_exti.c ****   {
 315:Drivers/STM32L4xx_HAL_Driver/Src/stm32l4xx_hal_exti.c ****     pExtiConfig->Mode |= EXTI_MODE_EVENT;
 291              		.loc 1 315 0
 292 0036 4C68     		ldr	r4, [r1, #4]
 293              	.LVL50:
 294 0038 44F00204 		orr	r4, r4, #2
 295 003c 4C60     		str	r4, [r1, #4]
 296              	.L25:
 316:Drivers/STM32L4xx_HAL_Driver/Src/stm32l4xx_hal_exti.c ****   }
 317:Drivers/STM32L4xx_HAL_Driver/Src/stm32l4xx_hal_exti.c **** 
 318:Drivers/STM32L4xx_HAL_Driver/Src/stm32l4xx_hal_exti.c ****   /* 2] Get trigger for configurable lines : rising */
 319:Drivers/STM32L4xx_HAL_Driver/Src/stm32l4xx_hal_exti.c ****   if ((pExtiConfig->Line & EXTI_CONFIG) != 0x00u)
 297              		.loc 1 319 0
 298 003e 13F0007F 		tst	r3, #33554432
 299 0042 2AD0     		beq	.L26
 320:Drivers/STM32L4xx_HAL_Driver/Src/stm32l4xx_hal_exti.c ****   {
ARM GAS  C:\Users\hirot\AppData\Local\Temp\ccbtWm2Y.s 			page 12


 321:Drivers/STM32L4xx_HAL_Driver/Src/stm32l4xx_hal_exti.c ****     regaddr = (&EXTI->RTSR1 + (EXTI_CONFIG_OFFSET * offset));
 300              		.loc 1 321 0
 301 0044 1A4C     		ldr	r4, .L38+4
 302              	.LVL51:
 322:Drivers/STM32L4xx_HAL_Driver/Src/stm32l4xx_hal_exti.c ****     regval = *regaddr;
 303              		.loc 1 322 0
 304 0046 0459     		ldr	r4, [r0, r4]
 305              	.LVL52:
 323:Drivers/STM32L4xx_HAL_Driver/Src/stm32l4xx_hal_exti.c **** 
 324:Drivers/STM32L4xx_HAL_Driver/Src/stm32l4xx_hal_exti.c ****     /* Check if configuration of selected line is enable */
 325:Drivers/STM32L4xx_HAL_Driver/Src/stm32l4xx_hal_exti.c ****     if ((regval & maskline) != 0x00u)
 306              		.loc 1 325 0
 307 0048 2242     		tst	r2, r4
 308 004a 14D0     		beq	.L27
 326:Drivers/STM32L4xx_HAL_Driver/Src/stm32l4xx_hal_exti.c ****     {
 327:Drivers/STM32L4xx_HAL_Driver/Src/stm32l4xx_hal_exti.c ****       pExtiConfig->Trigger = EXTI_TRIGGER_RISING;
 309              		.loc 1 327 0
 310 004c 0124     		movs	r4, #1
 311              	.LVL53:
 312 004e 8C60     		str	r4, [r1, #8]
 313              	.L28:
 328:Drivers/STM32L4xx_HAL_Driver/Src/stm32l4xx_hal_exti.c ****     }
 329:Drivers/STM32L4xx_HAL_Driver/Src/stm32l4xx_hal_exti.c ****     else
 330:Drivers/STM32L4xx_HAL_Driver/Src/stm32l4xx_hal_exti.c ****     {
 331:Drivers/STM32L4xx_HAL_Driver/Src/stm32l4xx_hal_exti.c ****       pExtiConfig->Trigger = EXTI_TRIGGER_NONE;
 332:Drivers/STM32L4xx_HAL_Driver/Src/stm32l4xx_hal_exti.c ****     }
 333:Drivers/STM32L4xx_HAL_Driver/Src/stm32l4xx_hal_exti.c **** 
 334:Drivers/STM32L4xx_HAL_Driver/Src/stm32l4xx_hal_exti.c ****     /* Get falling configuration */
 335:Drivers/STM32L4xx_HAL_Driver/Src/stm32l4xx_hal_exti.c ****     regaddr = (&EXTI->FTSR1 + (EXTI_CONFIG_OFFSET * offset));
 314              		.loc 1 335 0
 315 0050 184C     		ldr	r4, .L38+8
 316              	.LVL54:
 336:Drivers/STM32L4xx_HAL_Driver/Src/stm32l4xx_hal_exti.c ****     regval = *regaddr;
 317              		.loc 1 336 0
 318 0052 0059     		ldr	r0, [r0, r4]
 319              	.LVL55:
 337:Drivers/STM32L4xx_HAL_Driver/Src/stm32l4xx_hal_exti.c **** 
 338:Drivers/STM32L4xx_HAL_Driver/Src/stm32l4xx_hal_exti.c ****     /* Check if configuration of selected line is enable */
 339:Drivers/STM32L4xx_HAL_Driver/Src/stm32l4xx_hal_exti.c ****     if ((regval & maskline) != 0x00u)
 320              		.loc 1 339 0
 321 0054 0242     		tst	r2, r0
 322 0056 03D0     		beq	.L29
 340:Drivers/STM32L4xx_HAL_Driver/Src/stm32l4xx_hal_exti.c ****     {
 341:Drivers/STM32L4xx_HAL_Driver/Src/stm32l4xx_hal_exti.c ****       pExtiConfig->Trigger |= EXTI_TRIGGER_FALLING;
 323              		.loc 1 341 0
 324 0058 8A68     		ldr	r2, [r1, #8]
 325              	.LVL56:
 326 005a 42F00202 		orr	r2, r2, #2
 327 005e 8A60     		str	r2, [r1, #8]
 328              	.L29:
 342:Drivers/STM32L4xx_HAL_Driver/Src/stm32l4xx_hal_exti.c ****     }
 343:Drivers/STM32L4xx_HAL_Driver/Src/stm32l4xx_hal_exti.c **** 
 344:Drivers/STM32L4xx_HAL_Driver/Src/stm32l4xx_hal_exti.c ****     /* Get Gpio port selection for gpio lines */
 345:Drivers/STM32L4xx_HAL_Driver/Src/stm32l4xx_hal_exti.c ****     if ((pExtiConfig->Line & EXTI_GPIO) == EXTI_GPIO)
 329              		.loc 1 345 0
 330 0060 03F0C063 		and	r3, r3, #100663296
 331              	.LVL57:
ARM GAS  C:\Users\hirot\AppData\Local\Temp\ccbtWm2Y.s 			page 13


 332 0064 B3F1C06F 		cmp	r3, #100663296
 333 0068 08D0     		beq	.L37
 346:Drivers/STM32L4xx_HAL_Driver/Src/stm32l4xx_hal_exti.c ****     {
 347:Drivers/STM32L4xx_HAL_Driver/Src/stm32l4xx_hal_exti.c ****       assert_param(IS_EXTI_GPIO_PIN(linepos));
 348:Drivers/STM32L4xx_HAL_Driver/Src/stm32l4xx_hal_exti.c **** 
 349:Drivers/STM32L4xx_HAL_Driver/Src/stm32l4xx_hal_exti.c ****       regval = SYSCFG->EXTICR[linepos >> 2u];
 350:Drivers/STM32L4xx_HAL_Driver/Src/stm32l4xx_hal_exti.c ****       pExtiConfig->GPIOSel = ((regval << (SYSCFG_EXTICR1_EXTI1_Pos * (3uL - (linepos & 0x03u)))) >>
 351:Drivers/STM32L4xx_HAL_Driver/Src/stm32l4xx_hal_exti.c ****     }
 352:Drivers/STM32L4xx_HAL_Driver/Src/stm32l4xx_hal_exti.c ****     else
 353:Drivers/STM32L4xx_HAL_Driver/Src/stm32l4xx_hal_exti.c ****     {
 354:Drivers/STM32L4xx_HAL_Driver/Src/stm32l4xx_hal_exti.c ****       pExtiConfig->GPIOSel = 0x00u;
 334              		.loc 1 354 0
 335 006a 0020     		movs	r0, #0
 336              	.LVL58:
 337 006c C860     		str	r0, [r1, #12]
 338 006e 17E0     		b	.L22
 339              	.LVL59:
 340              	.L23:
 305:Drivers/STM32L4xx_HAL_Driver/Src/stm32l4xx_hal_exti.c ****   }
 341              		.loc 1 305 0
 342 0070 0024     		movs	r4, #0
 343              	.LVL60:
 344 0072 4C60     		str	r4, [r1, #4]
 345 0074 DBE7     		b	.L24
 346              	.LVL61:
 347              	.L27:
 331:Drivers/STM32L4xx_HAL_Driver/Src/stm32l4xx_hal_exti.c ****     }
 348              		.loc 1 331 0
 349 0076 0024     		movs	r4, #0
 350              	.LVL62:
 351 0078 8C60     		str	r4, [r1, #8]
 352 007a E9E7     		b	.L28
 353              	.LVL63:
 354              	.L37:
 349:Drivers/STM32L4xx_HAL_Driver/Src/stm32l4xx_hal_exti.c ****       pExtiConfig->GPIOSel = ((regval << (SYSCFG_EXTICR1_EXTI1_Pos * (3uL - (linepos & 0x03u)))) >>
 355              		.loc 1 349 0
 356 007c AB08     		lsrs	r3, r5, #2
 357 007e 0233     		adds	r3, r3, #2
 358 0080 0D4A     		ldr	r2, .L38+12
 359 0082 52F82320 		ldr	r2, [r2, r3, lsl #2]
 360              	.LVL64:
 350:Drivers/STM32L4xx_HAL_Driver/Src/stm32l4xx_hal_exti.c ****     }
 361              		.loc 1 350 0
 362 0086 EB43     		mvns	r3, r5
 363 0088 03F00303 		and	r3, r3, #3
 364 008c 9B00     		lsls	r3, r3, #2
 365 008e 02FA03F3 		lsl	r3, r2, r3
 366 0092 1B0E     		lsrs	r3, r3, #24
 367 0094 CB60     		str	r3, [r1, #12]
 355:Drivers/STM32L4xx_HAL_Driver/Src/stm32l4xx_hal_exti.c ****     }
 356:Drivers/STM32L4xx_HAL_Driver/Src/stm32l4xx_hal_exti.c ****   }
 357:Drivers/STM32L4xx_HAL_Driver/Src/stm32l4xx_hal_exti.c ****   else
 358:Drivers/STM32L4xx_HAL_Driver/Src/stm32l4xx_hal_exti.c ****   {
 359:Drivers/STM32L4xx_HAL_Driver/Src/stm32l4xx_hal_exti.c ****     pExtiConfig->Trigger = EXTI_TRIGGER_NONE;
 360:Drivers/STM32L4xx_HAL_Driver/Src/stm32l4xx_hal_exti.c ****     pExtiConfig->GPIOSel = 0x00u;
 361:Drivers/STM32L4xx_HAL_Driver/Src/stm32l4xx_hal_exti.c ****   }
 362:Drivers/STM32L4xx_HAL_Driver/Src/stm32l4xx_hal_exti.c **** 
ARM GAS  C:\Users\hirot\AppData\Local\Temp\ccbtWm2Y.s 			page 14


 363:Drivers/STM32L4xx_HAL_Driver/Src/stm32l4xx_hal_exti.c ****   return HAL_OK;
 368              		.loc 1 363 0
 369 0096 0020     		movs	r0, #0
 370 0098 02E0     		b	.L22
 371              	.LVL65:
 372              	.L26:
 359:Drivers/STM32L4xx_HAL_Driver/Src/stm32l4xx_hal_exti.c ****     pExtiConfig->GPIOSel = 0x00u;
 373              		.loc 1 359 0
 374 009a 0020     		movs	r0, #0
 375              	.LVL66:
 376 009c 8860     		str	r0, [r1, #8]
 360:Drivers/STM32L4xx_HAL_Driver/Src/stm32l4xx_hal_exti.c ****   }
 377              		.loc 1 360 0
 378 009e C860     		str	r0, [r1, #12]
 379              	.LVL67:
 380              	.L22:
 364:Drivers/STM32L4xx_HAL_Driver/Src/stm32l4xx_hal_exti.c **** }
 381              		.loc 1 364 0
 382 00a0 30BC     		pop	{r4, r5}
 383              	.LCFI3:
 384              		.cfi_restore 5
 385              		.cfi_restore 4
 386              		.cfi_def_cfa_offset 0
 387              	.LVL68:
 388 00a2 7047     		bx	lr
 389              	.LVL69:
 390              	.L31:
 280:Drivers/STM32L4xx_HAL_Driver/Src/stm32l4xx_hal_exti.c ****   }
 391              		.loc 1 280 0
 392 00a4 0120     		movs	r0, #1
 393              	.LVL70:
 394 00a6 7047     		bx	lr
 395              	.LVL71:
 396              	.L32:
 397 00a8 0120     		movs	r0, #1
 398              	.LVL72:
 399 00aa 7047     		bx	lr
 400              	.L39:
 401              		.align	2
 402              	.L38:
 403 00ac 04040140 		.word	1073808388
 404 00b0 08040140 		.word	1073808392
 405 00b4 0C040140 		.word	1073808396
 406 00b8 00000140 		.word	1073807360
 407              		.cfi_endproc
 408              	.LFE131:
 410              		.section	.text.HAL_EXTI_ClearConfigLine,"ax",%progbits
 411              		.align	1
 412              		.global	HAL_EXTI_ClearConfigLine
 413              		.syntax unified
 414              		.thumb
 415              		.thumb_func
 416              		.fpu fpv4-sp-d16
 418              	HAL_EXTI_ClearConfigLine:
 419              	.LFB132:
 365:Drivers/STM32L4xx_HAL_Driver/Src/stm32l4xx_hal_exti.c **** 
 366:Drivers/STM32L4xx_HAL_Driver/Src/stm32l4xx_hal_exti.c **** 
ARM GAS  C:\Users\hirot\AppData\Local\Temp\ccbtWm2Y.s 			page 15


 367:Drivers/STM32L4xx_HAL_Driver/Src/stm32l4xx_hal_exti.c **** /**
 368:Drivers/STM32L4xx_HAL_Driver/Src/stm32l4xx_hal_exti.c ****   * @brief  Clear whole configuration of a dedicated Exti line.
 369:Drivers/STM32L4xx_HAL_Driver/Src/stm32l4xx_hal_exti.c ****   * @param  hexti Exti handle.
 370:Drivers/STM32L4xx_HAL_Driver/Src/stm32l4xx_hal_exti.c ****   * @retval HAL Status.
 371:Drivers/STM32L4xx_HAL_Driver/Src/stm32l4xx_hal_exti.c ****   */
 372:Drivers/STM32L4xx_HAL_Driver/Src/stm32l4xx_hal_exti.c **** HAL_StatusTypeDef HAL_EXTI_ClearConfigLine(EXTI_HandleTypeDef *hexti)
 373:Drivers/STM32L4xx_HAL_Driver/Src/stm32l4xx_hal_exti.c **** {
 420              		.loc 1 373 0
 421              		.cfi_startproc
 422              		@ args = 0, pretend = 0, frame = 0
 423              		@ frame_needed = 0, uses_anonymous_args = 0
 424              		@ link register save eliminated.
 425              	.LVL73:
 374:Drivers/STM32L4xx_HAL_Driver/Src/stm32l4xx_hal_exti.c ****   __IO uint32_t *regaddr;
 375:Drivers/STM32L4xx_HAL_Driver/Src/stm32l4xx_hal_exti.c ****   uint32_t regval;
 376:Drivers/STM32L4xx_HAL_Driver/Src/stm32l4xx_hal_exti.c ****   uint32_t linepos;
 377:Drivers/STM32L4xx_HAL_Driver/Src/stm32l4xx_hal_exti.c ****   uint32_t maskline;
 378:Drivers/STM32L4xx_HAL_Driver/Src/stm32l4xx_hal_exti.c ****   uint32_t offset;
 379:Drivers/STM32L4xx_HAL_Driver/Src/stm32l4xx_hal_exti.c **** 
 380:Drivers/STM32L4xx_HAL_Driver/Src/stm32l4xx_hal_exti.c ****   /* Check null pointer */
 381:Drivers/STM32L4xx_HAL_Driver/Src/stm32l4xx_hal_exti.c ****   if (hexti == NULL)
 426              		.loc 1 381 0
 427 0000 0028     		cmp	r0, #0
 428 0002 3AD0     		beq	.L42
 373:Drivers/STM32L4xx_HAL_Driver/Src/stm32l4xx_hal_exti.c ****   __IO uint32_t *regaddr;
 429              		.loc 1 373 0
 430 0004 70B4     		push	{r4, r5, r6}
 431              	.LCFI4:
 432              		.cfi_def_cfa_offset 12
 433              		.cfi_offset 4, -12
 434              		.cfi_offset 5, -8
 435              		.cfi_offset 6, -4
 436 0006 0546     		mov	r5, r0
 382:Drivers/STM32L4xx_HAL_Driver/Src/stm32l4xx_hal_exti.c ****   {
 383:Drivers/STM32L4xx_HAL_Driver/Src/stm32l4xx_hal_exti.c ****     return HAL_ERROR;
 384:Drivers/STM32L4xx_HAL_Driver/Src/stm32l4xx_hal_exti.c ****   }
 385:Drivers/STM32L4xx_HAL_Driver/Src/stm32l4xx_hal_exti.c **** 
 386:Drivers/STM32L4xx_HAL_Driver/Src/stm32l4xx_hal_exti.c ****   /* Check the parameter */
 387:Drivers/STM32L4xx_HAL_Driver/Src/stm32l4xx_hal_exti.c ****   assert_param(IS_EXTI_LINE(hexti->Line));
 388:Drivers/STM32L4xx_HAL_Driver/Src/stm32l4xx_hal_exti.c **** 
 389:Drivers/STM32L4xx_HAL_Driver/Src/stm32l4xx_hal_exti.c ****   /* compute line register offset and line mask */
 390:Drivers/STM32L4xx_HAL_Driver/Src/stm32l4xx_hal_exti.c ****   offset = ((hexti->Line & EXTI_REG_MASK) >> EXTI_REG_SHIFT);
 437              		.loc 1 390 0
 438 0008 0468     		ldr	r4, [r0]
 439 000a C4F30040 		ubfx	r0, r4, #16, #1
 440              	.LVL74:
 391:Drivers/STM32L4xx_HAL_Driver/Src/stm32l4xx_hal_exti.c ****   linepos = (hexti->Line & EXTI_PIN_MASK);
 441              		.loc 1 391 0
 442 000e 04F01F06 		and	r6, r4, #31
 443              	.LVL75:
 392:Drivers/STM32L4xx_HAL_Driver/Src/stm32l4xx_hal_exti.c ****   maskline = (1uL << linepos);
 444              		.loc 1 392 0
 445 0012 0123     		movs	r3, #1
 446 0014 B340     		lsls	r3, r3, r6
 447              	.LVL76:
 393:Drivers/STM32L4xx_HAL_Driver/Src/stm32l4xx_hal_exti.c **** 
 394:Drivers/STM32L4xx_HAL_Driver/Src/stm32l4xx_hal_exti.c ****   /* 1] Clear interrupt mode */
ARM GAS  C:\Users\hirot\AppData\Local\Temp\ccbtWm2Y.s 			page 16


 395:Drivers/STM32L4xx_HAL_Driver/Src/stm32l4xx_hal_exti.c ****   regaddr = (&EXTI->IMR1 + (EXTI_MODE_OFFSET * offset));
 448              		.loc 1 395 0
 449 0016 4001     		lsls	r0, r0, #5
 450              	.LVL77:
 451 0018 00F18042 		add	r2, r0, #1073741824
 452 001c 02F58232 		add	r2, r2, #66560
 453              	.LVL78:
 396:Drivers/STM32L4xx_HAL_Driver/Src/stm32l4xx_hal_exti.c ****   regval = (*regaddr & ~maskline);
 454              		.loc 1 396 0
 455 0020 1168     		ldr	r1, [r2]
 456 0022 DB43     		mvns	r3, r3
 457              	.LVL79:
 458 0024 1940     		ands	r1, r1, r3
 459              	.LVL80:
 397:Drivers/STM32L4xx_HAL_Driver/Src/stm32l4xx_hal_exti.c ****   *regaddr = regval;
 460              		.loc 1 397 0
 461 0026 1160     		str	r1, [r2]
 398:Drivers/STM32L4xx_HAL_Driver/Src/stm32l4xx_hal_exti.c **** 
 399:Drivers/STM32L4xx_HAL_Driver/Src/stm32l4xx_hal_exti.c ****   /* 2] Clear event mode */
 400:Drivers/STM32L4xx_HAL_Driver/Src/stm32l4xx_hal_exti.c ****   regaddr = (&EXTI->EMR1 + (EXTI_MODE_OFFSET * offset));
 462              		.loc 1 400 0
 463 0028 1649     		ldr	r1, .L50
 464              	.LVL81:
 401:Drivers/STM32L4xx_HAL_Driver/Src/stm32l4xx_hal_exti.c ****   regval = (*regaddr & ~maskline);
 465              		.loc 1 401 0
 466 002a 4258     		ldr	r2, [r0, r1]
 467              	.LVL82:
 468 002c 1A40     		ands	r2, r2, r3
 469              	.LVL83:
 402:Drivers/STM32L4xx_HAL_Driver/Src/stm32l4xx_hal_exti.c ****   *regaddr = regval;
 470              		.loc 1 402 0
 471 002e 4250     		str	r2, [r0, r1]
 403:Drivers/STM32L4xx_HAL_Driver/Src/stm32l4xx_hal_exti.c **** 
 404:Drivers/STM32L4xx_HAL_Driver/Src/stm32l4xx_hal_exti.c ****   /* 3] Clear triggers in case of configurable lines */
 405:Drivers/STM32L4xx_HAL_Driver/Src/stm32l4xx_hal_exti.c ****   if ((hexti->Line & EXTI_CONFIG) != 0x00u)
 472              		.loc 1 405 0
 473 0030 2A68     		ldr	r2, [r5]
 474              	.LVL84:
 475 0032 12F0007F 		tst	r2, #33554432
 476 0036 22D0     		beq	.L43
 406:Drivers/STM32L4xx_HAL_Driver/Src/stm32l4xx_hal_exti.c ****   {
 407:Drivers/STM32L4xx_HAL_Driver/Src/stm32l4xx_hal_exti.c ****     regaddr = (&EXTI->RTSR1 + (EXTI_CONFIG_OFFSET * offset));
 477              		.loc 1 407 0
 478 0038 0431     		adds	r1, r1, #4
 479              	.LVL85:
 408:Drivers/STM32L4xx_HAL_Driver/Src/stm32l4xx_hal_exti.c ****     regval = (*regaddr & ~maskline);
 480              		.loc 1 408 0
 481 003a 4258     		ldr	r2, [r0, r1]
 482 003c 1A40     		ands	r2, r2, r3
 483              	.LVL86:
 409:Drivers/STM32L4xx_HAL_Driver/Src/stm32l4xx_hal_exti.c ****     *regaddr = regval;
 484              		.loc 1 409 0
 485 003e 4250     		str	r2, [r0, r1]
 410:Drivers/STM32L4xx_HAL_Driver/Src/stm32l4xx_hal_exti.c **** 
 411:Drivers/STM32L4xx_HAL_Driver/Src/stm32l4xx_hal_exti.c ****     regaddr = (&EXTI->FTSR1 + (EXTI_CONFIG_OFFSET * offset));
 486              		.loc 1 411 0
 487 0040 114A     		ldr	r2, .L50+4
ARM GAS  C:\Users\hirot\AppData\Local\Temp\ccbtWm2Y.s 			page 17


 488              	.LVL87:
 412:Drivers/STM32L4xx_HAL_Driver/Src/stm32l4xx_hal_exti.c ****     regval = (*regaddr & ~maskline);
 489              		.loc 1 412 0
 490 0042 8158     		ldr	r1, [r0, r2]
 491              	.LVL88:
 492 0044 0B40     		ands	r3, r3, r1
 493              	.LVL89:
 413:Drivers/STM32L4xx_HAL_Driver/Src/stm32l4xx_hal_exti.c ****     *regaddr = regval;
 494              		.loc 1 413 0
 495 0046 8350     		str	r3, [r0, r2]
 414:Drivers/STM32L4xx_HAL_Driver/Src/stm32l4xx_hal_exti.c **** 
 415:Drivers/STM32L4xx_HAL_Driver/Src/stm32l4xx_hal_exti.c ****     /* Get Gpio port selection for gpio lines */
 416:Drivers/STM32L4xx_HAL_Driver/Src/stm32l4xx_hal_exti.c ****     if ((hexti->Line & EXTI_GPIO) == EXTI_GPIO)
 496              		.loc 1 416 0
 497 0048 2B68     		ldr	r3, [r5]
 498              	.LVL90:
 499 004a 03F0C063 		and	r3, r3, #100663296
 500 004e B3F1C06F 		cmp	r3, #100663296
 501 0052 01D0     		beq	.L49
 417:Drivers/STM32L4xx_HAL_Driver/Src/stm32l4xx_hal_exti.c ****     {
 418:Drivers/STM32L4xx_HAL_Driver/Src/stm32l4xx_hal_exti.c ****       assert_param(IS_EXTI_GPIO_PIN(linepos));
 419:Drivers/STM32L4xx_HAL_Driver/Src/stm32l4xx_hal_exti.c **** 
 420:Drivers/STM32L4xx_HAL_Driver/Src/stm32l4xx_hal_exti.c ****       regval = SYSCFG->EXTICR[linepos >> 2u];
 421:Drivers/STM32L4xx_HAL_Driver/Src/stm32l4xx_hal_exti.c ****       regval &= ~(SYSCFG_EXTICR1_EXTI0 << (SYSCFG_EXTICR1_EXTI1_Pos * (linepos & 0x03u)));
 422:Drivers/STM32L4xx_HAL_Driver/Src/stm32l4xx_hal_exti.c ****       SYSCFG->EXTICR[linepos >> 2u] = regval;
 423:Drivers/STM32L4xx_HAL_Driver/Src/stm32l4xx_hal_exti.c ****     }
 424:Drivers/STM32L4xx_HAL_Driver/Src/stm32l4xx_hal_exti.c ****   }
 425:Drivers/STM32L4xx_HAL_Driver/Src/stm32l4xx_hal_exti.c **** 
 426:Drivers/STM32L4xx_HAL_Driver/Src/stm32l4xx_hal_exti.c ****   return HAL_OK;
 502              		.loc 1 426 0
 503 0054 0020     		movs	r0, #0
 504              	.LVL91:
 505 0056 13E0     		b	.L41
 506              	.LVL92:
 507              	.L49:
 420:Drivers/STM32L4xx_HAL_Driver/Src/stm32l4xx_hal_exti.c ****       regval &= ~(SYSCFG_EXTICR1_EXTI0 << (SYSCFG_EXTICR1_EXTI1_Pos * (linepos & 0x03u)));
 508              		.loc 1 420 0
 509 0058 B608     		lsrs	r6, r6, #2
 510              	.LVL93:
 511 005a 0C48     		ldr	r0, .L50+8
 512              	.LVL94:
 513 005c 0236     		adds	r6, r6, #2
 514 005e 50F82620 		ldr	r2, [r0, r6, lsl #2]
 515              	.LVL95:
 421:Drivers/STM32L4xx_HAL_Driver/Src/stm32l4xx_hal_exti.c ****       SYSCFG->EXTICR[linepos >> 2u] = regval;
 516              		.loc 1 421 0
 517 0062 04F00303 		and	r3, r4, #3
 518 0066 9B00     		lsls	r3, r3, #2
 519 0068 0721     		movs	r1, #7
 520 006a 01FA03F3 		lsl	r3, r1, r3
 521 006e 22EA0303 		bic	r3, r2, r3
 522              	.LVL96:
 422:Drivers/STM32L4xx_HAL_Driver/Src/stm32l4xx_hal_exti.c ****     }
 523              		.loc 1 422 0
 524 0072 40F82630 		str	r3, [r0, r6, lsl #2]
 525              		.loc 1 426 0
 526 0076 0020     		movs	r0, #0
ARM GAS  C:\Users\hirot\AppData\Local\Temp\ccbtWm2Y.s 			page 18


 527 0078 02E0     		b	.L41
 528              	.LVL97:
 529              	.L42:
 530              	.LCFI5:
 531              		.cfi_def_cfa_offset 0
 532              		.cfi_restore 4
 533              		.cfi_restore 5
 534              		.cfi_restore 6
 383:Drivers/STM32L4xx_HAL_Driver/Src/stm32l4xx_hal_exti.c ****   }
 535              		.loc 1 383 0
 536 007a 0120     		movs	r0, #1
 537              	.LVL98:
 538 007c 7047     		bx	lr
 539              	.LVL99:
 540              	.L43:
 541              	.LCFI6:
 542              		.cfi_def_cfa_offset 12
 543              		.cfi_offset 4, -12
 544              		.cfi_offset 5, -8
 545              		.cfi_offset 6, -4
 546              		.loc 1 426 0
 547 007e 0020     		movs	r0, #0
 548              	.LVL100:
 549              	.L41:
 427:Drivers/STM32L4xx_HAL_Driver/Src/stm32l4xx_hal_exti.c **** }
 550              		.loc 1 427 0
 551 0080 70BC     		pop	{r4, r5, r6}
 552              	.LCFI7:
 553              		.cfi_restore 6
 554              		.cfi_restore 5
 555              		.cfi_restore 4
 556              		.cfi_def_cfa_offset 0
 557              	.LVL101:
 558 0082 7047     		bx	lr
 559              	.L51:
 560              		.align	2
 561              	.L50:
 562 0084 04040140 		.word	1073808388
 563 0088 0C040140 		.word	1073808396
 564 008c 00000140 		.word	1073807360
 565              		.cfi_endproc
 566              	.LFE132:
 568              		.section	.text.HAL_EXTI_RegisterCallback,"ax",%progbits
 569              		.align	1
 570              		.global	HAL_EXTI_RegisterCallback
 571              		.syntax unified
 572              		.thumb
 573              		.thumb_func
 574              		.fpu fpv4-sp-d16
 576              	HAL_EXTI_RegisterCallback:
 577              	.LFB133:
 428:Drivers/STM32L4xx_HAL_Driver/Src/stm32l4xx_hal_exti.c **** 
 429:Drivers/STM32L4xx_HAL_Driver/Src/stm32l4xx_hal_exti.c **** 
 430:Drivers/STM32L4xx_HAL_Driver/Src/stm32l4xx_hal_exti.c **** /**
 431:Drivers/STM32L4xx_HAL_Driver/Src/stm32l4xx_hal_exti.c ****   * @brief  Register callback for a dedicated Exti line.
 432:Drivers/STM32L4xx_HAL_Driver/Src/stm32l4xx_hal_exti.c ****   * @param  hexti Exti handle.
 433:Drivers/STM32L4xx_HAL_Driver/Src/stm32l4xx_hal_exti.c ****   * @param  CallbackID User callback identifier.
ARM GAS  C:\Users\hirot\AppData\Local\Temp\ccbtWm2Y.s 			page 19


 434:Drivers/STM32L4xx_HAL_Driver/Src/stm32l4xx_hal_exti.c ****   *         This parameter can be one of @arg @ref EXTI_CallbackIDTypeDef values.
 435:Drivers/STM32L4xx_HAL_Driver/Src/stm32l4xx_hal_exti.c ****   * @param  pPendingCbfn function pointer to be stored as callback.
 436:Drivers/STM32L4xx_HAL_Driver/Src/stm32l4xx_hal_exti.c ****   * @retval HAL Status.
 437:Drivers/STM32L4xx_HAL_Driver/Src/stm32l4xx_hal_exti.c ****   */
 438:Drivers/STM32L4xx_HAL_Driver/Src/stm32l4xx_hal_exti.c **** HAL_StatusTypeDef HAL_EXTI_RegisterCallback(EXTI_HandleTypeDef *hexti, EXTI_CallbackIDTypeDef Callb
 439:Drivers/STM32L4xx_HAL_Driver/Src/stm32l4xx_hal_exti.c **** {
 578              		.loc 1 439 0
 579              		.cfi_startproc
 580              		@ args = 0, pretend = 0, frame = 0
 581              		@ frame_needed = 0, uses_anonymous_args = 0
 582              		@ link register save eliminated.
 583              	.LVL102:
 440:Drivers/STM32L4xx_HAL_Driver/Src/stm32l4xx_hal_exti.c ****   HAL_StatusTypeDef status = HAL_OK;
 441:Drivers/STM32L4xx_HAL_Driver/Src/stm32l4xx_hal_exti.c **** 
 442:Drivers/STM32L4xx_HAL_Driver/Src/stm32l4xx_hal_exti.c ****   switch (CallbackID)
 584              		.loc 1 442 0
 585 0000 11B9     		cbnz	r1, .L56
 443:Drivers/STM32L4xx_HAL_Driver/Src/stm32l4xx_hal_exti.c ****   {
 444:Drivers/STM32L4xx_HAL_Driver/Src/stm32l4xx_hal_exti.c ****     case  HAL_EXTI_COMMON_CB_ID:
 445:Drivers/STM32L4xx_HAL_Driver/Src/stm32l4xx_hal_exti.c ****       hexti->PendingCallback = pPendingCbfn;
 586              		.loc 1 445 0
 587 0002 4260     		str	r2, [r0, #4]
 440:Drivers/STM32L4xx_HAL_Driver/Src/stm32l4xx_hal_exti.c ****   HAL_StatusTypeDef status = HAL_OK;
 588              		.loc 1 440 0
 589 0004 0020     		movs	r0, #0
 590              	.LVL103:
 446:Drivers/STM32L4xx_HAL_Driver/Src/stm32l4xx_hal_exti.c ****       break;
 591              		.loc 1 446 0
 592 0006 7047     		bx	lr
 593              	.LVL104:
 594              	.L56:
 447:Drivers/STM32L4xx_HAL_Driver/Src/stm32l4xx_hal_exti.c **** 
 448:Drivers/STM32L4xx_HAL_Driver/Src/stm32l4xx_hal_exti.c ****     default:
 449:Drivers/STM32L4xx_HAL_Driver/Src/stm32l4xx_hal_exti.c ****       status = HAL_ERROR;
 595              		.loc 1 449 0
 596 0008 0120     		movs	r0, #1
 597              	.LVL105:
 450:Drivers/STM32L4xx_HAL_Driver/Src/stm32l4xx_hal_exti.c ****       break;
 451:Drivers/STM32L4xx_HAL_Driver/Src/stm32l4xx_hal_exti.c ****   }
 452:Drivers/STM32L4xx_HAL_Driver/Src/stm32l4xx_hal_exti.c **** 
 453:Drivers/STM32L4xx_HAL_Driver/Src/stm32l4xx_hal_exti.c ****   return status;
 454:Drivers/STM32L4xx_HAL_Driver/Src/stm32l4xx_hal_exti.c **** }
 598              		.loc 1 454 0
 599 000a 7047     		bx	lr
 600              		.cfi_endproc
 601              	.LFE133:
 603              		.section	.text.HAL_EXTI_GetHandle,"ax",%progbits
 604              		.align	1
 605              		.global	HAL_EXTI_GetHandle
 606              		.syntax unified
 607              		.thumb
 608              		.thumb_func
 609              		.fpu fpv4-sp-d16
 611              	HAL_EXTI_GetHandle:
 612              	.LFB134:
 455:Drivers/STM32L4xx_HAL_Driver/Src/stm32l4xx_hal_exti.c **** 
 456:Drivers/STM32L4xx_HAL_Driver/Src/stm32l4xx_hal_exti.c **** 
ARM GAS  C:\Users\hirot\AppData\Local\Temp\ccbtWm2Y.s 			page 20


 457:Drivers/STM32L4xx_HAL_Driver/Src/stm32l4xx_hal_exti.c **** /**
 458:Drivers/STM32L4xx_HAL_Driver/Src/stm32l4xx_hal_exti.c ****   * @brief  Store line number as handle private field.
 459:Drivers/STM32L4xx_HAL_Driver/Src/stm32l4xx_hal_exti.c ****   * @param  hexti Exti handle.
 460:Drivers/STM32L4xx_HAL_Driver/Src/stm32l4xx_hal_exti.c ****   * @param  ExtiLine Exti line number.
 461:Drivers/STM32L4xx_HAL_Driver/Src/stm32l4xx_hal_exti.c ****   *         This parameter can be from 0 to @ref EXTI_LINE_NB.
 462:Drivers/STM32L4xx_HAL_Driver/Src/stm32l4xx_hal_exti.c ****   * @retval HAL Status.
 463:Drivers/STM32L4xx_HAL_Driver/Src/stm32l4xx_hal_exti.c ****   */
 464:Drivers/STM32L4xx_HAL_Driver/Src/stm32l4xx_hal_exti.c **** HAL_StatusTypeDef HAL_EXTI_GetHandle(EXTI_HandleTypeDef *hexti, uint32_t ExtiLine)
 465:Drivers/STM32L4xx_HAL_Driver/Src/stm32l4xx_hal_exti.c **** {
 613              		.loc 1 465 0
 614              		.cfi_startproc
 615              		@ args = 0, pretend = 0, frame = 0
 616              		@ frame_needed = 0, uses_anonymous_args = 0
 617              		@ link register save eliminated.
 618              	.LVL106:
 466:Drivers/STM32L4xx_HAL_Driver/Src/stm32l4xx_hal_exti.c ****   /* Check the parameters */
 467:Drivers/STM32L4xx_HAL_Driver/Src/stm32l4xx_hal_exti.c ****   assert_param(IS_EXTI_LINE(ExtiLine));
 468:Drivers/STM32L4xx_HAL_Driver/Src/stm32l4xx_hal_exti.c **** 
 469:Drivers/STM32L4xx_HAL_Driver/Src/stm32l4xx_hal_exti.c ****   /* Check null pointer */
 470:Drivers/STM32L4xx_HAL_Driver/Src/stm32l4xx_hal_exti.c ****   if (hexti == NULL)
 619              		.loc 1 470 0
 620 0000 10B1     		cbz	r0, .L59
 471:Drivers/STM32L4xx_HAL_Driver/Src/stm32l4xx_hal_exti.c ****   {
 472:Drivers/STM32L4xx_HAL_Driver/Src/stm32l4xx_hal_exti.c ****     return HAL_ERROR;
 473:Drivers/STM32L4xx_HAL_Driver/Src/stm32l4xx_hal_exti.c ****   }
 474:Drivers/STM32L4xx_HAL_Driver/Src/stm32l4xx_hal_exti.c ****   else
 475:Drivers/STM32L4xx_HAL_Driver/Src/stm32l4xx_hal_exti.c ****   {
 476:Drivers/STM32L4xx_HAL_Driver/Src/stm32l4xx_hal_exti.c ****     /* Store line number as handle private field */
 477:Drivers/STM32L4xx_HAL_Driver/Src/stm32l4xx_hal_exti.c ****     hexti->Line = ExtiLine;
 621              		.loc 1 477 0
 622 0002 0160     		str	r1, [r0]
 478:Drivers/STM32L4xx_HAL_Driver/Src/stm32l4xx_hal_exti.c **** 
 479:Drivers/STM32L4xx_HAL_Driver/Src/stm32l4xx_hal_exti.c ****     return HAL_OK;
 623              		.loc 1 479 0
 624 0004 0020     		movs	r0, #0
 625              	.LVL107:
 626 0006 7047     		bx	lr
 627              	.LVL108:
 628              	.L59:
 472:Drivers/STM32L4xx_HAL_Driver/Src/stm32l4xx_hal_exti.c ****   }
 629              		.loc 1 472 0
 630 0008 0120     		movs	r0, #1
 631              	.LVL109:
 480:Drivers/STM32L4xx_HAL_Driver/Src/stm32l4xx_hal_exti.c ****   }
 481:Drivers/STM32L4xx_HAL_Driver/Src/stm32l4xx_hal_exti.c **** }
 632              		.loc 1 481 0
 633 000a 7047     		bx	lr
 634              		.cfi_endproc
 635              	.LFE134:
 637              		.section	.text.HAL_EXTI_IRQHandler,"ax",%progbits
 638              		.align	1
 639              		.global	HAL_EXTI_IRQHandler
 640              		.syntax unified
 641              		.thumb
 642              		.thumb_func
 643              		.fpu fpv4-sp-d16
 645              	HAL_EXTI_IRQHandler:
ARM GAS  C:\Users\hirot\AppData\Local\Temp\ccbtWm2Y.s 			page 21


 646              	.LFB135:
 482:Drivers/STM32L4xx_HAL_Driver/Src/stm32l4xx_hal_exti.c **** 
 483:Drivers/STM32L4xx_HAL_Driver/Src/stm32l4xx_hal_exti.c **** 
 484:Drivers/STM32L4xx_HAL_Driver/Src/stm32l4xx_hal_exti.c **** /**
 485:Drivers/STM32L4xx_HAL_Driver/Src/stm32l4xx_hal_exti.c ****   * @}
 486:Drivers/STM32L4xx_HAL_Driver/Src/stm32l4xx_hal_exti.c ****   */
 487:Drivers/STM32L4xx_HAL_Driver/Src/stm32l4xx_hal_exti.c **** 
 488:Drivers/STM32L4xx_HAL_Driver/Src/stm32l4xx_hal_exti.c **** /** @addtogroup EXTI_Exported_Functions_Group2
 489:Drivers/STM32L4xx_HAL_Driver/Src/stm32l4xx_hal_exti.c ****  *  @brief EXTI IO functions.
 490:Drivers/STM32L4xx_HAL_Driver/Src/stm32l4xx_hal_exti.c ****  *
 491:Drivers/STM32L4xx_HAL_Driver/Src/stm32l4xx_hal_exti.c **** @verbatim
 492:Drivers/STM32L4xx_HAL_Driver/Src/stm32l4xx_hal_exti.c ****  ===============================================================================
 493:Drivers/STM32L4xx_HAL_Driver/Src/stm32l4xx_hal_exti.c ****                        ##### IO operation functions #####
 494:Drivers/STM32L4xx_HAL_Driver/Src/stm32l4xx_hal_exti.c ****  ===============================================================================
 495:Drivers/STM32L4xx_HAL_Driver/Src/stm32l4xx_hal_exti.c **** 
 496:Drivers/STM32L4xx_HAL_Driver/Src/stm32l4xx_hal_exti.c **** @endverbatim
 497:Drivers/STM32L4xx_HAL_Driver/Src/stm32l4xx_hal_exti.c ****   * @{
 498:Drivers/STM32L4xx_HAL_Driver/Src/stm32l4xx_hal_exti.c ****   */
 499:Drivers/STM32L4xx_HAL_Driver/Src/stm32l4xx_hal_exti.c **** 
 500:Drivers/STM32L4xx_HAL_Driver/Src/stm32l4xx_hal_exti.c **** /**
 501:Drivers/STM32L4xx_HAL_Driver/Src/stm32l4xx_hal_exti.c ****   * @brief  Handle EXTI interrupt request.
 502:Drivers/STM32L4xx_HAL_Driver/Src/stm32l4xx_hal_exti.c ****   * @param  hexti Exti handle.
 503:Drivers/STM32L4xx_HAL_Driver/Src/stm32l4xx_hal_exti.c ****   * @retval none.
 504:Drivers/STM32L4xx_HAL_Driver/Src/stm32l4xx_hal_exti.c ****   */
 505:Drivers/STM32L4xx_HAL_Driver/Src/stm32l4xx_hal_exti.c **** void HAL_EXTI_IRQHandler(EXTI_HandleTypeDef *hexti)
 506:Drivers/STM32L4xx_HAL_Driver/Src/stm32l4xx_hal_exti.c **** {
 647              		.loc 1 506 0
 648              		.cfi_startproc
 649              		@ args = 0, pretend = 0, frame = 0
 650              		@ frame_needed = 0, uses_anonymous_args = 0
 651              	.LVL110:
 652 0000 10B5     		push	{r4, lr}
 653              	.LCFI8:
 654              		.cfi_def_cfa_offset 8
 655              		.cfi_offset 4, -8
 656              		.cfi_offset 14, -4
 507:Drivers/STM32L4xx_HAL_Driver/Src/stm32l4xx_hal_exti.c ****   __IO uint32_t *regaddr;
 508:Drivers/STM32L4xx_HAL_Driver/Src/stm32l4xx_hal_exti.c ****   uint32_t regval;
 509:Drivers/STM32L4xx_HAL_Driver/Src/stm32l4xx_hal_exti.c ****   uint32_t maskline;
 510:Drivers/STM32L4xx_HAL_Driver/Src/stm32l4xx_hal_exti.c ****   uint32_t offset;
 511:Drivers/STM32L4xx_HAL_Driver/Src/stm32l4xx_hal_exti.c **** 
 512:Drivers/STM32L4xx_HAL_Driver/Src/stm32l4xx_hal_exti.c ****   /* Compute line register offset and line mask */
 513:Drivers/STM32L4xx_HAL_Driver/Src/stm32l4xx_hal_exti.c ****   offset = ((hexti->Line & EXTI_REG_MASK) >> EXTI_REG_SHIFT);
 657              		.loc 1 513 0
 658 0002 0368     		ldr	r3, [r0]
 659 0004 C3F30042 		ubfx	r2, r3, #16, #1
 660              	.LVL111:
 514:Drivers/STM32L4xx_HAL_Driver/Src/stm32l4xx_hal_exti.c ****   maskline = (1uL << (hexti->Line & EXTI_PIN_MASK));
 661              		.loc 1 514 0
 662 0008 03F01F03 		and	r3, r3, #31
 663 000c 0121     		movs	r1, #1
 664 000e 01FA03F3 		lsl	r3, r1, r3
 665              	.LVL112:
 515:Drivers/STM32L4xx_HAL_Driver/Src/stm32l4xx_hal_exti.c **** 
 516:Drivers/STM32L4xx_HAL_Driver/Src/stm32l4xx_hal_exti.c ****   /* Get pending bit  */
 517:Drivers/STM32L4xx_HAL_Driver/Src/stm32l4xx_hal_exti.c ****   regaddr = (&EXTI->PR1 + (EXTI_CONFIG_OFFSET * offset));
 666              		.loc 1 517 0
ARM GAS  C:\Users\hirot\AppData\Local\Temp\ccbtWm2Y.s 			page 22


 667 0012 5201     		lsls	r2, r2, #5
 668              	.LVL113:
 669 0014 0449     		ldr	r1, .L63
 670              	.LVL114:
 518:Drivers/STM32L4xx_HAL_Driver/Src/stm32l4xx_hal_exti.c ****   regval = (*regaddr & maskline);
 671              		.loc 1 518 0
 672 0016 5458     		ldr	r4, [r2, r1]
 673              	.LVL115:
 519:Drivers/STM32L4xx_HAL_Driver/Src/stm32l4xx_hal_exti.c **** 
 520:Drivers/STM32L4xx_HAL_Driver/Src/stm32l4xx_hal_exti.c ****   if (regval != 0x00u)
 674              		.loc 1 520 0
 675 0018 2342     		tst	r3, r4
 676 001a 03D0     		beq	.L60
 521:Drivers/STM32L4xx_HAL_Driver/Src/stm32l4xx_hal_exti.c ****   {
 522:Drivers/STM32L4xx_HAL_Driver/Src/stm32l4xx_hal_exti.c ****     /* Clear pending bit */
 523:Drivers/STM32L4xx_HAL_Driver/Src/stm32l4xx_hal_exti.c ****     *regaddr = maskline;
 677              		.loc 1 523 0
 678 001c 5350     		str	r3, [r2, r1]
 679              	.LVL116:
 524:Drivers/STM32L4xx_HAL_Driver/Src/stm32l4xx_hal_exti.c **** 
 525:Drivers/STM32L4xx_HAL_Driver/Src/stm32l4xx_hal_exti.c ****     /* Call callback */
 526:Drivers/STM32L4xx_HAL_Driver/Src/stm32l4xx_hal_exti.c ****     if (hexti->PendingCallback != NULL)
 680              		.loc 1 526 0
 681 001e 4368     		ldr	r3, [r0, #4]
 682              	.LVL117:
 683 0020 03B1     		cbz	r3, .L60
 527:Drivers/STM32L4xx_HAL_Driver/Src/stm32l4xx_hal_exti.c ****     {
 528:Drivers/STM32L4xx_HAL_Driver/Src/stm32l4xx_hal_exti.c ****       hexti->PendingCallback();
 684              		.loc 1 528 0
 685 0022 9847     		blx	r3
 686              	.LVL118:
 687              	.L60:
 688 0024 10BD     		pop	{r4, pc}
 689              	.L64:
 690 0026 00BF     		.align	2
 691              	.L63:
 692 0028 14040140 		.word	1073808404
 693              		.cfi_endproc
 694              	.LFE135:
 696              		.section	.text.HAL_EXTI_GetPending,"ax",%progbits
 697              		.align	1
 698              		.global	HAL_EXTI_GetPending
 699              		.syntax unified
 700              		.thumb
 701              		.thumb_func
 702              		.fpu fpv4-sp-d16
 704              	HAL_EXTI_GetPending:
 705              	.LFB136:
 529:Drivers/STM32L4xx_HAL_Driver/Src/stm32l4xx_hal_exti.c ****     }
 530:Drivers/STM32L4xx_HAL_Driver/Src/stm32l4xx_hal_exti.c ****   }
 531:Drivers/STM32L4xx_HAL_Driver/Src/stm32l4xx_hal_exti.c **** }
 532:Drivers/STM32L4xx_HAL_Driver/Src/stm32l4xx_hal_exti.c **** 
 533:Drivers/STM32L4xx_HAL_Driver/Src/stm32l4xx_hal_exti.c **** 
 534:Drivers/STM32L4xx_HAL_Driver/Src/stm32l4xx_hal_exti.c **** /**
 535:Drivers/STM32L4xx_HAL_Driver/Src/stm32l4xx_hal_exti.c ****   * @brief  Get interrupt pending bit of a dedicated line.
 536:Drivers/STM32L4xx_HAL_Driver/Src/stm32l4xx_hal_exti.c ****   * @param  hexti Exti handle.
 537:Drivers/STM32L4xx_HAL_Driver/Src/stm32l4xx_hal_exti.c ****   * @param  Edge Specify which pending edge as to be checked.
ARM GAS  C:\Users\hirot\AppData\Local\Temp\ccbtWm2Y.s 			page 23


 538:Drivers/STM32L4xx_HAL_Driver/Src/stm32l4xx_hal_exti.c ****   *         This parameter can be one of the following values:
 539:Drivers/STM32L4xx_HAL_Driver/Src/stm32l4xx_hal_exti.c ****   *           @arg @ref EXTI_TRIGGER_RISING_FALLING
 540:Drivers/STM32L4xx_HAL_Driver/Src/stm32l4xx_hal_exti.c ****   *         This parameter is kept for compatibility with other series.
 541:Drivers/STM32L4xx_HAL_Driver/Src/stm32l4xx_hal_exti.c ****   * @retval 1 if interrupt is pending else 0.
 542:Drivers/STM32L4xx_HAL_Driver/Src/stm32l4xx_hal_exti.c ****   */
 543:Drivers/STM32L4xx_HAL_Driver/Src/stm32l4xx_hal_exti.c **** uint32_t HAL_EXTI_GetPending(EXTI_HandleTypeDef *hexti, uint32_t Edge)
 544:Drivers/STM32L4xx_HAL_Driver/Src/stm32l4xx_hal_exti.c **** {
 706              		.loc 1 544 0
 707              		.cfi_startproc
 708              		@ args = 0, pretend = 0, frame = 0
 709              		@ frame_needed = 0, uses_anonymous_args = 0
 710              		@ link register save eliminated.
 711              	.LVL119:
 545:Drivers/STM32L4xx_HAL_Driver/Src/stm32l4xx_hal_exti.c ****   __IO uint32_t *regaddr;
 546:Drivers/STM32L4xx_HAL_Driver/Src/stm32l4xx_hal_exti.c ****   uint32_t regval;
 547:Drivers/STM32L4xx_HAL_Driver/Src/stm32l4xx_hal_exti.c ****   uint32_t linepos;
 548:Drivers/STM32L4xx_HAL_Driver/Src/stm32l4xx_hal_exti.c ****   uint32_t maskline;
 549:Drivers/STM32L4xx_HAL_Driver/Src/stm32l4xx_hal_exti.c ****   uint32_t offset;
 550:Drivers/STM32L4xx_HAL_Driver/Src/stm32l4xx_hal_exti.c **** 
 551:Drivers/STM32L4xx_HAL_Driver/Src/stm32l4xx_hal_exti.c ****   /* Check parameters */
 552:Drivers/STM32L4xx_HAL_Driver/Src/stm32l4xx_hal_exti.c ****   assert_param(IS_EXTI_LINE(hexti->Line));
 553:Drivers/STM32L4xx_HAL_Driver/Src/stm32l4xx_hal_exti.c ****   assert_param(IS_EXTI_CONFIG_LINE(hexti->Line));
 554:Drivers/STM32L4xx_HAL_Driver/Src/stm32l4xx_hal_exti.c ****   assert_param(IS_EXTI_PENDING_EDGE(Edge));
 555:Drivers/STM32L4xx_HAL_Driver/Src/stm32l4xx_hal_exti.c **** 
 556:Drivers/STM32L4xx_HAL_Driver/Src/stm32l4xx_hal_exti.c ****   /* Compute line register offset and line mask */
 557:Drivers/STM32L4xx_HAL_Driver/Src/stm32l4xx_hal_exti.c ****   offset = ((hexti->Line & EXTI_REG_MASK) >> EXTI_REG_SHIFT);
 712              		.loc 1 557 0
 713 0000 0368     		ldr	r3, [r0]
 714 0002 C3F30042 		ubfx	r2, r3, #16, #1
 715              	.LVL120:
 558:Drivers/STM32L4xx_HAL_Driver/Src/stm32l4xx_hal_exti.c ****   linepos = (hexti->Line & EXTI_PIN_MASK);
 716              		.loc 1 558 0
 717 0006 03F01F03 		and	r3, r3, #31
 718              	.LVL121:
 559:Drivers/STM32L4xx_HAL_Driver/Src/stm32l4xx_hal_exti.c ****   maskline = (1uL << linepos);
 719              		.loc 1 559 0
 720 000a 0120     		movs	r0, #1
 721              	.LVL122:
 722 000c 9840     		lsls	r0, r0, r3
 723              	.LVL123:
 560:Drivers/STM32L4xx_HAL_Driver/Src/stm32l4xx_hal_exti.c **** 
 561:Drivers/STM32L4xx_HAL_Driver/Src/stm32l4xx_hal_exti.c ****   /* Get pending bit */
 562:Drivers/STM32L4xx_HAL_Driver/Src/stm32l4xx_hal_exti.c ****   regaddr = (&EXTI->PR1 + (EXTI_CONFIG_OFFSET * offset));
 724              		.loc 1 562 0
 725 000e 5201     		lsls	r2, r2, #5
 726              	.LVL124:
 727 0010 0249     		ldr	r1, .L66
 728              	.LVL125:
 563:Drivers/STM32L4xx_HAL_Driver/Src/stm32l4xx_hal_exti.c **** 
 564:Drivers/STM32L4xx_HAL_Driver/Src/stm32l4xx_hal_exti.c ****   /* return 1 if bit is set else 0 */
 565:Drivers/STM32L4xx_HAL_Driver/Src/stm32l4xx_hal_exti.c ****   regval = ((*regaddr & maskline) >> linepos);
 729              		.loc 1 565 0
 730 0012 5258     		ldr	r2, [r2, r1]
 731              	.LVL126:
 732 0014 1040     		ands	r0, r0, r2
 733              	.LVL127:
 566:Drivers/STM32L4xx_HAL_Driver/Src/stm32l4xx_hal_exti.c ****   return regval;
ARM GAS  C:\Users\hirot\AppData\Local\Temp\ccbtWm2Y.s 			page 24


 567:Drivers/STM32L4xx_HAL_Driver/Src/stm32l4xx_hal_exti.c **** }
 734              		.loc 1 567 0
 735 0016 D840     		lsrs	r0, r0, r3
 736              	.LVL128:
 737 0018 7047     		bx	lr
 738              	.L67:
 739 001a 00BF     		.align	2
 740              	.L66:
 741 001c 14040140 		.word	1073808404
 742              		.cfi_endproc
 743              	.LFE136:
 745              		.section	.text.HAL_EXTI_ClearPending,"ax",%progbits
 746              		.align	1
 747              		.global	HAL_EXTI_ClearPending
 748              		.syntax unified
 749              		.thumb
 750              		.thumb_func
 751              		.fpu fpv4-sp-d16
 753              	HAL_EXTI_ClearPending:
 754              	.LFB137:
 568:Drivers/STM32L4xx_HAL_Driver/Src/stm32l4xx_hal_exti.c **** 
 569:Drivers/STM32L4xx_HAL_Driver/Src/stm32l4xx_hal_exti.c **** 
 570:Drivers/STM32L4xx_HAL_Driver/Src/stm32l4xx_hal_exti.c **** /**
 571:Drivers/STM32L4xx_HAL_Driver/Src/stm32l4xx_hal_exti.c ****   * @brief  Clear interrupt pending bit of a dedicated line.
 572:Drivers/STM32L4xx_HAL_Driver/Src/stm32l4xx_hal_exti.c ****   * @param  hexti Exti handle.
 573:Drivers/STM32L4xx_HAL_Driver/Src/stm32l4xx_hal_exti.c ****   * @param  Edge Specify which pending edge as to be clear.
 574:Drivers/STM32L4xx_HAL_Driver/Src/stm32l4xx_hal_exti.c ****   *         This parameter can be one of the following values:
 575:Drivers/STM32L4xx_HAL_Driver/Src/stm32l4xx_hal_exti.c ****   *           @arg @ref EXTI_TRIGGER_RISING_FALLING
 576:Drivers/STM32L4xx_HAL_Driver/Src/stm32l4xx_hal_exti.c ****   *         This parameter is kept for compatibility with other series.
 577:Drivers/STM32L4xx_HAL_Driver/Src/stm32l4xx_hal_exti.c ****   * @retval None.
 578:Drivers/STM32L4xx_HAL_Driver/Src/stm32l4xx_hal_exti.c ****   */
 579:Drivers/STM32L4xx_HAL_Driver/Src/stm32l4xx_hal_exti.c **** void HAL_EXTI_ClearPending(EXTI_HandleTypeDef *hexti, uint32_t Edge)
 580:Drivers/STM32L4xx_HAL_Driver/Src/stm32l4xx_hal_exti.c **** {
 755              		.loc 1 580 0
 756              		.cfi_startproc
 757              		@ args = 0, pretend = 0, frame = 0
 758              		@ frame_needed = 0, uses_anonymous_args = 0
 759              		@ link register save eliminated.
 760              	.LVL129:
 581:Drivers/STM32L4xx_HAL_Driver/Src/stm32l4xx_hal_exti.c ****   __IO uint32_t *regaddr;
 582:Drivers/STM32L4xx_HAL_Driver/Src/stm32l4xx_hal_exti.c ****   uint32_t maskline;
 583:Drivers/STM32L4xx_HAL_Driver/Src/stm32l4xx_hal_exti.c ****   uint32_t offset;
 584:Drivers/STM32L4xx_HAL_Driver/Src/stm32l4xx_hal_exti.c **** 
 585:Drivers/STM32L4xx_HAL_Driver/Src/stm32l4xx_hal_exti.c ****   /* Check parameters */
 586:Drivers/STM32L4xx_HAL_Driver/Src/stm32l4xx_hal_exti.c ****   assert_param(IS_EXTI_LINE(hexti->Line));
 587:Drivers/STM32L4xx_HAL_Driver/Src/stm32l4xx_hal_exti.c ****   assert_param(IS_EXTI_CONFIG_LINE(hexti->Line));
 588:Drivers/STM32L4xx_HAL_Driver/Src/stm32l4xx_hal_exti.c ****   assert_param(IS_EXTI_PENDING_EDGE(Edge));
 589:Drivers/STM32L4xx_HAL_Driver/Src/stm32l4xx_hal_exti.c **** 
 590:Drivers/STM32L4xx_HAL_Driver/Src/stm32l4xx_hal_exti.c ****   /* compute line register offset and line mask */
 591:Drivers/STM32L4xx_HAL_Driver/Src/stm32l4xx_hal_exti.c ****   offset = ((hexti->Line & EXTI_REG_MASK) >> EXTI_REG_SHIFT);
 761              		.loc 1 591 0
 762 0000 0368     		ldr	r3, [r0]
 763 0002 C3F30042 		ubfx	r2, r3, #16, #1
 764              	.LVL130:
 592:Drivers/STM32L4xx_HAL_Driver/Src/stm32l4xx_hal_exti.c ****   maskline = (1uL << (hexti->Line & EXTI_PIN_MASK));
 765              		.loc 1 592 0
 766 0006 03F01F03 		and	r3, r3, #31
ARM GAS  C:\Users\hirot\AppData\Local\Temp\ccbtWm2Y.s 			page 25


 767 000a 0121     		movs	r1, #1
 768              	.LVL131:
 769 000c 01FA03F3 		lsl	r3, r1, r3
 770              	.LVL132:
 593:Drivers/STM32L4xx_HAL_Driver/Src/stm32l4xx_hal_exti.c **** 
 594:Drivers/STM32L4xx_HAL_Driver/Src/stm32l4xx_hal_exti.c ****   /* Get pending register address */
 595:Drivers/STM32L4xx_HAL_Driver/Src/stm32l4xx_hal_exti.c ****   regaddr = (&EXTI->PR1 + (EXTI_CONFIG_OFFSET * offset));
 771              		.loc 1 595 0
 772 0010 5201     		lsls	r2, r2, #5
 773              	.LVL133:
 774 0012 0149     		ldr	r1, .L69
 775              	.LVL134:
 596:Drivers/STM32L4xx_HAL_Driver/Src/stm32l4xx_hal_exti.c **** 
 597:Drivers/STM32L4xx_HAL_Driver/Src/stm32l4xx_hal_exti.c ****   /* Clear Pending bit */
 598:Drivers/STM32L4xx_HAL_Driver/Src/stm32l4xx_hal_exti.c ****   *regaddr =  maskline;
 776              		.loc 1 598 0
 777 0014 5350     		str	r3, [r2, r1]
 778              	.LVL135:
 779 0016 7047     		bx	lr
 780              	.L70:
 781              		.align	2
 782              	.L69:
 783 0018 14040140 		.word	1073808404
 784              		.cfi_endproc
 785              	.LFE137:
 787              		.section	.text.HAL_EXTI_GenerateSWI,"ax",%progbits
 788              		.align	1
 789              		.global	HAL_EXTI_GenerateSWI
 790              		.syntax unified
 791              		.thumb
 792              		.thumb_func
 793              		.fpu fpv4-sp-d16
 795              	HAL_EXTI_GenerateSWI:
 796              	.LFB138:
 599:Drivers/STM32L4xx_HAL_Driver/Src/stm32l4xx_hal_exti.c **** }
 600:Drivers/STM32L4xx_HAL_Driver/Src/stm32l4xx_hal_exti.c **** 
 601:Drivers/STM32L4xx_HAL_Driver/Src/stm32l4xx_hal_exti.c **** 
 602:Drivers/STM32L4xx_HAL_Driver/Src/stm32l4xx_hal_exti.c **** /**
 603:Drivers/STM32L4xx_HAL_Driver/Src/stm32l4xx_hal_exti.c ****   * @brief  Generate a software interrupt for a dedicated line.
 604:Drivers/STM32L4xx_HAL_Driver/Src/stm32l4xx_hal_exti.c ****   * @param  hexti Exti handle.
 605:Drivers/STM32L4xx_HAL_Driver/Src/stm32l4xx_hal_exti.c ****   * @retval None.
 606:Drivers/STM32L4xx_HAL_Driver/Src/stm32l4xx_hal_exti.c ****   */
 607:Drivers/STM32L4xx_HAL_Driver/Src/stm32l4xx_hal_exti.c **** void HAL_EXTI_GenerateSWI(EXTI_HandleTypeDef *hexti)
 608:Drivers/STM32L4xx_HAL_Driver/Src/stm32l4xx_hal_exti.c **** {
 797              		.loc 1 608 0
 798              		.cfi_startproc
 799              		@ args = 0, pretend = 0, frame = 0
 800              		@ frame_needed = 0, uses_anonymous_args = 0
 801              		@ link register save eliminated.
 802              	.LVL136:
 609:Drivers/STM32L4xx_HAL_Driver/Src/stm32l4xx_hal_exti.c ****   __IO uint32_t *regaddr;
 610:Drivers/STM32L4xx_HAL_Driver/Src/stm32l4xx_hal_exti.c ****   uint32_t maskline;
 611:Drivers/STM32L4xx_HAL_Driver/Src/stm32l4xx_hal_exti.c ****   uint32_t offset;
 612:Drivers/STM32L4xx_HAL_Driver/Src/stm32l4xx_hal_exti.c **** 
 613:Drivers/STM32L4xx_HAL_Driver/Src/stm32l4xx_hal_exti.c ****   /* Check parameters */
 614:Drivers/STM32L4xx_HAL_Driver/Src/stm32l4xx_hal_exti.c ****   assert_param(IS_EXTI_LINE(hexti->Line));
 615:Drivers/STM32L4xx_HAL_Driver/Src/stm32l4xx_hal_exti.c ****   assert_param(IS_EXTI_CONFIG_LINE(hexti->Line));
ARM GAS  C:\Users\hirot\AppData\Local\Temp\ccbtWm2Y.s 			page 26


 616:Drivers/STM32L4xx_HAL_Driver/Src/stm32l4xx_hal_exti.c **** 
 617:Drivers/STM32L4xx_HAL_Driver/Src/stm32l4xx_hal_exti.c ****   /* compute line register offset and line mask */
 618:Drivers/STM32L4xx_HAL_Driver/Src/stm32l4xx_hal_exti.c ****   offset = ((hexti->Line & EXTI_REG_MASK) >> EXTI_REG_SHIFT);
 803              		.loc 1 618 0
 804 0000 0368     		ldr	r3, [r0]
 805 0002 C3F30042 		ubfx	r2, r3, #16, #1
 806              	.LVL137:
 619:Drivers/STM32L4xx_HAL_Driver/Src/stm32l4xx_hal_exti.c ****   maskline = (1uL << (hexti->Line & EXTI_PIN_MASK));
 807              		.loc 1 619 0
 808 0006 03F01F03 		and	r3, r3, #31
 809 000a 0121     		movs	r1, #1
 810 000c 01FA03F3 		lsl	r3, r1, r3
 811              	.LVL138:
 620:Drivers/STM32L4xx_HAL_Driver/Src/stm32l4xx_hal_exti.c **** 
 621:Drivers/STM32L4xx_HAL_Driver/Src/stm32l4xx_hal_exti.c ****   regaddr = (&EXTI->SWIER1 + (EXTI_CONFIG_OFFSET * offset));
 812              		.loc 1 621 0
 813 0010 5201     		lsls	r2, r2, #5
 814              	.LVL139:
 815 0012 0149     		ldr	r1, .L72
 816              	.LVL140:
 622:Drivers/STM32L4xx_HAL_Driver/Src/stm32l4xx_hal_exti.c ****   *regaddr = maskline;
 817              		.loc 1 622 0
 818 0014 5350     		str	r3, [r2, r1]
 819              	.LVL141:
 820 0016 7047     		bx	lr
 821              	.L73:
 822              		.align	2
 823              	.L72:
 824 0018 10040140 		.word	1073808400
 825              		.cfi_endproc
 826              	.LFE138:
 828              		.text
 829              	.Letext0:
 830              		.file 2 "c:\\program files (x86)\\gnu tools arm embedded\\6.2 2016q4\\arm-none-eabi\\include\\mach
 831              		.file 3 "c:\\program files (x86)\\gnu tools arm embedded\\6.2 2016q4\\arm-none-eabi\\include\\sys\
 832              		.file 4 "Drivers/CMSIS/Include/core_cm4.h"
 833              		.file 5 "Drivers/CMSIS/Device/ST/STM32L4xx/Include/system_stm32l4xx.h"
 834              		.file 6 "Drivers/CMSIS/Device/ST/STM32L4xx/Include/stm32l476xx.h"
 835              		.file 7 "Drivers/STM32L4xx_HAL_Driver/Inc/stm32l4xx_hal_def.h"
 836              		.file 8 "Drivers/STM32L4xx_HAL_Driver/Inc/stm32l4xx_hal_exti.h"
 837              		.file 9 "Drivers/STM32L4xx_HAL_Driver/Inc/stm32l4xx_hal_flash.h"
 838              		.file 10 "Drivers/STM32L4xx_HAL_Driver/Inc/stm32l4xx_hal.h"
ARM GAS  C:\Users\hirot\AppData\Local\Temp\ccbtWm2Y.s 			page 27

