ARM GAS  C:\Users\hirot\AppData\Local\Temp\ccaHNj8E.s 			page 1


   1              		.cpu cortex-m4
   2              		.eabi_attribute 27, 1
   3              		.eabi_attribute 28, 1
   4              		.eabi_attribute 20, 1
   5              		.eabi_attribute 21, 1
   6              		.eabi_attribute 23, 3
   7              		.eabi_attribute 24, 1
   8              		.eabi_attribute 25, 1
   9              		.eabi_attribute 26, 1
  10              		.eabi_attribute 30, 1
  11              		.eabi_attribute 34, 1
  12              		.eabi_attribute 18, 4
  13              		.file	"usart.c"
  14              		.text
  15              	.Ltext0:
  16              		.cfi_sections	.debug_frame
  17              		.section	.text.MX_USART2_UART_Init,"ax",%progbits
  18              		.align	1
  19              		.global	MX_USART2_UART_Init
  20              		.syntax unified
  21              		.thumb
  22              		.thumb_func
  23              		.fpu fpv4-sp-d16
  25              	MX_USART2_UART_Init:
  26              	.LFB130:
  27              		.file 1 "Src/usart.c"
   1:Src/usart.c   **** /**
   2:Src/usart.c   ****   ******************************************************************************
   3:Src/usart.c   ****   * File Name          : USART.c
   4:Src/usart.c   ****   * Description        : This file provides code for the configuration
   5:Src/usart.c   ****   *                      of the USART instances.
   6:Src/usart.c   ****   ******************************************************************************
   7:Src/usart.c   ****   * @attention
   8:Src/usart.c   ****   *
   9:Src/usart.c   ****   * <h2><center>&copy; Copyright (c) 2019 STMicroelectronics.
  10:Src/usart.c   ****   * All rights reserved.</center></h2>
  11:Src/usart.c   ****   *
  12:Src/usart.c   ****   * This software component is licensed by ST under BSD 3-Clause license,
  13:Src/usart.c   ****   * the "License"; You may not use this file except in compliance with the
  14:Src/usart.c   ****   * License. You may obtain a copy of the License at:
  15:Src/usart.c   ****   *                        opensource.org/licenses/BSD-3-Clause
  16:Src/usart.c   ****   *
  17:Src/usart.c   ****   ******************************************************************************
  18:Src/usart.c   ****   */
  19:Src/usart.c   **** 
  20:Src/usart.c   **** /* Includes ------------------------------------------------------------------*/
  21:Src/usart.c   **** #include "usart.h"
  22:Src/usart.c   **** 
  23:Src/usart.c   **** /* USER CODE BEGIN 0 */
  24:Src/usart.c   **** 
  25:Src/usart.c   **** /* USER CODE END 0 */
  26:Src/usart.c   **** 
  27:Src/usart.c   **** UART_HandleTypeDef huart2;
  28:Src/usart.c   **** 
  29:Src/usart.c   **** /* USART2 init function */
  30:Src/usart.c   **** 
  31:Src/usart.c   **** void MX_USART2_UART_Init(void)
ARM GAS  C:\Users\hirot\AppData\Local\Temp\ccaHNj8E.s 			page 2


  32:Src/usart.c   **** {
  28              		.loc 1 32 0
  29              		.cfi_startproc
  30              		@ args = 0, pretend = 0, frame = 0
  31              		@ frame_needed = 0, uses_anonymous_args = 0
  32 0000 08B5     		push	{r3, lr}
  33              	.LCFI0:
  34              		.cfi_def_cfa_offset 8
  35              		.cfi_offset 3, -8
  36              		.cfi_offset 14, -4
  33:Src/usart.c   **** 
  34:Src/usart.c   ****   huart2.Instance = USART2;
  37              		.loc 1 34 0
  38 0002 0B48     		ldr	r0, .L5
  39 0004 0B4B     		ldr	r3, .L5+4
  40 0006 0360     		str	r3, [r0]
  35:Src/usart.c   ****   huart2.Init.BaudRate = 115200;
  41              		.loc 1 35 0
  42 0008 4FF4E133 		mov	r3, #115200
  43 000c 4360     		str	r3, [r0, #4]
  36:Src/usart.c   ****   huart2.Init.WordLength = UART_WORDLENGTH_8B;
  44              		.loc 1 36 0
  45 000e 0023     		movs	r3, #0
  46 0010 8360     		str	r3, [r0, #8]
  37:Src/usart.c   ****   huart2.Init.StopBits = UART_STOPBITS_1;
  47              		.loc 1 37 0
  48 0012 C360     		str	r3, [r0, #12]
  38:Src/usart.c   ****   huart2.Init.Parity = UART_PARITY_NONE;
  49              		.loc 1 38 0
  50 0014 0361     		str	r3, [r0, #16]
  39:Src/usart.c   ****   huart2.Init.Mode = UART_MODE_TX_RX;
  51              		.loc 1 39 0
  52 0016 0C22     		movs	r2, #12
  53 0018 4261     		str	r2, [r0, #20]
  40:Src/usart.c   ****   huart2.Init.HwFlowCtl = UART_HWCONTROL_NONE;
  54              		.loc 1 40 0
  55 001a 8361     		str	r3, [r0, #24]
  41:Src/usart.c   ****   huart2.Init.OverSampling = UART_OVERSAMPLING_16;
  56              		.loc 1 41 0
  57 001c C361     		str	r3, [r0, #28]
  42:Src/usart.c   ****   huart2.Init.OneBitSampling = UART_ONE_BIT_SAMPLE_DISABLE;
  58              		.loc 1 42 0
  59 001e 0362     		str	r3, [r0, #32]
  43:Src/usart.c   ****   huart2.AdvancedInit.AdvFeatureInit = UART_ADVFEATURE_NO_INIT;
  60              		.loc 1 43 0
  61 0020 4362     		str	r3, [r0, #36]
  44:Src/usart.c   ****   if (HAL_UART_Init(&huart2) != HAL_OK)
  62              		.loc 1 44 0
  63 0022 FFF7FEFF 		bl	HAL_UART_Init
  64              	.LVL0:
  65 0026 00B9     		cbnz	r0, .L4
  66              	.L1:
  67 0028 08BD     		pop	{r3, pc}
  68              	.L4:
  45:Src/usart.c   ****   {
  46:Src/usart.c   ****     Error_Handler();
  69              		.loc 1 46 0
ARM GAS  C:\Users\hirot\AppData\Local\Temp\ccaHNj8E.s 			page 3


  70 002a FFF7FEFF 		bl	Error_Handler
  71              	.LVL1:
  47:Src/usart.c   ****   }
  48:Src/usart.c   **** 
  49:Src/usart.c   **** }
  72              		.loc 1 49 0
  73 002e FBE7     		b	.L1
  74              	.L6:
  75              		.align	2
  76              	.L5:
  77 0030 00000000 		.word	huart2
  78 0034 00440040 		.word	1073759232
  79              		.cfi_endproc
  80              	.LFE130:
  82              		.section	.text.HAL_UART_MspInit,"ax",%progbits
  83              		.align	1
  84              		.global	HAL_UART_MspInit
  85              		.syntax unified
  86              		.thumb
  87              		.thumb_func
  88              		.fpu fpv4-sp-d16
  90              	HAL_UART_MspInit:
  91              	.LFB131:
  50:Src/usart.c   **** 
  51:Src/usart.c   **** void HAL_UART_MspInit(UART_HandleTypeDef* uartHandle)
  52:Src/usart.c   **** {
  92              		.loc 1 52 0
  93              		.cfi_startproc
  94              		@ args = 0, pretend = 0, frame = 32
  95              		@ frame_needed = 0, uses_anonymous_args = 0
  96              	.LVL2:
  97 0000 00B5     		push	{lr}
  98              	.LCFI1:
  99              		.cfi_def_cfa_offset 4
 100              		.cfi_offset 14, -4
 101 0002 89B0     		sub	sp, sp, #36
 102              	.LCFI2:
 103              		.cfi_def_cfa_offset 40
  53:Src/usart.c   **** 
  54:Src/usart.c   ****   GPIO_InitTypeDef GPIO_InitStruct = {0};
 104              		.loc 1 54 0
 105 0004 0023     		movs	r3, #0
 106 0006 0393     		str	r3, [sp, #12]
 107 0008 0493     		str	r3, [sp, #16]
 108 000a 0593     		str	r3, [sp, #20]
 109 000c 0693     		str	r3, [sp, #24]
 110 000e 0793     		str	r3, [sp, #28]
  55:Src/usart.c   ****   if(uartHandle->Instance==USART2)
 111              		.loc 1 55 0
 112 0010 0268     		ldr	r2, [r0]
 113 0012 144B     		ldr	r3, .L11
 114 0014 9A42     		cmp	r2, r3
 115 0016 02D0     		beq	.L10
 116              	.LVL3:
 117              	.L7:
  56:Src/usart.c   ****   {
  57:Src/usart.c   ****   /* USER CODE BEGIN USART2_MspInit 0 */
ARM GAS  C:\Users\hirot\AppData\Local\Temp\ccaHNj8E.s 			page 4


  58:Src/usart.c   **** 
  59:Src/usart.c   ****   /* USER CODE END USART2_MspInit 0 */
  60:Src/usart.c   ****     /* USART2 clock enable */
  61:Src/usart.c   ****     __HAL_RCC_USART2_CLK_ENABLE();
  62:Src/usart.c   ****   
  63:Src/usart.c   ****     __HAL_RCC_GPIOA_CLK_ENABLE();
  64:Src/usart.c   ****     /**USART2 GPIO Configuration    
  65:Src/usart.c   ****     PA2     ------> USART2_TX
  66:Src/usart.c   ****     PA3     ------> USART2_RX 
  67:Src/usart.c   ****     */
  68:Src/usart.c   ****     GPIO_InitStruct.Pin = USART_TX_Pin|USART_RX_Pin;
  69:Src/usart.c   ****     GPIO_InitStruct.Mode = GPIO_MODE_AF_PP;
  70:Src/usart.c   ****     GPIO_InitStruct.Pull = GPIO_NOPULL;
  71:Src/usart.c   ****     GPIO_InitStruct.Speed = GPIO_SPEED_FREQ_VERY_HIGH;
  72:Src/usart.c   ****     GPIO_InitStruct.Alternate = GPIO_AF7_USART2;
  73:Src/usart.c   ****     HAL_GPIO_Init(GPIOA, &GPIO_InitStruct);
  74:Src/usart.c   **** 
  75:Src/usart.c   ****   /* USER CODE BEGIN USART2_MspInit 1 */
  76:Src/usart.c   **** 
  77:Src/usart.c   ****   /* USER CODE END USART2_MspInit 1 */
  78:Src/usart.c   ****   }
  79:Src/usart.c   **** }
 118              		.loc 1 79 0
 119 0018 09B0     		add	sp, sp, #36
 120              	.LCFI3:
 121              		.cfi_remember_state
 122              		.cfi_def_cfa_offset 4
 123              		@ sp needed
 124 001a 5DF804FB 		ldr	pc, [sp], #4
 125              	.LVL4:
 126              	.L10:
 127              	.LCFI4:
 128              		.cfi_restore_state
 129              	.LBB2:
  61:Src/usart.c   ****   
 130              		.loc 1 61 0
 131 001e 03F5E633 		add	r3, r3, #117760
 132 0022 9A6D     		ldr	r2, [r3, #88]
 133 0024 42F40032 		orr	r2, r2, #131072
 134 0028 9A65     		str	r2, [r3, #88]
 135 002a 9A6D     		ldr	r2, [r3, #88]
 136 002c 02F40032 		and	r2, r2, #131072
 137 0030 0192     		str	r2, [sp, #4]
 138 0032 019A     		ldr	r2, [sp, #4]
 139              	.LBE2:
 140              	.LBB3:
  63:Src/usart.c   ****     /**USART2 GPIO Configuration    
 141              		.loc 1 63 0
 142 0034 DA6C     		ldr	r2, [r3, #76]
 143 0036 42F00102 		orr	r2, r2, #1
 144 003a DA64     		str	r2, [r3, #76]
 145 003c DB6C     		ldr	r3, [r3, #76]
 146 003e 03F00103 		and	r3, r3, #1
 147 0042 0293     		str	r3, [sp, #8]
 148 0044 029B     		ldr	r3, [sp, #8]
 149              	.LBE3:
  68:Src/usart.c   ****     GPIO_InitStruct.Mode = GPIO_MODE_AF_PP;
ARM GAS  C:\Users\hirot\AppData\Local\Temp\ccaHNj8E.s 			page 5


 150              		.loc 1 68 0
 151 0046 0C23     		movs	r3, #12
 152 0048 0393     		str	r3, [sp, #12]
  69:Src/usart.c   ****     GPIO_InitStruct.Pull = GPIO_NOPULL;
 153              		.loc 1 69 0
 154 004a 0223     		movs	r3, #2
 155 004c 0493     		str	r3, [sp, #16]
  71:Src/usart.c   ****     GPIO_InitStruct.Alternate = GPIO_AF7_USART2;
 156              		.loc 1 71 0
 157 004e 0323     		movs	r3, #3
 158 0050 0693     		str	r3, [sp, #24]
  72:Src/usart.c   ****     HAL_GPIO_Init(GPIOA, &GPIO_InitStruct);
 159              		.loc 1 72 0
 160 0052 0723     		movs	r3, #7
 161 0054 0793     		str	r3, [sp, #28]
  73:Src/usart.c   **** 
 162              		.loc 1 73 0
 163 0056 03A9     		add	r1, sp, #12
 164 0058 4FF09040 		mov	r0, #1207959552
 165              	.LVL5:
 166 005c FFF7FEFF 		bl	HAL_GPIO_Init
 167              	.LVL6:
 168              		.loc 1 79 0
 169 0060 DAE7     		b	.L7
 170              	.L12:
 171 0062 00BF     		.align	2
 172              	.L11:
 173 0064 00440040 		.word	1073759232
 174              		.cfi_endproc
 175              	.LFE131:
 177              		.section	.text.HAL_UART_MspDeInit,"ax",%progbits
 178              		.align	1
 179              		.global	HAL_UART_MspDeInit
 180              		.syntax unified
 181              		.thumb
 182              		.thumb_func
 183              		.fpu fpv4-sp-d16
 185              	HAL_UART_MspDeInit:
 186              	.LFB132:
  80:Src/usart.c   **** 
  81:Src/usart.c   **** void HAL_UART_MspDeInit(UART_HandleTypeDef* uartHandle)
  82:Src/usart.c   **** {
 187              		.loc 1 82 0
 188              		.cfi_startproc
 189              		@ args = 0, pretend = 0, frame = 0
 190              		@ frame_needed = 0, uses_anonymous_args = 0
 191              	.LVL7:
 192 0000 08B5     		push	{r3, lr}
 193              	.LCFI5:
 194              		.cfi_def_cfa_offset 8
 195              		.cfi_offset 3, -8
 196              		.cfi_offset 14, -4
  83:Src/usart.c   **** 
  84:Src/usart.c   ****   if(uartHandle->Instance==USART2)
 197              		.loc 1 84 0
 198 0002 0268     		ldr	r2, [r0]
 199 0004 074B     		ldr	r3, .L17
ARM GAS  C:\Users\hirot\AppData\Local\Temp\ccaHNj8E.s 			page 6


 200 0006 9A42     		cmp	r2, r3
 201 0008 00D0     		beq	.L16
 202              	.LVL8:
 203              	.L13:
 204 000a 08BD     		pop	{r3, pc}
 205              	.LVL9:
 206              	.L16:
  85:Src/usart.c   ****   {
  86:Src/usart.c   ****   /* USER CODE BEGIN USART2_MspDeInit 0 */
  87:Src/usart.c   **** 
  88:Src/usart.c   ****   /* USER CODE END USART2_MspDeInit 0 */
  89:Src/usart.c   ****     /* Peripheral clock disable */
  90:Src/usart.c   ****     __HAL_RCC_USART2_CLK_DISABLE();
 207              		.loc 1 90 0
 208 000c 064A     		ldr	r2, .L17+4
 209 000e 936D     		ldr	r3, [r2, #88]
 210 0010 23F40033 		bic	r3, r3, #131072
 211 0014 9365     		str	r3, [r2, #88]
  91:Src/usart.c   ****   
  92:Src/usart.c   ****     /**USART2 GPIO Configuration    
  93:Src/usart.c   ****     PA2     ------> USART2_TX
  94:Src/usart.c   ****     PA3     ------> USART2_RX 
  95:Src/usart.c   ****     */
  96:Src/usart.c   ****     HAL_GPIO_DeInit(GPIOA, USART_TX_Pin|USART_RX_Pin);
 212              		.loc 1 96 0
 213 0016 0C21     		movs	r1, #12
 214 0018 4FF09040 		mov	r0, #1207959552
 215              	.LVL10:
 216 001c FFF7FEFF 		bl	HAL_GPIO_DeInit
 217              	.LVL11:
  97:Src/usart.c   **** 
  98:Src/usart.c   ****   /* USER CODE BEGIN USART2_MspDeInit 1 */
  99:Src/usart.c   **** 
 100:Src/usart.c   ****   /* USER CODE END USART2_MspDeInit 1 */
 101:Src/usart.c   ****   }
 102:Src/usart.c   **** } 
 218              		.loc 1 102 0
 219 0020 F3E7     		b	.L13
 220              	.L18:
 221 0022 00BF     		.align	2
 222              	.L17:
 223 0024 00440040 		.word	1073759232
 224 0028 00100240 		.word	1073876992
 225              		.cfi_endproc
 226              	.LFE132:
 228              		.comm	huart2,128,4
 229              		.text
 230              	.Letext0:
 231              		.file 2 "c:\\program files (x86)\\gnu tools arm embedded\\6.2 2016q4\\arm-none-eabi\\include\\mach
 232              		.file 3 "c:\\program files (x86)\\gnu tools arm embedded\\6.2 2016q4\\arm-none-eabi\\include\\sys\
 233              		.file 4 "Drivers/CMSIS/Include/core_cm4.h"
 234              		.file 5 "Drivers/CMSIS/Device/ST/STM32L4xx/Include/system_stm32l4xx.h"
 235              		.file 6 "Drivers/CMSIS/Device/ST/STM32L4xx/Include/stm32l476xx.h"
 236              		.file 7 "Drivers/STM32L4xx_HAL_Driver/Inc/stm32l4xx_hal_def.h"
 237              		.file 8 "Drivers/STM32L4xx_HAL_Driver/Inc/stm32l4xx_hal_gpio.h"
 238              		.file 9 "Drivers/STM32L4xx_HAL_Driver/Inc/stm32l4xx_hal_dma.h"
 239              		.file 10 "Drivers/STM32L4xx_HAL_Driver/Inc/stm32l4xx_hal_flash.h"
ARM GAS  C:\Users\hirot\AppData\Local\Temp\ccaHNj8E.s 			page 7


 240              		.file 11 "Drivers/STM32L4xx_HAL_Driver/Inc/stm32l4xx_hal_uart.h"
 241              		.file 12 "Drivers/STM32L4xx_HAL_Driver/Inc/stm32l4xx_hal.h"
 242              		.file 13 "Inc/usart.h"
 243              		.file 14 "Inc/main.h"
ARM GAS  C:\Users\hirot\AppData\Local\Temp\ccaHNj8E.s 			page 8

